
C:/Users/Nickd/SYDEQuest/build-pico/platformer.elf:     file format elf32-littlearm

Sections:
Idx Name          Size      VMA       LMA       File off  Algn
  0 .text         0000d5a0  10000000  10000000  00001000  2**3
                  CONTENTS, ALLOC, LOAD, READONLY, CODE
  1 .rodata       00018384  1000d5a0  1000d5a0  0000e5a0  2**3
                  CONTENTS, ALLOC, LOAD, READONLY, DATA
  2 .ARM.exidx    00000008  10025924  10025924  00026924  2**2
                  CONTENTS, ALLOC, LOAD, READONLY, DATA
  3 .binary_info  00000020  1002592c  1002592c  0002692c  2**2
                  CONTENTS, ALLOC, LOAD, READONLY, DATA
  4 .ram_vector_table 00000110  20000000  20000000  0002a000  2**2
                  ALLOC
  5 .uninitialized_data 00000000  20000110  20000110  00029108  2**0
                  CONTENTS
  6 .data         000017a8  20000110  1002594c  00027110  2**3
                  CONTENTS, ALLOC, LOAD, READONLY, CODE
  7 .tdata        00000000  200018b8  200018b8  00029108  2**0
                  CONTENTS, ALLOC, LOAD, DATA, THREAD_LOCAL
  8 .tbss         00000000  200018b8  200018b8  00000000  2**0
                  ALLOC, THREAD_LOCAL
  9 .bss          00000da4  200018b8  100270f4  000298b8  2**3
                  ALLOC
 10 .heap         00014000  2000265c  100270f4  0002965c  2**2
                  ALLOC, READONLY
 11 .scratch_x    00000000  20080000  20080000  00029108  2**0
                  CONTENTS
 12 .scratch_y    00000000  20081000  20081000  00029108  2**0
                  CONTENTS
 13 .stack_dummy  00000800  20081000  20081000  0002a000  2**5
                  ALLOC, READONLY
 14 .flash_end    00000014  100270f4  100270f4  000290f4  2**2
                  CONTENTS, ALLOC, LOAD, READONLY, DATA
 15 .ARM.attributes 00000034  00000000  00000000  00029108  2**0
                  CONTENTS, READONLY
 16 .comment      00000045  00000000  00000000  0002913c  2**0
                  CONTENTS, READONLY
 17 .debug_info   0006eab5  00000000  00000000  00029181  2**0
                  CONTENTS, READONLY, DEBUGGING, OCTETS
 18 .debug_abbrev 000112a4  00000000  00000000  00097c36  2**0
                  CONTENTS, READONLY, DEBUGGING, OCTETS
 19 .debug_loclists 0002ada5  00000000  00000000  000a8eda  2**0
                  CONTENTS, READONLY, DEBUGGING, OCTETS
 20 .debug_aranges 00001c08  00000000  00000000  000d3c80  2**3
                  CONTENTS, READONLY, DEBUGGING, OCTETS
 21 .debug_rnglists 00007c98  00000000  00000000  000d5888  2**0
                  CONTENTS, READONLY, DEBUGGING, OCTETS
 22 .debug_line   000395b6  00000000  00000000  000dd520  2**0
                  CONTENTS, READONLY, DEBUGGING, OCTETS
 23 .debug_str    00011ba6  00000000  00000000  00116ad6  2**0
                  CONTENTS, READONLY, DEBUGGING, OCTETS
 24 .debug_frame  00005410  00000000  00000000  0012867c  2**2
                  CONTENTS, READONLY, DEBUGGING, OCTETS
 25 .debug_line_str 000002dc  00000000  00000000  0012da8c  2**0
                  CONTENTS, READONLY, DEBUGGING, OCTETS

C:/Users/Nickd/SYDEQuest/build-pico/platformer.elf:     file format elf32-littlearm


Disassembly of section .text:

10000000 <__VECTOR_TABLE>:
10000000:	20082000 	.word	0x20082000
10000004:	1000015d 	.word	0x1000015d
10000008:	1000011b 	.word	0x1000011b
1000000c:	1000011d 	.word	0x1000011d
10000010:	10000111 	.word	0x10000111
10000014:	10000111 	.word	0x10000111
10000018:	10000111 	.word	0x10000111
1000001c:	10000111 	.word	0x10000111
10000020:	10000119 	.word	0x10000119
10000024:	10000119 	.word	0x10000119
10000028:	10000119 	.word	0x10000119
1000002c:	1000011f 	.word	0x1000011f
10000030:	10000111 	.word	0x10000111
10000034:	10000119 	.word	0x10000119
10000038:	10000121 	.word	0x10000121
1000003c:	10000123 	.word	0x10000123
10000040:	10000111 	.word	0x10000111
10000044:	10000111 	.word	0x10000111
10000048:	10000111 	.word	0x10000111
1000004c:	10000111 	.word	0x10000111
10000050:	10000111 	.word	0x10000111
10000054:	10000111 	.word	0x10000111
10000058:	10000111 	.word	0x10000111
1000005c:	10000111 	.word	0x10000111
10000060:	10000111 	.word	0x10000111
10000064:	10000111 	.word	0x10000111
10000068:	10000111 	.word	0x10000111
1000006c:	10000111 	.word	0x10000111
10000070:	10000111 	.word	0x10000111
10000074:	10000111 	.word	0x10000111
10000078:	10000111 	.word	0x10000111
1000007c:	10000111 	.word	0x10000111
10000080:	10000111 	.word	0x10000111
10000084:	10000111 	.word	0x10000111
10000088:	10000111 	.word	0x10000111
1000008c:	10000111 	.word	0x10000111
10000090:	10000111 	.word	0x10000111
10000094:	10000111 	.word	0x10000111
10000098:	10000111 	.word	0x10000111
1000009c:	10000111 	.word	0x10000111
100000a0:	10000111 	.word	0x10000111
100000a4:	10000111 	.word	0x10000111
100000a8:	10000111 	.word	0x10000111
100000ac:	10000111 	.word	0x10000111
100000b0:	10000111 	.word	0x10000111
100000b4:	10000111 	.word	0x10000111
100000b8:	10000111 	.word	0x10000111
100000bc:	10000111 	.word	0x10000111
100000c0:	10000111 	.word	0x10000111
100000c4:	10000111 	.word	0x10000111
100000c8:	10000111 	.word	0x10000111
100000cc:	10000111 	.word	0x10000111
100000d0:	10000111 	.word	0x10000111
100000d4:	10000111 	.word	0x10000111
100000d8:	10000111 	.word	0x10000111
100000dc:	10000111 	.word	0x10000111
100000e0:	10000111 	.word	0x10000111
100000e4:	10000111 	.word	0x10000111
100000e8:	10000111 	.word	0x10000111
100000ec:	10000111 	.word	0x10000111
100000f0:	10000111 	.word	0x10000111
100000f4:	10000111 	.word	0x10000111
100000f8:	10000111 	.word	0x10000111
100000fc:	10000111 	.word	0x10000111
10000100:	10000111 	.word	0x10000111
10000104:	10000111 	.word	0x10000111
10000108:	10000111 	.word	0x10000111
1000010c:	10000111 	.word	0x10000111

10000110 <__unhandled_user_irq>:
10000110:	f3ef 8005 	mrs	r0, IPSR
10000114:	3810      	subs	r0, #16

10000116 <unhandled_user_irq_num_in_r0>:
10000116:	be00      	bkpt	0x0000

10000118 <isr_invalid>:
10000118:	be00      	bkpt	0x0000

1000011a <isr_nmi>:
1000011a:	be00      	bkpt	0x0000

1000011c <isr_hardfault>:
1000011c:	be00      	bkpt	0x0000

1000011e <isr_svcall>:
1000011e:	be00      	bkpt	0x0000

10000120 <isr_pendsv>:
10000120:	be00      	bkpt	0x0000

10000122 <isr_systick>:
10000122:	be00      	bkpt	0x0000

10000124 <__default_isrs_end>:
10000124:	7188ebf2 	.word	0x7188ebf2
10000128:	1002592c 	.word	0x1002592c
1000012c:	1002594c 	.word	0x1002594c
10000130:	100001a0 	.word	0x100001a0
10000134:	e71aa390 	.word	0xe71aa390

10000138 <__binary_info_header_end>:
10000138:	ffffded3 	.word	0xffffded3
1000013c:	10210142 	.word	0x10210142
10000140:	000001ff 	.word	0x000001ff
10000144:	00026fbc 	.word	0x00026fbc
10000148:	ab123579 	.word	0xab123579

1000014c <_entry_point>:
1000014c:	f04f 0000 	mov.w	r0, #0

10000150 <_enter_vtable_in_r0>:
10000150:	491e      	ldr	r1, [pc, #120]	@ (100001cc <data_cpy_table+0x2c>)
10000152:	6008      	str	r0, [r1, #0]
10000154:	c806      	ldmia	r0!, {r1, r2}
10000156:	f381 8808 	msr	MSP, r1
1000015a:	4710      	bx	r2

1000015c <_reset_handler>:
1000015c:	f04f 4050 	mov.w	r0, #3489660928	@ 0xd0000000
10000160:	6800      	ldr	r0, [r0, #0]
10000162:	b110      	cbz	r0, 1000016a <hold_non_core0_in_bootrom+0x6>

10000164 <hold_non_core0_in_bootrom>:
10000164:	f04f 0000 	mov.w	r0, #0
10000168:	e7f2      	b.n	10000150 <_enter_vtable_in_r0>
1000016a:	a40d      	add	r4, pc, #52	@ (adr r4, 100001a0 <data_cpy_table>)
1000016c:	cc0e      	ldmia	r4!, {r1, r2, r3}
1000016e:	2900      	cmp	r1, #0
10000170:	d002      	beq.n	10000178 <hold_non_core0_in_bootrom+0x14>
10000172:	f000 f812 	bl	1000019a <data_cpy>
10000176:	e7f9      	b.n	1000016c <hold_non_core0_in_bootrom+0x8>
10000178:	4915      	ldr	r1, [pc, #84]	@ (100001d0 <data_cpy_table+0x30>)
1000017a:	4a16      	ldr	r2, [pc, #88]	@ (100001d4 <data_cpy_table+0x34>)
1000017c:	2000      	movs	r0, #0
1000017e:	e000      	b.n	10000182 <bss_fill_test>

10000180 <bss_fill_loop>:
10000180:	c101      	stmia	r1!, {r0}

10000182 <bss_fill_test>:
10000182:	4291      	cmp	r1, r2
10000184:	d1fc      	bne.n	10000180 <bss_fill_loop>

10000186 <platform_entry>:
10000186:	4914      	ldr	r1, [pc, #80]	@ (100001d8 <data_cpy_table+0x38>)
10000188:	4788      	blx	r1
1000018a:	4914      	ldr	r1, [pc, #80]	@ (100001dc <data_cpy_table+0x3c>)
1000018c:	4788      	blx	r1
1000018e:	4914      	ldr	r1, [pc, #80]	@ (100001e0 <data_cpy_table+0x40>)
10000190:	4788      	blx	r1
10000192:	be00      	bkpt	0x0000
10000194:	e7fd      	b.n	10000192 <platform_entry+0xc>

10000196 <data_cpy_loop>:
10000196:	c901      	ldmia	r1!, {r0}
10000198:	c201      	stmia	r2!, {r0}

1000019a <data_cpy>:
1000019a:	429a      	cmp	r2, r3
1000019c:	d3fb      	bcc.n	10000196 <data_cpy_loop>
1000019e:	4770      	bx	lr

100001a0 <data_cpy_table>:
100001a0:	1002594c 	.word	0x1002594c
100001a4:	20000110 	.word	0x20000110
100001a8:	200018b8 	.word	0x200018b8
100001ac:	100270f4 	.word	0x100270f4
100001b0:	20080000 	.word	0x20080000
100001b4:	20080000 	.word	0x20080000
100001b8:	100270f4 	.word	0x100270f4
100001bc:	20081000 	.word	0x20081000
100001c0:	20081000 	.word	0x20081000
100001c4:	00000000 	.word	0x00000000
100001c8:	4770      	bx	lr
100001ca:	0000      	.short	0x0000
100001cc:	e000ed08 	.word	0xe000ed08
100001d0:	200018b8 	.word	0x200018b8
100001d4:	2000265c 	.word	0x2000265c
100001d8:	100087ed 	.word	0x100087ed
100001dc:	10004279 	.word	0x10004279
100001e0:	100087e5 	.word	0x100087e5

100001e4 <_init>:
100001e4:	b5f8      	push	{r3, r4, r5, r6, r7, lr}
100001e6:	bf00      	nop

100001e8 <register_tm_clones>:
100001e8:	4b06      	ldr	r3, [pc, #24]	@ (10000204 <register_tm_clones+0x1c>)
100001ea:	4907      	ldr	r1, [pc, #28]	@ (10000208 <register_tm_clones+0x20>)
100001ec:	1ac9      	subs	r1, r1, r3
100001ee:	1089      	asrs	r1, r1, #2
100001f0:	bf48      	it	mi
100001f2:	3101      	addmi	r1, #1
100001f4:	1049      	asrs	r1, r1, #1
100001f6:	d003      	beq.n	10000200 <register_tm_clones+0x18>
100001f8:	4b04      	ldr	r3, [pc, #16]	@ (1000020c <register_tm_clones+0x24>)
100001fa:	b10b      	cbz	r3, 10000200 <register_tm_clones+0x18>
100001fc:	4801      	ldr	r0, [pc, #4]	@ (10000204 <register_tm_clones+0x1c>)
100001fe:	4718      	bx	r3
10000200:	4770      	bx	lr
10000202:	bf00      	nop
10000204:	200018b8 	.word	0x200018b8
10000208:	200018b8 	.word	0x200018b8
1000020c:	00000000 	.word	0x00000000

10000210 <frame_dummy>:
10000210:	b508      	push	{r3, lr}
10000212:	4b05      	ldr	r3, [pc, #20]	@ (10000228 <frame_dummy+0x18>)
10000214:	b11b      	cbz	r3, 1000021e <frame_dummy+0xe>
10000216:	4905      	ldr	r1, [pc, #20]	@ (1000022c <frame_dummy+0x1c>)
10000218:	4805      	ldr	r0, [pc, #20]	@ (10000230 <frame_dummy+0x20>)
1000021a:	f3af 8000 	nop.w
1000021e:	e8bd 4008 	ldmia.w	sp!, {r3, lr}
10000222:	f7ff bfe1 	b.w	100001e8 <register_tm_clones>
10000226:	bf00      	nop
10000228:	00000000 	.word	0x00000000
1000022c:	200025ec 	.word	0x200025ec
10000230:	1000d5a0 	.word	0x1000d5a0

10000234 <_ZN4GameC1EP9IRendererP6IInputP8IHapticsP6ITimer>:
10000234:	e92d 4ff8 	stmdb	sp!, {r3, r4, r5, r6, r7, r8, r9, sl, fp, lr}
10000238:	4605      	mov	r5, r0
1000023a:	460c      	mov	r4, r1
1000023c:	ed2d 8b02 	vpush	{d8}
10000240:	9e0c      	ldr	r6, [sp, #48]	@ 0x30
10000242:	e9c0 1200 	strd	r1, r2, [r0]
10000246:	e9c0 3602 	strd	r3, r6, [r0, #8]
1000024a:	3010      	adds	r0, #16
1000024c:	f002 f818 	bl	10002280 <_ZN6PlayerC1Ev>
10000250:	f105 0034 	add.w	r0, r5, #52	@ 0x34
10000254:	f003 ff68 	bl	10004128 <_ZN5LevelC1Ev>
10000258:	6823      	ldr	r3, [r4, #0]
1000025a:	4620      	mov	r0, r4
1000025c:	6adb      	ldr	r3, [r3, #44]	@ 0x2c
1000025e:	4798      	blx	r3
10000260:	4601      	mov	r1, r0
10000262:	6823      	ldr	r3, [r4, #0]
10000264:	4620      	mov	r0, r4
10000266:	6b1b      	ldr	r3, [r3, #48]	@ 0x30
10000268:	460c      	mov	r4, r1
1000026a:	4798      	blx	r3
1000026c:	4602      	mov	r2, r0
1000026e:	f505 5008 	add.w	r0, r5, #8704	@ 0x2200
10000272:	4621      	mov	r1, r4
10000274:	301c      	adds	r0, #28
10000276:	f003 ff8d 	bl	10004194 <_ZN6CameraC1Eii>
1000027a:	f505 5008 	add.w	r0, r5, #8704	@ 0x2200
1000027e:	3030      	adds	r0, #48	@ 0x30
10000280:	f002 f872 	bl	10002368 <_ZN16PlayerControllerC1Ev>
10000284:	2100      	movs	r1, #0
10000286:	2200      	movs	r2, #0
10000288:	f505 5309 	add.w	r3, r5, #8768	@ 0x2240
1000028c:	f505 5013 	add.w	r0, r5, #9408	@ 0x24c0
10000290:	3304      	adds	r3, #4
10000292:	3004      	adds	r0, #4
10000294:	611a      	str	r2, [r3, #16]
10000296:	61da      	str	r2, [r3, #28]
10000298:	8299      	strh	r1, [r3, #20]
1000029a:	6199      	str	r1, [r3, #24]
1000029c:	e9c3 1100 	strd	r1, r1, [r3]
100002a0:	e9c3 1102 	strd	r1, r1, [r3, #8]
100002a4:	3320      	adds	r3, #32
100002a6:	4283      	cmp	r3, r0
100002a8:	d1f4      	bne.n	10000294 <_ZN4GameC1EP9IRendererP6IInputP8IHapticsP6ITimer+0x60>
100002aa:	f242 4cc4 	movw	ip, #9412	@ 0x24c4
100002ae:	2000      	movs	r0, #0
100002b0:	2703      	movs	r7, #3
100002b2:	f505 5600 	add.w	r6, r5, #8192	@ 0x2000
100002b6:	f505 5213 	add.w	r2, r5, #9408	@ 0x24c0
100002ba:	f505 541d 	add.w	r4, r5, #10048	@ 0x2740
100002be:	f8c6 14d8 	str.w	r1, [r6, #1240]	@ 0x4d8
100002c2:	323c      	adds	r2, #60	@ 0x3c
100002c4:	f845 100c 	str.w	r1, [r5, ip]
100002c8:	343c      	adds	r4, #60	@ 0x3c
100002ca:	6059      	str	r1, [r3, #4]
100002cc:	6099      	str	r1, [r3, #8]
100002ce:	60d9      	str	r1, [r3, #12]
100002d0:	6119      	str	r1, [r3, #16]
100002d2:	f802 7c10 	strb.w	r7, [r2, #-16]
100002d6:	f802 0c04 	strb.w	r0, [r2, #-4]
100002da:	e942 0008 	strd	r0, r0, [r2, #-32]
100002de:	e942 0006 	strd	r0, r0, [r2, #-24]
100002e2:	3220      	adds	r2, #32
100002e4:	42a2      	cmp	r2, r4
100002e6:	d1f4      	bne.n	100002d2 <_ZN4GameC1EP9IRendererP6IInputP8IHapticsP6ITimer+0x9e>
100002e8:	f505 5113 	add.w	r1, r5, #9408	@ 0x24c0
100002ec:	311c      	adds	r1, #28
100002ee:	460b      	mov	r3, r1
100002f0:	2000      	movs	r0, #0
100002f2:	f505 521d 	add.w	r2, r5, #10048	@ 0x2740
100002f6:	321c      	adds	r2, #28
100002f8:	6158      	str	r0, [r3, #20]
100002fa:	3320      	adds	r3, #32
100002fc:	429a      	cmp	r2, r3
100002fe:	d1fb      	bne.n	100002f8 <_ZN4GameC1EP9IRendererP6IInputP8IHapticsP6ITimer+0xc4>
10000300:	2300      	movs	r3, #0
10000302:	618b      	str	r3, [r1, #24]
10000304:	3120      	adds	r1, #32
10000306:	4291      	cmp	r1, r2
10000308:	d1fb      	bne.n	10000302 <_ZN4GameC1EP9IRendererP6IInputP8IHapticsP6ITimer+0xce>
1000030a:	2200      	movs	r2, #0
1000030c:	f242 7c5c 	movw	ip, #10076	@ 0x275c
10000310:	2705      	movs	r7, #5
10000312:	2000      	movs	r0, #0
10000314:	f505 531d 	add.w	r3, r5, #10048	@ 0x2740
10000318:	f505 542a 	add.w	r4, r5, #10880	@ 0x2a80
1000031c:	f8c6 2770 	str.w	r2, [r6, #1904]	@ 0x770
10000320:	3334      	adds	r3, #52	@ 0x34
10000322:	f845 200c 	str.w	r2, [r5, ip]
10000326:	3414      	adds	r4, #20
10000328:	604a      	str	r2, [r1, #4]
1000032a:	608a      	str	r2, [r1, #8]
1000032c:	60ca      	str	r2, [r1, #12]
1000032e:	610a      	str	r2, [r1, #16]
10000330:	6198      	str	r0, [r3, #24]
10000332:	61d8      	str	r0, [r3, #28]
10000334:	6218      	str	r0, [r3, #32]
10000336:	741f      	strb	r7, [r3, #16]
10000338:	615a      	str	r2, [r3, #20]
1000033a:	f883 2024 	strb.w	r2, [r3, #36]	@ 0x24
1000033e:	e9c3 2200 	strd	r2, r2, [r3]
10000342:	e9c3 2202 	strd	r2, r2, [r3, #8]
10000346:	3328      	adds	r3, #40	@ 0x28
10000348:	42a3      	cmp	r3, r4
1000034a:	d1f1      	bne.n	10000330 <_ZN4GameC1EP9IRendererP6IInputP8IHapticsP6ITimer+0xfc>
1000034c:	f642 2794 	movw	r7, #10900	@ 0x2a94
10000350:	2400      	movs	r4, #0
10000352:	ed9f 8a6c 	vldr	s16, [pc, #432]	@ 10000504 <_ZN4GameC1EP9IRendererP6IInputP8IHapticsP6ITimer+0x2d0>
10000356:	f505 502a 	add.w	r0, r5, #10880	@ 0x2a80
1000035a:	f505 5139 	add.w	r1, r5, #11840	@ 0x2e40
1000035e:	f8c6 2aa8 	str.w	r2, [r6, #2728]	@ 0xaa8
10000362:	302c      	adds	r0, #44	@ 0x2c
10000364:	51ea      	str	r2, [r5, r7]
10000366:	312c      	adds	r1, #44	@ 0x2c
10000368:	605a      	str	r2, [r3, #4]
1000036a:	609a      	str	r2, [r3, #8]
1000036c:	60da      	str	r2, [r3, #12]
1000036e:	611a      	str	r2, [r3, #16]
10000370:	ed80 8a04 	vstr	s16, [r0, #16]
10000374:	ed80 8a07 	vstr	s16, [r0, #28]
10000378:	8284      	strh	r4, [r0, #20]
1000037a:	6184      	str	r4, [r0, #24]
1000037c:	e9c0 4400 	strd	r4, r4, [r0]
10000380:	e9c0 4402 	strd	r4, r4, [r0, #8]
10000384:	3020      	adds	r0, #32
10000386:	4288      	cmp	r0, r1
10000388:	d1f2      	bne.n	10000370 <_ZN4GameC1EP9IRendererP6IInputP8IHapticsP6ITimer+0x13c>
1000038a:	2100      	movs	r1, #0
1000038c:	221e      	movs	r2, #30
1000038e:	f8c6 4e8c 	str.w	r4, [r6, #3724]	@ 0xe8c
10000392:	f00c fa99 	bl	1000c8c8 <memset>
10000396:	2305      	movs	r3, #5
10000398:	f506 6269 	add.w	r2, r6, #3728	@ 0xe90
1000039c:	f505 503b 	add.w	r0, r5, #11968	@ 0x2ec0
100003a0:	f642 7b10 	movw	fp, #12048	@ 0x2f10
100003a4:	f8c6 4e90 	str.w	r4, [r6, #3728]	@ 0xe90
100003a8:	f8c6 4e94 	str.w	r4, [r6, #3732]	@ 0xe94
100003ac:	f886 4e98 	strb.w	r4, [r6, #3736]	@ 0xe98
100003b0:	f8c6 4e9c 	str.w	r4, [r6, #3740]	@ 0xe9c
100003b4:	3004      	adds	r0, #4
100003b6:	ed82 8a04 	vstr	s16, [r2, #16]
100003ba:	f8c6 3eb4 	str.w	r3, [r6, #3764]	@ 0xeb4
100003be:	f8c6 4ea8 	str.w	r4, [r6, #3752]	@ 0xea8
100003c2:	f886 4ea4 	strb.w	r4, [r6, #3748]	@ 0xea4
100003c6:	f8c6 4eac 	str.w	r4, [r6, #3756]	@ 0xeac
100003ca:	f8c6 4eb0 	str.w	r4, [r6, #3760]	@ 0xeb0
100003ce:	f886 4eb8 	strb.w	r4, [r6, #3768]	@ 0xeb8
100003d2:	f8c6 4ec0 	str.w	r4, [r6, #3776]	@ 0xec0
100003d6:	f886 4ebc 	strb.w	r4, [r6, #3772]	@ 0xebc
100003da:	f002 febd 	bl	10003158 <_ZN9BossEnemyC1Ev>
100003de:	f642 7a20 	movw	sl, #12064	@ 0x2f20
100003e2:	f505 503b 	add.w	r0, r5, #11968	@ 0x2ec0
100003e6:	f642 7930 	movw	r9, #12080	@ 0x2f30
100003ea:	3018      	adds	r0, #24
100003ec:	f002 feb4 	bl	10003158 <_ZN9BossEnemyC1Ev>
100003f0:	f642 7850 	movw	r8, #12112	@ 0x2f50
100003f4:	f505 503b 	add.w	r0, r5, #11968	@ 0x2ec0
100003f8:	f642 7760 	movw	r7, #12128	@ 0x2f60
100003fc:	302c      	adds	r0, #44	@ 0x2c
100003fe:	f002 feab 	bl	10003158 <_ZN9BossEnemyC1Ev>
10000402:	f642 7e70 	movw	lr, #12144	@ 0x2f70
10000406:	f642 7288 	movw	r2, #12168	@ 0x2f88
1000040a:	f04f 33ff 	mov.w	r3, #4294967295
1000040e:	eb05 0c0b 	add.w	ip, r5, fp
10000412:	f8c6 4f04 	str.w	r4, [r6, #3844]	@ 0xf04
10000416:	f8a6 4f00 	strh.w	r4, [r6, #3840]	@ 0xf00
1000041a:	f886 4f02 	strb.w	r4, [r6, #3842]	@ 0xf02
1000041e:	e94c 4402 	strd	r4, r4, [ip, #-8]
10000422:	f845 400b 	str.w	r4, [r5, fp]
10000426:	f8cc 4004 	str.w	r4, [ip, #4]
1000042a:	eb05 0c0a 	add.w	ip, r5, sl
1000042e:	e94c 4402 	strd	r4, r4, [ip, #-8]
10000432:	f505 503d 	add.w	r0, r5, #12096	@ 0x2f40
10000436:	f845 400a 	str.w	r4, [r5, sl]
1000043a:	f8cc 4004 	str.w	r4, [ip, #4]
1000043e:	eb05 0c09 	add.w	ip, r5, r9
10000442:	e94c 4402 	strd	r4, r4, [ip, #-8]
10000446:	f845 4009 	str.w	r4, [r5, r9]
1000044a:	f8cc 4004 	str.w	r4, [ip, #4]
1000044e:	e940 4402 	strd	r4, r4, [r0, #-8]
10000452:	e9c0 4400 	strd	r4, r4, [r0]
10000456:	eb05 0008 	add.w	r0, r5, r8
1000045a:	e940 4402 	strd	r4, r4, [r0, #-8]
1000045e:	f845 4008 	str.w	r4, [r5, r8]
10000462:	6044      	str	r4, [r0, #4]
10000464:	19e8      	adds	r0, r5, r7
10000466:	e940 4402 	strd	r4, r4, [r0, #-8]
1000046a:	f505 513e 	add.w	r1, r5, #12160	@ 0x2f80
1000046e:	51ec      	str	r4, [r5, r7]
10000470:	6044      	str	r4, [r0, #4]
10000472:	eb05 000e 	add.w	r0, r5, lr
10000476:	e940 4402 	strd	r4, r4, [r0, #-8]
1000047a:	f845 400e 	str.w	r4, [r5, lr]
1000047e:	6044      	str	r4, [r0, #4]
10000480:	e941 4402 	strd	r4, r4, [r1, #-8]
10000484:	e9c1 4400 	strd	r4, r4, [r1]
10000488:	f8c6 4f90 	str.w	r4, [r6, #3984]	@ 0xf90
1000048c:	50ac      	str	r4, [r5, r2]
1000048e:	442a      	add	r2, r5
10000490:	6054      	str	r4, [r2, #4]
10000492:	f8c6 3f9c 	str.w	r3, [r6, #3996]	@ 0xf9c
10000496:	f8c6 3fa0 	str.w	r3, [r6, #4000]	@ 0xfa0
1000049a:	f8c6 3fa4 	str.w	r3, [r6, #4004]	@ 0xfa4
1000049e:	f8c6 3fa8 	str.w	r3, [r6, #4008]	@ 0xfa8
100004a2:	f8c6 3fac 	str.w	r3, [r6, #4012]	@ 0xfac
100004a6:	f8c6 3fb0 	str.w	r3, [r6, #4016]	@ 0xfb0
100004aa:	f8c6 3fb4 	str.w	r3, [r6, #4020]	@ 0xfb4
100004ae:	f8c6 3fb8 	str.w	r3, [r6, #4024]	@ 0xfb8
100004b2:	f8c6 3fbc 	str.w	r3, [r6, #4028]	@ 0xfbc
100004b6:	f8c6 3fc0 	str.w	r3, [r6, #4032]	@ 0xfc0
100004ba:	f8c6 3fc4 	str.w	r3, [r6, #4036]	@ 0xfc4
100004be:	f8c6 3fc8 	str.w	r3, [r6, #4040]	@ 0xfc8
100004c2:	f8c6 3fcc 	str.w	r3, [r6, #4044]	@ 0xfcc
100004c6:	f8c6 3fd0 	str.w	r3, [r6, #4048]	@ 0xfd0
100004ca:	f8c6 3fd4 	str.w	r3, [r6, #4052]	@ 0xfd4
100004ce:	f8c6 3fd8 	str.w	r3, [r6, #4056]	@ 0xfd8
100004d2:	f8c6 3fdc 	str.w	r3, [r6, #4060]	@ 0xfdc
100004d6:	f606 73e4 	addw	r3, r6, #4068	@ 0xfe4
100004da:	f8c6 4fe0 	str.w	r4, [r6, #4064]	@ 0xfe0
100004de:	ed83 8a00 	vstr	s16, [r3]
100004e2:	f606 73ec 	addw	r3, r6, #4076	@ 0xfec
100004e6:	f8c6 4fe8 	str.w	r4, [r6, #4072]	@ 0xfe8
100004ea:	ed83 8a00 	vstr	s16, [r3]
100004ee:	f505 5340 	add.w	r3, r5, #12288	@ 0x3000
100004f2:	861c      	strh	r4, [r3, #48]	@ 0x30
100004f4:	f886 4ff0 	strb.w	r4, [r6, #4080]	@ 0xff0
100004f8:	4628      	mov	r0, r5
100004fa:	ecbd 8b02 	vpop	{d8}
100004fe:	e8bd 8ff8 	ldmia.w	sp!, {r3, r4, r5, r6, r7, r8, r9, sl, fp, pc}
10000502:	bf00      	nop
10000504:	00000000 	.word	0x00000000

10000508 <_ZN4Game4initEv>:
10000508:	b538      	push	{r3, r4, r5, lr}
1000050a:	4604      	mov	r4, r0
1000050c:	6800      	ldr	r0, [r0, #0]
1000050e:	4944      	ldr	r1, [pc, #272]	@ (10000620 <_ZN4Game4initEv+0x118>)
10000510:	6803      	ldr	r3, [r0, #0]
10000512:	f504 5500 	add.w	r5, r4, #8192	@ 0x2000
10000516:	69db      	ldr	r3, [r3, #28]
10000518:	4798      	blx	r3
1000051a:	6823      	ldr	r3, [r4, #0]
1000051c:	4941      	ldr	r1, [pc, #260]	@ (10000624 <_ZN4Game4initEv+0x11c>)
1000051e:	681a      	ldr	r2, [r3, #0]
10000520:	f8c5 0f9c 	str.w	r0, [r5, #3996]	@ 0xf9c
10000524:	4618      	mov	r0, r3
10000526:	69d3      	ldr	r3, [r2, #28]
10000528:	4798      	blx	r3
1000052a:	6823      	ldr	r3, [r4, #0]
1000052c:	493e      	ldr	r1, [pc, #248]	@ (10000628 <_ZN4Game4initEv+0x120>)
1000052e:	681a      	ldr	r2, [r3, #0]
10000530:	f8c5 0fa0 	str.w	r0, [r5, #4000]	@ 0xfa0
10000534:	4618      	mov	r0, r3
10000536:	69d3      	ldr	r3, [r2, #28]
10000538:	4798      	blx	r3
1000053a:	6823      	ldr	r3, [r4, #0]
1000053c:	493b      	ldr	r1, [pc, #236]	@ (1000062c <_ZN4Game4initEv+0x124>)
1000053e:	681a      	ldr	r2, [r3, #0]
10000540:	f8c5 0fa4 	str.w	r0, [r5, #4004]	@ 0xfa4
10000544:	4618      	mov	r0, r3
10000546:	69d3      	ldr	r3, [r2, #28]
10000548:	4798      	blx	r3
1000054a:	6823      	ldr	r3, [r4, #0]
1000054c:	4938      	ldr	r1, [pc, #224]	@ (10000630 <_ZN4Game4initEv+0x128>)
1000054e:	681a      	ldr	r2, [r3, #0]
10000550:	f8c5 0fa8 	str.w	r0, [r5, #4008]	@ 0xfa8
10000554:	4618      	mov	r0, r3
10000556:	69d3      	ldr	r3, [r2, #28]
10000558:	4798      	blx	r3
1000055a:	6823      	ldr	r3, [r4, #0]
1000055c:	4935      	ldr	r1, [pc, #212]	@ (10000634 <_ZN4Game4initEv+0x12c>)
1000055e:	681a      	ldr	r2, [r3, #0]
10000560:	f8c5 0fac 	str.w	r0, [r5, #4012]	@ 0xfac
10000564:	4618      	mov	r0, r3
10000566:	69d3      	ldr	r3, [r2, #28]
10000568:	4798      	blx	r3
1000056a:	6823      	ldr	r3, [r4, #0]
1000056c:	4932      	ldr	r1, [pc, #200]	@ (10000638 <_ZN4Game4initEv+0x130>)
1000056e:	681a      	ldr	r2, [r3, #0]
10000570:	f8c5 0fb0 	str.w	r0, [r5, #4016]	@ 0xfb0
10000574:	4618      	mov	r0, r3
10000576:	69d3      	ldr	r3, [r2, #28]
10000578:	4798      	blx	r3
1000057a:	6823      	ldr	r3, [r4, #0]
1000057c:	492f      	ldr	r1, [pc, #188]	@ (1000063c <_ZN4Game4initEv+0x134>)
1000057e:	681a      	ldr	r2, [r3, #0]
10000580:	f8c5 0fb4 	str.w	r0, [r5, #4020]	@ 0xfb4
10000584:	4618      	mov	r0, r3
10000586:	69d3      	ldr	r3, [r2, #28]
10000588:	4798      	blx	r3
1000058a:	6823      	ldr	r3, [r4, #0]
1000058c:	492c      	ldr	r1, [pc, #176]	@ (10000640 <_ZN4Game4initEv+0x138>)
1000058e:	681a      	ldr	r2, [r3, #0]
10000590:	f8c5 0fb8 	str.w	r0, [r5, #4024]	@ 0xfb8
10000594:	4618      	mov	r0, r3
10000596:	69d3      	ldr	r3, [r2, #28]
10000598:	4798      	blx	r3
1000059a:	6823      	ldr	r3, [r4, #0]
1000059c:	4929      	ldr	r1, [pc, #164]	@ (10000644 <_ZN4Game4initEv+0x13c>)
1000059e:	681a      	ldr	r2, [r3, #0]
100005a0:	f8c5 0fbc 	str.w	r0, [r5, #4028]	@ 0xfbc
100005a4:	4618      	mov	r0, r3
100005a6:	69d3      	ldr	r3, [r2, #28]
100005a8:	4798      	blx	r3
100005aa:	6823      	ldr	r3, [r4, #0]
100005ac:	4926      	ldr	r1, [pc, #152]	@ (10000648 <_ZN4Game4initEv+0x140>)
100005ae:	681a      	ldr	r2, [r3, #0]
100005b0:	f8c5 0fc0 	str.w	r0, [r5, #4032]	@ 0xfc0
100005b4:	4618      	mov	r0, r3
100005b6:	69d3      	ldr	r3, [r2, #28]
100005b8:	4798      	blx	r3
100005ba:	6823      	ldr	r3, [r4, #0]
100005bc:	4923      	ldr	r1, [pc, #140]	@ (1000064c <_ZN4Game4initEv+0x144>)
100005be:	681a      	ldr	r2, [r3, #0]
100005c0:	f8c5 0fc4 	str.w	r0, [r5, #4036]	@ 0xfc4
100005c4:	4618      	mov	r0, r3
100005c6:	69d3      	ldr	r3, [r2, #28]
100005c8:	4798      	blx	r3
100005ca:	6823      	ldr	r3, [r4, #0]
100005cc:	4920      	ldr	r1, [pc, #128]	@ (10000650 <_ZN4Game4initEv+0x148>)
100005ce:	681a      	ldr	r2, [r3, #0]
100005d0:	f8c5 0fc8 	str.w	r0, [r5, #4040]	@ 0xfc8
100005d4:	4618      	mov	r0, r3
100005d6:	69d3      	ldr	r3, [r2, #28]
100005d8:	4798      	blx	r3
100005da:	6823      	ldr	r3, [r4, #0]
100005dc:	491d      	ldr	r1, [pc, #116]	@ (10000654 <_ZN4Game4initEv+0x14c>)
100005de:	681a      	ldr	r2, [r3, #0]
100005e0:	f8c5 0fcc 	str.w	r0, [r5, #4044]	@ 0xfcc
100005e4:	4618      	mov	r0, r3
100005e6:	69d3      	ldr	r3, [r2, #28]
100005e8:	4798      	blx	r3
100005ea:	6823      	ldr	r3, [r4, #0]
100005ec:	491a      	ldr	r1, [pc, #104]	@ (10000658 <_ZN4Game4initEv+0x150>)
100005ee:	681a      	ldr	r2, [r3, #0]
100005f0:	f8c5 0fd0 	str.w	r0, [r5, #4048]	@ 0xfd0
100005f4:	4618      	mov	r0, r3
100005f6:	69d3      	ldr	r3, [r2, #28]
100005f8:	4798      	blx	r3
100005fa:	6823      	ldr	r3, [r4, #0]
100005fc:	4917      	ldr	r1, [pc, #92]	@ (1000065c <_ZN4Game4initEv+0x154>)
100005fe:	681a      	ldr	r2, [r3, #0]
10000600:	f8c5 0fd4 	str.w	r0, [r5, #4052]	@ 0xfd4
10000604:	4618      	mov	r0, r3
10000606:	69d3      	ldr	r3, [r2, #28]
10000608:	4798      	blx	r3
1000060a:	6823      	ldr	r3, [r4, #0]
1000060c:	4914      	ldr	r1, [pc, #80]	@ (10000660 <_ZN4Game4initEv+0x158>)
1000060e:	681a      	ldr	r2, [r3, #0]
10000610:	f8c5 0fd8 	str.w	r0, [r5, #4056]	@ 0xfd8
10000614:	4618      	mov	r0, r3
10000616:	69d3      	ldr	r3, [r2, #28]
10000618:	4798      	blx	r3
1000061a:	f8c5 0fdc 	str.w	r0, [r5, #4060]	@ 0xfdc
1000061e:	bd38      	pop	{r3, r4, r5, pc}
10000620:	1000d5a0 	.word	0x1000d5a0
10000624:	1000d5c0 	.word	0x1000d5c0
10000628:	1000d5e0 	.word	0x1000d5e0
1000062c:	1000d600 	.word	0x1000d600
10000630:	1000d628 	.word	0x1000d628
10000634:	1000d640 	.word	0x1000d640
10000638:	1000d658 	.word	0x1000d658
1000063c:	1000d678 	.word	0x1000d678
10000640:	1000d698 	.word	0x1000d698
10000644:	1000d6b0 	.word	0x1000d6b0
10000648:	1000d6cc 	.word	0x1000d6cc
1000064c:	1000d6ec 	.word	0x1000d6ec
10000650:	1000d708 	.word	0x1000d708
10000654:	1000d728 	.word	0x1000d728
10000658:	1000d744 	.word	0x1000d744
1000065c:	1000d760 	.word	0x1000d760
10000660:	1000d77c 	.word	0x1000d77c

10000664 <_ZN4Game25resetAndSpawnEntitiesPicoEv>:
10000664:	e92d 4ff0 	stmdb	sp!, {r4, r5, r6, r7, r8, r9, sl, fp, lr}
10000668:	2500      	movs	r5, #0
1000066a:	2600      	movs	r6, #0
1000066c:	4683      	mov	fp, r0
1000066e:	f242 41c4 	movw	r1, #9412	@ 0x24c4
10000672:	f242 775c 	movw	r7, #10076	@ 0x275c
10000676:	f642 2494 	movw	r4, #10900	@ 0x2a94
1000067a:	b08d      	sub	sp, #52	@ 0x34
1000067c:	6245      	str	r5, [r0, #36]	@ 0x24
1000067e:	6c00      	ldr	r0, [r0, #64]	@ 0x40
10000680:	f8cb 601c 	str.w	r6, [fp, #28]
10000684:	e9cb 0605 	strd	r0, r6, [fp, #20]
10000688:	f84b 6001 	str.w	r6, [fp, r1]
1000068c:	f89b 0030 	ldrb.w	r0, [fp, #48]	@ 0x30
10000690:	f50b 5500 	add.w	r5, fp, #8192	@ 0x2000
10000694:	f020 0001 	bic.w	r0, r0, #1
10000698:	f88b 0030 	strb.w	r0, [fp, #48]	@ 0x30
1000069c:	f8db 003c 	ldr.w	r0, [fp, #60]	@ 0x3c
100006a0:	4459      	add	r1, fp
100006a2:	f8cb 0010 	str.w	r0, [fp, #16]
100006a6:	eb0b 0007 	add.w	r0, fp, r7
100006aa:	604e      	str	r6, [r1, #4]
100006ac:	608e      	str	r6, [r1, #8]
100006ae:	60ce      	str	r6, [r1, #12]
100006b0:	610e      	str	r6, [r1, #16]
100006b2:	f8c5 64d8 	str.w	r6, [r5, #1240]	@ 0x4d8
100006b6:	eb0b 0104 	add.w	r1, fp, r4
100006ba:	f84b 6007 	str.w	r6, [fp, r7]
100006be:	6046      	str	r6, [r0, #4]
100006c0:	6086      	str	r6, [r0, #8]
100006c2:	60c6      	str	r6, [r0, #12]
100006c4:	6106      	str	r6, [r0, #16]
100006c6:	f50b 5039 	add.w	r0, fp, #11840	@ 0x2e40
100006ca:	f8c5 6770 	str.w	r6, [r5, #1904]	@ 0x770
100006ce:	221e      	movs	r2, #30
100006d0:	f84b 6004 	str.w	r6, [fp, r4]
100006d4:	302c      	adds	r0, #44	@ 0x2c
100006d6:	604e      	str	r6, [r1, #4]
100006d8:	608e      	str	r6, [r1, #8]
100006da:	60ce      	str	r6, [r1, #12]
100006dc:	610e      	str	r6, [r1, #16]
100006de:	4631      	mov	r1, r6
100006e0:	f8c5 6aa8 	str.w	r6, [r5, #2728]	@ 0xaa8
100006e4:	f00c f8f0 	bl	1000c8c8 <memset>
100006e8:	f642 7288 	movw	r2, #12168	@ 0x2f88
100006ec:	f8c5 6e8c 	str.w	r6, [r5, #3724]	@ 0xe8c
100006f0:	f885 6ea4 	strb.w	r6, [r5, #3748]	@ 0xea4
100006f4:	f8c5 6ea8 	str.w	r6, [r5, #3752]	@ 0xea8
100006f8:	f885 6ebc 	strb.w	r6, [r5, #3772]	@ 0xebc
100006fc:	f8c5 6ec0 	str.w	r6, [r5, #3776]	@ 0xec0
10000700:	f8a5 6f00 	strh.w	r6, [r5, #3840]	@ 0xf00
10000704:	f885 6f02 	strb.w	r6, [r5, #3842]	@ 0xf02
10000708:	f8c5 6f04 	str.w	r6, [r5, #3844]	@ 0xf04
1000070c:	f84b 6002 	str.w	r6, [fp, r2]
10000710:	445a      	add	r2, fp
10000712:	6056      	str	r6, [r2, #4]
10000714:	f895 2140 	ldrb.w	r2, [r5, #320]	@ 0x140
10000718:	f10b 0410 	add.w	r4, fp, #16
1000071c:	f8c5 6f90 	str.w	r6, [r5, #3984]	@ 0xf90
10000720:	f8c5 6f94 	str.w	r6, [r5, #3988]	@ 0xf94
10000724:	f8a5 6f98 	strh.w	r6, [r5, #3992]	@ 0xf98
10000728:	2a00      	cmp	r2, #0
1000072a:	d041      	beq.n	100007b0 <_ZN4Game25resetAndSpawnEntitiesPicoEv+0x14c>
1000072c:	f242 4adc 	movw	sl, #9436	@ 0x24dc
10000730:	f50b 5602 	add.w	r6, fp, #8320	@ 0x2080
10000734:	3620      	adds	r6, #32
10000736:	f50b 591d 	add.w	r9, fp, #10048	@ 0x2740
1000073a:	eb06 08c2 	add.w	r8, r6, r2, lsl #3
1000073e:	f109 091b 	add.w	r9, r9, #27
10000742:	9401      	str	r4, [sp, #4]
10000744:	464b      	mov	r3, r9
10000746:	2400      	movs	r4, #0
10000748:	e002      	b.n	10000750 <_ZN4Game25resetAndSpawnEntitiesPicoEv+0xec>
1000074a:	3401      	adds	r4, #1
1000074c:	2c14      	cmp	r4, #20
1000074e:	d02b      	beq.n	100007a8 <_ZN4Game25resetAndSpawnEntitiesPicoEv+0x144>
10000750:	f813 2f01 	ldrb.w	r2, [r3, #1]!
10000754:	2a00      	cmp	r2, #0
10000756:	d1f8      	bne.n	1000074a <_ZN4Game25resetAndSpawnEntitiesPicoEv+0xe6>
10000758:	f04f 0101 	mov.w	r1, #1
1000075c:	f8d5 3770 	ldr.w	r3, [r5, #1904]	@ 0x770
10000760:	192a      	adds	r2, r5, r4
10000762:	42a3      	cmp	r3, r4
10000764:	bf98      	it	ls
10000766:	1c63      	addls	r3, r4, #1
10000768:	f882 175c 	strb.w	r1, [r2, #1884]	@ 0x75c
1000076c:	eb0a 1444 	add.w	r4, sl, r4, lsl #5
10000770:	bf98      	it	ls
10000772:	f8c5 3770 	strls.w	r3, [r5, #1904]	@ 0x770
10000776:	e896 0006 	ldmia.w	r6, {r1, r2}
1000077a:	2301      	movs	r3, #1
1000077c:	a802      	add	r0, sp, #8
1000077e:	f001 ff75 	bl	1000266c <_ZN10BasicEnemyC1E4Vec2b>
10000782:	eb0b 0704 	add.w	r7, fp, r4
10000786:	f10d 0c08 	add.w	ip, sp, #8
1000078a:	e8bc 000f 	ldmia.w	ip!, {r0, r1, r2, r3}
1000078e:	f84b 0004 	str.w	r0, [fp, r4]
10000792:	6079      	str	r1, [r7, #4]
10000794:	60ba      	str	r2, [r7, #8]
10000796:	60fb      	str	r3, [r7, #12]
10000798:	e8bc 0007 	ldmia.w	ip!, {r0, r1, r2}
1000079c:	f89c 3000 	ldrb.w	r3, [ip]
100007a0:	6138      	str	r0, [r7, #16]
100007a2:	6179      	str	r1, [r7, #20]
100007a4:	61ba      	str	r2, [r7, #24]
100007a6:	773b      	strb	r3, [r7, #28]
100007a8:	3608      	adds	r6, #8
100007aa:	4546      	cmp	r6, r8
100007ac:	d1ca      	bne.n	10000744 <_ZN4Game25resetAndSpawnEntitiesPicoEv+0xe0>
100007ae:	9c01      	ldr	r4, [sp, #4]
100007b0:	f895 21e4 	ldrb.w	r2, [r5, #484]	@ 0x1e4
100007b4:	2a00      	cmp	r2, #0
100007b6:	d049      	beq.n	1000084c <_ZN4Game25resetAndSpawnEntitiesPicoEv+0x1e8>
100007b8:	f242 7a74 	movw	sl, #10100	@ 0x2774
100007bc:	f50b 5705 	add.w	r7, fp, #8512	@ 0x2140
100007c0:	3704      	adds	r7, #4
100007c2:	f50b 592a 	add.w	r9, fp, #10880	@ 0x2a80
100007c6:	eb07 08c2 	add.w	r8, r7, r2, lsl #3
100007ca:	f109 0913 	add.w	r9, r9, #19
100007ce:	9401      	str	r4, [sp, #4]
100007d0:	464a      	mov	r2, r9
100007d2:	2300      	movs	r3, #0
100007d4:	e002      	b.n	100007dc <_ZN4Game25resetAndSpawnEntitiesPicoEv+0x178>
100007d6:	3301      	adds	r3, #1
100007d8:	2b14      	cmp	r3, #20
100007da:	d033      	beq.n	10000844 <_ZN4Game25resetAndSpawnEntitiesPicoEv+0x1e0>
100007dc:	f812 1f01 	ldrb.w	r1, [r2, #1]!
100007e0:	2900      	cmp	r1, #0
100007e2:	d1f8      	bne.n	100007d6 <_ZN4Game25resetAndSpawnEntitiesPicoEv+0x172>
100007e4:	f04f 0001 	mov.w	r0, #1
100007e8:	f8d5 2aa8 	ldr.w	r2, [r5, #2728]	@ 0xaa8
100007ec:	18e9      	adds	r1, r5, r3
100007ee:	429a      	cmp	r2, r3
100007f0:	bf98      	it	ls
100007f2:	1c5a      	addls	r2, r3, #1
100007f4:	eb03 0383 	add.w	r3, r3, r3, lsl #2
100007f8:	f881 0a94 	strb.w	r0, [r1, #2708]	@ 0xa94
100007fc:	bf98      	it	ls
100007fe:	f8c5 2aa8 	strls.w	r2, [r5, #2728]	@ 0xaa8
10000802:	eb0a 02c3 	add.w	r2, sl, r3, lsl #3
10000806:	eb0b 0602 	add.w	r6, fp, r2
1000080a:	2301      	movs	r3, #1
1000080c:	e897 0006 	ldmia.w	r7, {r1, r2}
10000810:	a802      	add	r0, sp, #8
10000812:	f002 f94d 	bl	10002ab0 <_ZN11RangedEnemyC1E4Vec2b>
10000816:	ac02      	add	r4, sp, #8
10000818:	f10d 0e28 	add.w	lr, sp, #40	@ 0x28
1000081c:	46a4      	mov	ip, r4
1000081e:	3610      	adds	r6, #16
10000820:	e8bc 000f 	ldmia.w	ip!, {r0, r1, r2, r3}
10000824:	45f4      	cmp	ip, lr
10000826:	f104 0410 	add.w	r4, r4, #16
1000082a:	f846 0c10 	str.w	r0, [r6, #-16]
1000082e:	f846 1c0c 	str.w	r1, [r6, #-12]
10000832:	f846 2c08 	str.w	r2, [r6, #-8]
10000836:	f846 3c04 	str.w	r3, [r6, #-4]
1000083a:	d1ef      	bne.n	1000081c <_ZN4Game25resetAndSpawnEntitiesPicoEv+0x1b8>
1000083c:	6820      	ldr	r0, [r4, #0]
1000083e:	6030      	str	r0, [r6, #0]
10000840:	7923      	ldrb	r3, [r4, #4]
10000842:	7133      	strb	r3, [r6, #4]
10000844:	3708      	adds	r7, #8
10000846:	4547      	cmp	r7, r8
10000848:	d1c2      	bne.n	100007d0 <_ZN4Game25resetAndSpawnEntitiesPicoEv+0x16c>
1000084a:	9c01      	ldr	r4, [sp, #4]
1000084c:	f895 21f8 	ldrb.w	r2, [r5, #504]	@ 0x1f8
10000850:	b34a      	cbz	r2, 100008a6 <_ZN4Game25resetAndSpawnEntitiesPicoEv+0x242>
10000852:	f50b 5807 	add.w	r8, fp, #8640	@ 0x21c0
10000856:	f102 39ff 	add.w	r9, r2, #4294967295
1000085a:	f895 3ea4 	ldrb.w	r3, [r5, #3748]	@ 0xea4
1000085e:	f108 0828 	add.w	r8, r8, #40	@ 0x28
10000862:	fa5f f989 	uxtb.w	r9, r9
10000866:	f04f 0a01 	mov.w	sl, #1
1000086a:	eb08 09c9 	add.w	r9, r8, r9, lsl #3
1000086e:	b9d3      	cbnz	r3, 100008a6 <_ZN4Game25resetAndSpawnEntitiesPicoEv+0x242>
10000870:	f8d5 3ea8 	ldr.w	r3, [r5, #3752]	@ 0xea8
10000874:	a802      	add	r0, sp, #8
10000876:	f885 aea4 	strb.w	sl, [r5, #3748]	@ 0xea4
1000087a:	b90b      	cbnz	r3, 10000880 <_ZN4Game25resetAndSpawnEntitiesPicoEv+0x21c>
1000087c:	f8c5 aea8 	str.w	sl, [r5, #3752]	@ 0xea8
10000880:	e898 0006 	ldmia.w	r8, {r1, r2}
10000884:	af02      	add	r7, sp, #8
10000886:	f505 6669 	add.w	r6, r5, #3728	@ 0xe90
1000088a:	f002 fe01 	bl	10003490 <_ZN10HealthPackC1E4Vec2>
1000088e:	cf0f      	ldmia	r7!, {r0, r1, r2, r3}
10000890:	c60f      	stmia	r6!, {r0, r1, r2, r3}
10000892:	683b      	ldr	r3, [r7, #0]
10000894:	45c1      	cmp	r9, r8
10000896:	6033      	str	r3, [r6, #0]
10000898:	d005      	beq.n	100008a6 <_ZN4Game25resetAndSpawnEntitiesPicoEv+0x242>
1000089a:	f895 3ea4 	ldrb.w	r3, [r5, #3748]	@ 0xea4
1000089e:	f108 0808 	add.w	r8, r8, #8
100008a2:	2b00      	cmp	r3, #0
100008a4:	d0e4      	beq.n	10000870 <_ZN4Game25resetAndSpawnEntitiesPicoEv+0x20c>
100008a6:	2200      	movs	r2, #0
100008a8:	f50b 5640 	add.w	r6, fp, #12288	@ 0x3000
100008ac:	f886 2030 	strb.w	r2, [r6, #48]	@ 0x30
100008b0:	f895 2204 	ldrb.w	r2, [r5, #516]	@ 0x204
100008b4:	b3a2      	cbz	r2, 10000920 <_ZN4Game25resetAndSpawnEntitiesPicoEv+0x2bc>
100008b6:	f102 39ff 	add.w	r9, r2, #4294967295
100008ba:	f50b 5808 	add.w	r8, fp, #8704	@ 0x2200
100008be:	f895 3ebc 	ldrb.w	r3, [r5, #3772]	@ 0xebc
100008c2:	fa5f f989 	uxtb.w	r9, r9
100008c6:	f108 0808 	add.w	r8, r8, #8
100008ca:	f50b 5707 	add.w	r7, fp, #8640	@ 0x21c0
100008ce:	f04f 0a01 	mov.w	sl, #1
100008d2:	eb08 0989 	add.w	r9, r8, r9, lsl #2
100008d6:	373c      	adds	r7, #60	@ 0x3c
100008d8:	bb13      	cbnz	r3, 10000920 <_ZN4Game25resetAndSpawnEntitiesPicoEv+0x2bc>
100008da:	f8d5 3ec0 	ldr.w	r3, [r5, #3776]	@ 0xec0
100008de:	a802      	add	r0, sp, #8
100008e0:	f885 aebc 	strb.w	sl, [r5, #3772]	@ 0xebc
100008e4:	b90b      	cbnz	r3, 100008ea <_ZN4Game25resetAndSpawnEntitiesPicoEv+0x286>
100008e6:	f8c5 aec0 	str.w	sl, [r5, #3776]	@ 0xec0
100008ea:	e897 0006 	ldmia.w	r7, {r1, r2}
100008ee:	f8d8 3000 	ldr.w	r3, [r8]
100008f2:	f002 fe4f 	bl	10003594 <_ZN9ObjectiveC1E4Vec213ObjectiveType>
100008f6:	ab02      	add	r3, sp, #8
100008f8:	cb07      	ldmia	r3!, {r0, r1, r2}
100008fa:	781b      	ldrb	r3, [r3, #0]
100008fc:	45c1      	cmp	r9, r8
100008fe:	f107 0708 	add.w	r7, r7, #8
10000902:	f8c5 0eac 	str.w	r0, [r5, #3756]	@ 0xeac
10000906:	f8c5 1eb0 	str.w	r1, [r5, #3760]	@ 0xeb0
1000090a:	f8c5 2eb4 	str.w	r2, [r5, #3764]	@ 0xeb4
1000090e:	f885 3eb8 	strb.w	r3, [r5, #3768]	@ 0xeb8
10000912:	d005      	beq.n	10000920 <_ZN4Game25resetAndSpawnEntitiesPicoEv+0x2bc>
10000914:	f895 3ebc 	ldrb.w	r3, [r5, #3772]	@ 0xebc
10000918:	f108 0804 	add.w	r8, r8, #4
1000091c:	2b00      	cmp	r3, #0
1000091e:	d0dc      	beq.n	100008da <_ZN4Game25resetAndSpawnEntitiesPicoEv+0x276>
10000920:	f895 8218 	ldrb.w	r8, [r5, #536]	@ 0x218
10000924:	f1b8 0f00 	cmp.w	r8, #0
10000928:	bf14      	ite	ne
1000092a:	2201      	movne	r2, #1
1000092c:	2200      	moveq	r2, #0
1000092e:	f886 2031 	strb.w	r2, [r6, #49]	@ 0x31
10000932:	d017      	beq.n	10000964 <_ZN4Game25resetAndSpawnEntitiesPicoEv+0x300>
10000934:	f04f 0901 	mov.w	r9, #1
10000938:	f50b 5608 	add.w	r6, fp, #8704	@ 0x2200
1000093c:	3614      	adds	r6, #20
1000093e:	f50b 5708 	add.w	r7, fp, #8704	@ 0x2200
10000942:	eb06 0888 	add.w	r8, r6, r8, lsl #2
10000946:	370c      	adds	r7, #12
10000948:	f895 3f00 	ldrb.w	r3, [r5, #3840]	@ 0xf00
1000094c:	b1ab      	cbz	r3, 1000097a <_ZN4Game25resetAndSpawnEntitiesPicoEv+0x316>
1000094e:	f895 3f01 	ldrb.w	r3, [r5, #3841]	@ 0xf01
10000952:	b3ab      	cbz	r3, 100009c0 <_ZN4Game25resetAndSpawnEntitiesPicoEv+0x35c>
10000954:	f895 3f02 	ldrb.w	r3, [r5, #3842]	@ 0xf02
10000958:	b3b3      	cbz	r3, 100009c8 <_ZN4Game25resetAndSpawnEntitiesPicoEv+0x364>
1000095a:	3604      	adds	r6, #4
1000095c:	45b0      	cmp	r8, r6
1000095e:	f107 0708 	add.w	r7, r7, #8
10000962:	d1f1      	bne.n	10000948 <_ZN4Game25resetAndSpawnEntitiesPicoEv+0x2e4>
10000964:	4621      	mov	r1, r4
10000966:	f50b 5008 	add.w	r0, fp, #8704	@ 0x2200
1000096a:	f10b 0234 	add.w	r2, fp, #52	@ 0x34
1000096e:	301c      	adds	r0, #28
10000970:	b00d      	add	sp, #52	@ 0x34
10000972:	e8bd 4ff0 	ldmia.w	sp!, {r4, r5, r6, r7, r8, r9, sl, fp, lr}
10000976:	f003 bc17 	b.w	100041a8 <_ZN6Camera6followERK6PlayerRK5Level>
1000097a:	469a      	mov	sl, r3
1000097c:	2101      	movs	r1, #1
1000097e:	f8d5 3f04 	ldr.w	r3, [r5, #3844]	@ 0xf04
10000982:	eb05 020a 	add.w	r2, r5, sl
10000986:	4553      	cmp	r3, sl
10000988:	f882 9f00 	strb.w	r9, [r2, #3840]	@ 0xf00
1000098c:	6833      	ldr	r3, [r6, #0]
1000098e:	bf98      	it	ls
10000990:	f8c5 1f04 	strls.w	r1, [r5, #3844]	@ 0xf04
10000994:	a802      	add	r0, sp, #8
10000996:	e897 0006 	ldmia.w	r7, {r1, r2}
1000099a:	f002 fbe9 	bl	10003170 <_ZN9BossEnemyC1E4Vec28BossType>
1000099e:	eb0a 038a 	add.w	r3, sl, sl, lsl #2
100009a2:	eb05 0c83 	add.w	ip, r5, r3, lsl #2
100009a6:	f10d 0e08 	add.w	lr, sp, #8
100009aa:	f60c 6cc4 	addw	ip, ip, #3780	@ 0xec4
100009ae:	e8be 000f 	ldmia.w	lr!, {r0, r1, r2, r3}
100009b2:	e8ac 000f 	stmia.w	ip!, {r0, r1, r2, r3}
100009b6:	f8de 3000 	ldr.w	r3, [lr]
100009ba:	f8cc 3000 	str.w	r3, [ip]
100009be:	e7cc      	b.n	1000095a <_ZN4Game25resetAndSpawnEntitiesPicoEv+0x2f6>
100009c0:	f04f 0a01 	mov.w	sl, #1
100009c4:	2102      	movs	r1, #2
100009c6:	e7da      	b.n	1000097e <_ZN4Game25resetAndSpawnEntitiesPicoEv+0x31a>
100009c8:	2103      	movs	r1, #3
100009ca:	f04f 0a02 	mov.w	sl, #2
100009ce:	e7d6      	b.n	1000097e <_ZN4Game25resetAndSpawnEntitiesPicoEv+0x31a>

100009d0 <_ZN4Game28syncEntitiesFromCurrentLevelEPKc>:
100009d0:	b510      	push	{r4, lr}
100009d2:	4604      	mov	r4, r0
100009d4:	b151      	cbz	r1, 100009ec <_ZN4Game28syncEntitiesFromCurrentLevelEPKc+0x1c>
100009d6:	f500 503f 	add.w	r0, r0, #12224	@ 0x2fc0
100009da:	223f      	movs	r2, #63	@ 0x3f
100009dc:	3030      	adds	r0, #48	@ 0x30
100009de:	f00b ffc1 	bl	1000c964 <strncpy>
100009e2:	2200      	movs	r2, #0
100009e4:	f504 5340 	add.w	r3, r4, #12288	@ 0x3000
100009e8:	f883 202f 	strb.w	r2, [r3, #47]	@ 0x2f
100009ec:	4620      	mov	r0, r4
100009ee:	e8bd 4010 	ldmia.w	sp!, {r4, lr}
100009f2:	f7ff be37 	b.w	10000664 <_ZN4Game25resetAndSpawnEntitiesPicoEv>
100009f6:	bf00      	nop

100009f8 <_ZN4Game9loadLevelEPKc>:
100009f8:	b570      	push	{r4, r5, r6, lr}
100009fa:	460e      	mov	r6, r1
100009fc:	4604      	mov	r4, r0
100009fe:	b082      	sub	sp, #8
10000a00:	4630      	mov	r0, r6
10000a02:	491e      	ldr	r1, [pc, #120]	@ (10000a7c <_ZN4Game9loadLevelEPKc+0x84>)
10000a04:	f00c f948 	bl	1000cc98 <strstr>
10000a08:	b1e0      	cbz	r0, 10000a44 <_ZN4Game9loadLevelEPKc+0x4c>
10000a0a:	491d      	ldr	r1, [pc, #116]	@ (10000a80 <_ZN4Game9loadLevelEPKc+0x88>)
10000a0c:	2364      	movs	r3, #100	@ 0x64
10000a0e:	9100      	str	r1, [sp, #0]
10000a10:	2228      	movs	r2, #40	@ 0x28
10000a12:	491c      	ldr	r1, [pc, #112]	@ (10000a84 <_ZN4Game9loadLevelEPKc+0x8c>)
10000a14:	f104 0034 	add.w	r0, r4, #52	@ 0x34
10000a18:	f003 f99e 	bl	10003d58 <_ZN5Level18loadFromBinaryDataEPKaiiPK13LevelMetadata>
10000a1c:	4605      	mov	r5, r0
10000a1e:	b175      	cbz	r5, 10000a3e <_ZN4Game9loadLevelEPKc+0x46>
10000a20:	f504 503f 	add.w	r0, r4, #12224	@ 0x2fc0
10000a24:	223f      	movs	r2, #63	@ 0x3f
10000a26:	4631      	mov	r1, r6
10000a28:	3030      	adds	r0, #48	@ 0x30
10000a2a:	f00b ff9b 	bl	1000c964 <strncpy>
10000a2e:	2200      	movs	r2, #0
10000a30:	f504 5340 	add.w	r3, r4, #12288	@ 0x3000
10000a34:	4620      	mov	r0, r4
10000a36:	f883 202f 	strb.w	r2, [r3, #47]	@ 0x2f
10000a3a:	f7ff fe13 	bl	10000664 <_ZN4Game25resetAndSpawnEntitiesPicoEv>
10000a3e:	4628      	mov	r0, r5
10000a40:	b002      	add	sp, #8
10000a42:	bd70      	pop	{r4, r5, r6, pc}
10000a44:	4630      	mov	r0, r6
10000a46:	4910      	ldr	r1, [pc, #64]	@ (10000a88 <_ZN4Game9loadLevelEPKc+0x90>)
10000a48:	f00c f926 	bl	1000cc98 <strstr>
10000a4c:	b150      	cbz	r0, 10000a64 <_ZN4Game9loadLevelEPKc+0x6c>
10000a4e:	490f      	ldr	r1, [pc, #60]	@ (10000a8c <_ZN4Game9loadLevelEPKc+0x94>)
10000a50:	233c      	movs	r3, #60	@ 0x3c
10000a52:	9100      	str	r1, [sp, #0]
10000a54:	2264      	movs	r2, #100	@ 0x64
10000a56:	490e      	ldr	r1, [pc, #56]	@ (10000a90 <_ZN4Game9loadLevelEPKc+0x98>)
10000a58:	f104 0034 	add.w	r0, r4, #52	@ 0x34
10000a5c:	f003 f97c 	bl	10003d58 <_ZN5Level18loadFromBinaryDataEPKaiiPK13LevelMetadata>
10000a60:	4605      	mov	r5, r0
10000a62:	e7dc      	b.n	10000a1e <_ZN4Game9loadLevelEPKc+0x26>
10000a64:	490b      	ldr	r1, [pc, #44]	@ (10000a94 <_ZN4Game9loadLevelEPKc+0x9c>)
10000a66:	2320      	movs	r3, #32
10000a68:	9100      	str	r1, [sp, #0]
10000a6a:	2240      	movs	r2, #64	@ 0x40
10000a6c:	490a      	ldr	r1, [pc, #40]	@ (10000a98 <_ZN4Game9loadLevelEPKc+0xa0>)
10000a6e:	f104 0034 	add.w	r0, r4, #52	@ 0x34
10000a72:	f003 f971 	bl	10003d58 <_ZN5Level18loadFromBinaryDataEPKaiiPK13LevelMetadata>
10000a76:	4605      	mov	r5, r0
10000a78:	e7d1      	b.n	10000a1e <_ZN4Game9loadLevelEPKc+0x26>
10000a7a:	bf00      	nop
10000a7c:	1000d798 	.word	0x1000d798
10000a80:	1000f424 	.word	0x1000f424
10000a84:	1000f4fc 	.word	0x1000f4fc
10000a88:	1000d7a0 	.word	0x1000d7a0
10000a8c:	1000dbe8 	.word	0x1000dbe8
10000a90:	1000dcb4 	.word	0x1000dcb4
10000a94:	1001049c 	.word	0x1001049c
10000a98:	10010520 	.word	0x10010520

10000a9c <_ZN4Game21checkPortalCollisionsEv>:
10000a9c:	b5f0      	push	{r4, r5, r6, r7, lr}
10000a9e:	4605      	mov	r5, r0
10000aa0:	b085      	sub	sp, #20
10000aa2:	4668      	mov	r0, sp
10000aa4:	f105 0110 	add.w	r1, r5, #16
10000aa8:	f001 fc52 	bl	10002350 <_ZNK6Player11getColliderEv>
10000aac:	f505 5000 	add.w	r0, r5, #8192	@ 0x2000
10000ab0:	f890 309c 	ldrb.w	r3, [r0, #156]	@ 0x9c
10000ab4:	2b00      	cmp	r3, #0
10000ab6:	d039      	beq.n	10000b2c <_ZN4Game21checkPortalCollisionsEv+0x90>
10000ab8:	9a02      	ldr	r2, [sp, #8]
10000aba:	9c00      	ldr	r4, [sp, #0]
10000abc:	f505 5101 	add.w	r1, r5, #8256	@ 0x2040
10000ac0:	eb04 0e02 	add.w	lr, r4, r2
10000ac4:	2258      	movs	r2, #88	@ 0x58
10000ac6:	3104      	adds	r1, #4
10000ac8:	fb02 1c03 	mla	ip, r2, r3, r1
10000acc:	9e01      	ldr	r6, [sp, #4]
10000ace:	9f03      	ldr	r7, [sp, #12]
10000ad0:	4437      	add	r7, r6
10000ad2:	680a      	ldr	r2, [r1, #0]
10000ad4:	688b      	ldr	r3, [r1, #8]
10000ad6:	4413      	add	r3, r2
10000ad8:	42a3      	cmp	r3, r4
10000ada:	dd24      	ble.n	10000b26 <_ZN4Game21checkPortalCollisionsEv+0x8a>
10000adc:	4572      	cmp	r2, lr
10000ade:	da22      	bge.n	10000b26 <_ZN4Game21checkPortalCollisionsEv+0x8a>
10000ae0:	684a      	ldr	r2, [r1, #4]
10000ae2:	68cb      	ldr	r3, [r1, #12]
10000ae4:	4413      	add	r3, r2
10000ae6:	429e      	cmp	r6, r3
10000ae8:	da1d      	bge.n	10000b26 <_ZN4Game21checkPortalCollisionsEv+0x8a>
10000aea:	42ba      	cmp	r2, r7
10000aec:	da1b      	bge.n	10000b26 <_ZN4Game21checkPortalCollisionsEv+0x8a>
10000aee:	f890 3ebc 	ldrb.w	r3, [r0, #3772]	@ 0xebc
10000af2:	b9eb      	cbnz	r3, 10000b30 <_ZN4Game21checkPortalCollisionsEv+0x94>
10000af4:	f890 3f00 	ldrb.w	r3, [r0, #3840]	@ 0xf00
10000af8:	b113      	cbz	r3, 10000b00 <_ZN4Game21checkPortalCollisionsEv+0x64>
10000afa:	f890 3ed0 	ldrb.w	r3, [r0, #3792]	@ 0xed0
10000afe:	b9ab      	cbnz	r3, 10000b2c <_ZN4Game21checkPortalCollisionsEv+0x90>
10000b00:	f890 3f01 	ldrb.w	r3, [r0, #3841]	@ 0xf01
10000b04:	b113      	cbz	r3, 10000b0c <_ZN4Game21checkPortalCollisionsEv+0x70>
10000b06:	f890 3ee4 	ldrb.w	r3, [r0, #3812]	@ 0xee4
10000b0a:	b97b      	cbnz	r3, 10000b2c <_ZN4Game21checkPortalCollisionsEv+0x90>
10000b0c:	f890 3f02 	ldrb.w	r3, [r0, #3842]	@ 0xf02
10000b10:	b113      	cbz	r3, 10000b18 <_ZN4Game21checkPortalCollisionsEv+0x7c>
10000b12:	f890 3ef8 	ldrb.w	r3, [r0, #3832]	@ 0xef8
10000b16:	b94b      	cbnz	r3, 10000b2c <_ZN4Game21checkPortalCollisionsEv+0x90>
10000b18:	4628      	mov	r0, r5
10000b1a:	3110      	adds	r1, #16
10000b1c:	b005      	add	sp, #20
10000b1e:	e8bd 40f0 	ldmia.w	sp!, {r4, r5, r6, r7, lr}
10000b22:	f7ff bf69 	b.w	100009f8 <_ZN4Game9loadLevelEPKc>
10000b26:	3158      	adds	r1, #88	@ 0x58
10000b28:	4561      	cmp	r1, ip
10000b2a:	d1d2      	bne.n	10000ad2 <_ZN4Game21checkPortalCollisionsEv+0x36>
10000b2c:	b005      	add	sp, #20
10000b2e:	bdf0      	pop	{r4, r5, r6, r7, pc}
10000b30:	f505 5340 	add.w	r3, r5, #12288	@ 0x3000
10000b34:	f893 3030 	ldrb.w	r3, [r3, #48]	@ 0x30
10000b38:	2b00      	cmp	r3, #0
10000b3a:	d0f7      	beq.n	10000b2c <_ZN4Game21checkPortalCollisionsEv+0x90>
10000b3c:	f890 3f00 	ldrb.w	r3, [r0, #3840]	@ 0xf00
10000b40:	2b00      	cmp	r3, #0
10000b42:	d0dd      	beq.n	10000b00 <_ZN4Game21checkPortalCollisionsEv+0x64>
10000b44:	e7d9      	b.n	10000afa <_ZN4Game21checkPortalCollisionsEv+0x5e>
10000b46:	bf00      	nop

10000b48 <_ZN4Game6updateEv>:
10000b48:	e92d 4ff0 	stmdb	sp!, {r4, r5, r6, r7, r8, r9, sl, fp, lr}
10000b4c:	ed2d 8b04 	vpush	{d8-d9}
10000b50:	4607      	mov	r7, r0
10000b52:	b0c3      	sub	sp, #268	@ 0x10c
10000b54:	9002      	str	r0, [sp, #8]
10000b56:	68c0      	ldr	r0, [r0, #12]
10000b58:	f507 5408 	add.w	r4, r7, #8704	@ 0x2200
10000b5c:	6803      	ldr	r3, [r0, #0]
10000b5e:	342c      	adds	r4, #44	@ 0x2c
10000b60:	689b      	ldr	r3, [r3, #8]
10000b62:	4798      	blx	r3
10000b64:	6878      	ldr	r0, [r7, #4]
10000b66:	6803      	ldr	r3, [r0, #0]
10000b68:	689b      	ldr	r3, [r3, #8]
10000b6a:	4798      	blx	r3
10000b6c:	68f8      	ldr	r0, [r7, #12]
10000b6e:	6803      	ldr	r3, [r0, #0]
10000b70:	68db      	ldr	r3, [r3, #12]
10000b72:	4798      	blx	r3
10000b74:	f107 0310 	add.w	r3, r7, #16
10000b78:	4682      	mov	sl, r0
10000b7a:	4698      	mov	r8, r3
10000b7c:	f507 5008 	add.w	r0, r7, #8704	@ 0x2200
10000b80:	4619      	mov	r1, r3
10000b82:	687a      	ldr	r2, [r7, #4]
10000b84:	9304      	str	r3, [sp, #16]
10000b86:	3030      	adds	r0, #48	@ 0x30
10000b88:	4653      	mov	r3, sl
10000b8a:	f001 fc3f 	bl	1000240c <_ZN16PlayerController6updateER6PlayerP6IInputf>
10000b8e:	4652      	mov	r2, sl
10000b90:	4641      	mov	r1, r8
10000b92:	4620      	mov	r0, r4
10000b94:	f002 fd56 	bl	10003644 <_ZN7Physics12applyGravityER6Playerf>
10000b98:	4641      	mov	r1, r8
10000b9a:	4620      	mov	r0, r4
10000b9c:	f002 fd68 	bl	10003670 <_ZN7Physics13clampVelocityER6Player>
10000ba0:	ee07 aa90 	vmov	s15, sl
10000ba4:	eefe 7ac8 	vcvt.s32.f32	s15, s15, #16
10000ba8:	ee17 5a90 	vmov	r5, s15
10000bac:	f507 5208 	add.w	r2, r7, #8704	@ 0x2200
10000bb0:	f102 002d 	add.w	r0, r2, #45	@ 0x2d
10000bb4:	f107 0234 	add.w	r2, r7, #52	@ 0x34
10000bb8:	4693      	mov	fp, r2
10000bba:	4681      	mov	r9, r0
10000bbc:	69bb      	ldr	r3, [r7, #24]
10000bbe:	693c      	ldr	r4, [r7, #16]
10000bc0:	fb85 3603 	smull	r3, r6, r5, r3
10000bc4:	0c1b      	lsrs	r3, r3, #16
10000bc6:	ea43 4306 	orr.w	r3, r3, r6, lsl #16
10000bca:	441c      	add	r4, r3
10000bcc:	4641      	mov	r1, r8
10000bce:	613c      	str	r4, [r7, #16]
10000bd0:	9007      	str	r0, [sp, #28]
10000bd2:	9203      	str	r2, [sp, #12]
10000bd4:	f002 feda 	bl	1000398c <_ZN9Collision17resolveHorizontalER6PlayerRK5Level>
10000bd8:	69fb      	ldr	r3, [r7, #28]
10000bda:	4641      	mov	r1, r8
10000bdc:	fb85 2303 	smull	r2, r3, r5, r3
10000be0:	0c12      	lsrs	r2, r2, #16
10000be2:	ea42 4203 	orr.w	r2, r2, r3, lsl #16
10000be6:	697b      	ldr	r3, [r7, #20]
10000be8:	4648      	mov	r0, r9
10000bea:	441a      	add	r2, r3
10000bec:	617a      	str	r2, [r7, #20]
10000bee:	f897 2030 	ldrb.w	r2, [r7, #48]	@ 0x30
10000bf2:	f507 563b 	add.w	r6, r7, #11968	@ 0x2ec0
10000bf6:	f022 0201 	bic.w	r2, r2, #1
10000bfa:	f887 2030 	strb.w	r2, [r7, #48]	@ 0x30
10000bfe:	465a      	mov	r2, fp
10000c00:	f002 fd4e 	bl	100036a0 <_ZN9Collision15resolveVerticalER6PlayerRK5Levell>
10000c04:	f507 523b 	add.w	r2, r7, #11968	@ 0x2ec0
10000c08:	3204      	adds	r2, #4
10000c0a:	4614      	mov	r4, r2
10000c0c:	9205      	str	r2, [sp, #20]
10000c0e:	363f      	adds	r6, #63	@ 0x3f
10000c10:	f507 553c 	add.w	r5, r7, #12032	@ 0x2f00
10000c14:	f507 5800 	add.w	r8, r7, #8192	@ 0x2000
10000c18:	f816 3f01 	ldrb.w	r3, [r6, #1]!
10000c1c:	b3b3      	cbz	r3, 10000c8c <_ZN4Game6updateEv+0x144>
10000c1e:	7b23      	ldrb	r3, [r4, #12]
10000c20:	b3a3      	cbz	r3, 10000c8c <_ZN4Game6updateEv+0x144>
10000c22:	7b60      	ldrb	r0, [r4, #13]
10000c24:	bb90      	cbnz	r0, 10000c8c <_ZN4Game6updateEv+0x144>
10000c26:	f04f 0901 	mov.w	r9, #1
10000c2a:	6823      	ldr	r3, [r4, #0]
10000c2c:	6862      	ldr	r2, [r4, #4]
10000c2e:	f503 1b80 	add.w	fp, r3, #1048576	@ 0x100000
10000c32:	693b      	ldr	r3, [r7, #16]
10000c34:	6979      	ldr	r1, [r7, #20]
10000c36:	f502 1c80 	add.w	ip, r2, #1048576	@ 0x100000
10000c3a:	ea4f 7ee3 	mov.w	lr, r3, asr #31
10000c3e:	ebb3 020b 	subs.w	r2, r3, fp
10000c42:	eb6e 7eeb 	sbc.w	lr, lr, fp, asr #31
10000c46:	ebb1 030c 	subs.w	r3, r1, ip
10000c4a:	ea4f 71e1 	mov.w	r1, r1, asr #31
10000c4e:	eb61 71ec 	sbc.w	r1, r1, ip, asr #31
10000c52:	fb03 f101 	mul.w	r1, r3, r1
10000c56:	fba3 3c03 	umull	r3, ip, r3, r3
10000c5a:	fb02 fe0e 	mul.w	lr, r2, lr
10000c5e:	eb0c 0c41 	add.w	ip, ip, r1, lsl #1
10000c62:	fba2 2102 	umull	r2, r1, r2, r2
10000c66:	0c1b      	lsrs	r3, r3, #16
10000c68:	eb01 014e 	add.w	r1, r1, lr, lsl #1
10000c6c:	0c12      	lsrs	r2, r2, #16
10000c6e:	ea42 4201 	orr.w	r2, r2, r1, lsl #16
10000c72:	ea43 430c 	orr.w	r3, r3, ip, lsl #16
10000c76:	189b      	adds	r3, r3, r2
10000c78:	ea4f 4221 	mov.w	r2, r1, asr #16
10000c7c:	494b      	ldr	r1, [pc, #300]	@ (10000dac <_ZN4Game6updateEv+0x264>)
10000c7e:	eb42 422c 	adc.w	r2, r2, ip, asr #16
10000c82:	4299      	cmp	r1, r3
10000c84:	eb79 0202 	sbcs.w	r2, r9, r2
10000c88:	f280 8515 	bge.w	100016b6 <_ZN4Game6updateEv+0xb6e>
10000c8c:	3414      	adds	r4, #20
10000c8e:	42ac      	cmp	r4, r5
10000c90:	d1c2      	bne.n	10000c18 <_ZN4Game6updateEv+0xd0>
10000c92:	2200      	movs	r2, #0
10000c94:	2300      	movs	r3, #0
10000c96:	f898 4f88 	ldrb.w	r4, [r8, #3976]	@ 0xf88
10000c9a:	e9cd 2322 	strd	r2, r3, [sp, #136]	@ 0x88
10000c9e:	e9cd 2324 	strd	r2, r3, [sp, #144]	@ 0x90
10000ca2:	e9cd 2326 	strd	r2, r3, [sp, #152]	@ 0x98
10000ca6:	e9cd 2328 	strd	r2, r3, [sp, #160]	@ 0xa0
10000caa:	e9cd 232a 	strd	r2, r3, [sp, #168]	@ 0xa8
10000cae:	e9cd 232c 	strd	r2, r3, [sp, #176]	@ 0xb0
10000cb2:	e9cd 232e 	strd	r2, r3, [sp, #184]	@ 0xb8
10000cb6:	e9cd 2330 	strd	r2, r3, [sp, #192]	@ 0xc0
10000cba:	e9cd 2332 	strd	r2, r3, [sp, #200]	@ 0xc8
10000cbe:	e9cd 2334 	strd	r2, r3, [sp, #208]	@ 0xd0
10000cc2:	e9cd 2336 	strd	r2, r3, [sp, #216]	@ 0xd8
10000cc6:	e9cd 2338 	strd	r2, r3, [sp, #224]	@ 0xe0
10000cca:	e9cd 233a 	strd	r2, r3, [sp, #232]	@ 0xe8
10000cce:	e9cd 233c 	strd	r2, r3, [sp, #240]	@ 0xf0
10000cd2:	e9cd 233e 	strd	r2, r3, [sp, #248]	@ 0xf8
10000cd6:	e9cd 2340 	strd	r2, r3, [sp, #256]	@ 0x100
10000cda:	b134      	cbz	r4, 10000cea <_ZN4Game6updateEv+0x1a2>
10000cdc:	2401      	movs	r4, #1
10000cde:	f608 7308 	addw	r3, r8, #3848	@ 0xf08
10000ce2:	ad22      	add	r5, sp, #136	@ 0x88
10000ce4:	cb0f      	ldmia	r3, {r0, r1, r2, r3}
10000ce6:	e885 000f 	stmia.w	r5, {r0, r1, r2, r3}
10000cea:	f898 3f89 	ldrb.w	r3, [r8, #3977]	@ 0xf89
10000cee:	2b00      	cmp	r3, #0
10000cf0:	f040 8429 	bne.w	10001546 <_ZN4Game6updateEv+0x9fe>
10000cf4:	f898 3f8a 	ldrb.w	r3, [r8, #3978]	@ 0xf8a
10000cf8:	b14b      	cbz	r3, 10000d0e <_ZN4Game6updateEv+0x1c6>
10000cfa:	ab42      	add	r3, sp, #264	@ 0x108
10000cfc:	eb03 1504 	add.w	r5, r3, r4, lsl #4
10000d00:	3d80      	subs	r5, #128	@ 0x80
10000d02:	f608 7328 	addw	r3, r8, #3880	@ 0xf28
10000d06:	cb0f      	ldmia	r3, {r0, r1, r2, r3}
10000d08:	e885 000f 	stmia.w	r5, {r0, r1, r2, r3}
10000d0c:	3401      	adds	r4, #1
10000d0e:	f898 3f8b 	ldrb.w	r3, [r8, #3979]	@ 0xf8b
10000d12:	b14b      	cbz	r3, 10000d28 <_ZN4Game6updateEv+0x1e0>
10000d14:	ab42      	add	r3, sp, #264	@ 0x108
10000d16:	eb03 1504 	add.w	r5, r3, r4, lsl #4
10000d1a:	3d80      	subs	r5, #128	@ 0x80
10000d1c:	f608 7338 	addw	r3, r8, #3896	@ 0xf38
10000d20:	cb0f      	ldmia	r3, {r0, r1, r2, r3}
10000d22:	e885 000f 	stmia.w	r5, {r0, r1, r2, r3}
10000d26:	3401      	adds	r4, #1
10000d28:	f898 3f8c 	ldrb.w	r3, [r8, #3980]	@ 0xf8c
10000d2c:	b14b      	cbz	r3, 10000d42 <_ZN4Game6updateEv+0x1fa>
10000d2e:	ab42      	add	r3, sp, #264	@ 0x108
10000d30:	eb03 1504 	add.w	r5, r3, r4, lsl #4
10000d34:	3d80      	subs	r5, #128	@ 0x80
10000d36:	f608 7348 	addw	r3, r8, #3912	@ 0xf48
10000d3a:	cb0f      	ldmia	r3, {r0, r1, r2, r3}
10000d3c:	e885 000f 	stmia.w	r5, {r0, r1, r2, r3}
10000d40:	3401      	adds	r4, #1
10000d42:	f898 3f8d 	ldrb.w	r3, [r8, #3981]	@ 0xf8d
10000d46:	b14b      	cbz	r3, 10000d5c <_ZN4Game6updateEv+0x214>
10000d48:	ab42      	add	r3, sp, #264	@ 0x108
10000d4a:	eb03 1504 	add.w	r5, r3, r4, lsl #4
10000d4e:	3d80      	subs	r5, #128	@ 0x80
10000d50:	f608 7358 	addw	r3, r8, #3928	@ 0xf58
10000d54:	cb0f      	ldmia	r3, {r0, r1, r2, r3}
10000d56:	e885 000f 	stmia.w	r5, {r0, r1, r2, r3}
10000d5a:	3401      	adds	r4, #1
10000d5c:	f898 3f8e 	ldrb.w	r3, [r8, #3982]	@ 0xf8e
10000d60:	b14b      	cbz	r3, 10000d76 <_ZN4Game6updateEv+0x22e>
10000d62:	ab42      	add	r3, sp, #264	@ 0x108
10000d64:	eb03 1504 	add.w	r5, r3, r4, lsl #4
10000d68:	3d80      	subs	r5, #128	@ 0x80
10000d6a:	f608 7368 	addw	r3, r8, #3944	@ 0xf68
10000d6e:	cb0f      	ldmia	r3, {r0, r1, r2, r3}
10000d70:	e885 000f 	stmia.w	r5, {r0, r1, r2, r3}
10000d74:	3401      	adds	r4, #1
10000d76:	f898 3f8f 	ldrb.w	r3, [r8, #3983]	@ 0xf8f
10000d7a:	2b00      	cmp	r3, #0
10000d7c:	f040 83d8 	bne.w	10001530 <_ZN4Game6updateEv+0x9e8>
10000d80:	4623      	mov	r3, r4
10000d82:	9c04      	ldr	r4, [sp, #16]
10000d84:	aa22      	add	r2, sp, #136	@ 0x88
10000d86:	4621      	mov	r1, r4
10000d88:	9807      	ldr	r0, [sp, #28]
10000d8a:	f002 fe6f 	bl	10003a6c <_ZN9Collision17resolveArenaWallsER6PlayerPK4Rectj>
10000d8e:	4651      	mov	r1, sl
10000d90:	4620      	mov	r0, r4
10000d92:	f001 fa8b 	bl	100022ac <_ZN6Player6updateEf>
10000d96:	9b02      	ldr	r3, [sp, #8]
10000d98:	f893 1030 	ldrb.w	r1, [r3, #48]	@ 0x30
10000d9c:	f503 5313 	add.w	r3, r3, #9408	@ 0x24c0
10000da0:	3303      	adds	r3, #3
10000da2:	074a      	lsls	r2, r1, #29
10000da4:	9306      	str	r3, [sp, #24]
10000da6:	d531      	bpl.n	10000e0c <_ZN4Game6updateEv+0x2c4>
10000da8:	2400      	movs	r4, #0
10000daa:	e004      	b.n	10000db6 <_ZN4Game6updateEv+0x26e>
10000dac:	5f8fffff 	.word	0x5f8fffff
10000db0:	3401      	adds	r4, #1
10000db2:	2c14      	cmp	r4, #20
10000db4:	d02a      	beq.n	10000e0c <_ZN4Game6updateEv+0x2c4>
10000db6:	f813 2f01 	ldrb.w	r2, [r3, #1]!
10000dba:	2a00      	cmp	r2, #0
10000dbc:	d1f8      	bne.n	10000db0 <_ZN4Game6updateEv+0x268>
10000dbe:	2601      	movs	r6, #1
10000dc0:	f8d8 54d8 	ldr.w	r5, [r8, #1240]	@ 0x4d8
10000dc4:	9a02      	ldr	r2, [sp, #8]
10000dc6:	eb08 0304 	add.w	r3, r8, r4
10000dca:	42a5      	cmp	r5, r4
10000dcc:	e9d2 0204 	ldrd	r0, r2, [r2, #16]
10000dd0:	f883 64c4 	strb.w	r6, [r3, #1220]	@ 0x4c4
10000dd4:	bf9c      	itt	ls
10000dd6:	19a3      	addls	r3, r4, r6
10000dd8:	f8c8 34d8 	strls.w	r3, [r8, #1240]	@ 0x4d8
10000ddc:	f3c1 03c0 	ubfx	r3, r1, #3, #1
10000de0:	eb00 5003 	add.w	r0, r0, r3, lsl #20
10000de4:	f502 2280 	add.w	r2, r2, #262144	@ 0x40000
10000de8:	9010      	str	r0, [sp, #64]	@ 0x40
10000dea:	9211      	str	r2, [sp, #68]	@ 0x44
10000dec:	eb08 1444 	add.w	r4, r8, r4, lsl #5
10000df0:	aa10      	add	r2, sp, #64	@ 0x40
10000df2:	ca06      	ldmia	r2, {r1, r2}
10000df4:	a822      	add	r0, sp, #136	@ 0x88
10000df6:	f504 7411 	add.w	r4, r4, #580	@ 0x244
10000dfa:	ad22      	add	r5, sp, #136	@ 0x88
10000dfc:	f001 fbba 	bl	10002574 <_ZN10ProjectileC1E4Vec2b>
10000e00:	cd0f      	ldmia	r5!, {r0, r1, r2, r3}
10000e02:	c40f      	stmia	r4!, {r0, r1, r2, r3}
10000e04:	e895 000f 	ldmia.w	r5, {r0, r1, r2, r3}
10000e08:	e884 000f 	stmia.w	r4, {r0, r1, r2, r3}
10000e0c:	9c02      	ldr	r4, [sp, #8]
10000e0e:	f9b8 321e 	ldrsh.w	r3, [r8, #542]	@ 0x21e
10000e12:	6820      	ldr	r0, [r4, #0]
10000e14:	ee08 3a10 	vmov	s16, r3
10000e18:	f9b8 3222 	ldrsh.w	r3, [r8, #546]	@ 0x222
10000e1c:	2501      	movs	r5, #1
10000e1e:	ee09 3a10 	vmov	s18, r3
10000e22:	6803      	ldr	r3, [r0, #0]
10000e24:	6adb      	ldr	r3, [r3, #44]	@ 0x2c
10000e26:	4798      	blx	r3
10000e28:	ee08 0a90 	vmov	s17, r0
10000e2c:	6820      	ldr	r0, [r4, #0]
10000e2e:	6803      	ldr	r3, [r0, #0]
10000e30:	6b1b      	ldr	r3, [r3, #48]	@ 0x30
10000e32:	4798      	blx	r3
10000e34:	4623      	mov	r3, r4
10000e36:	ee09 0a90 	vmov	s19, r0
10000e3a:	9e06      	ldr	r6, [sp, #24]
10000e3c:	f504 5209 	add.w	r2, r4, #8768	@ 0x2240
10000e40:	1d14      	adds	r4, r2, #4
10000e42:	f503 5b13 	add.w	fp, r3, #9408	@ 0x24c0
10000e46:	9f07      	ldr	r7, [sp, #28]
10000e48:	f8dd 900c 	ldr.w	r9, [sp, #12]
10000e4c:	9408      	str	r4, [sp, #32]
10000e4e:	960d      	str	r6, [sp, #52]	@ 0x34
10000e50:	f10b 0b17 	add.w	fp, fp, #23
10000e54:	f816 3f01 	ldrb.w	r3, [r6, #1]!
10000e58:	b39b      	cbz	r3, 10000ec2 <_ZN4Game6updateEv+0x37a>
10000e5a:	4651      	mov	r1, sl
10000e5c:	4620      	mov	r0, r4
10000e5e:	f001 fba9 	bl	100025b4 <_ZN10Projectile6updateEf>
10000e62:	464a      	mov	r2, r9
10000e64:	4621      	mov	r1, r4
10000e66:	4638      	mov	r0, r7
10000e68:	f002 fe72 	bl	10003b50 <_ZN9Collision28checkProjectileTileCollisionERK10ProjectileRK5Level>
10000e6c:	eef8 7ac8 	vcvt.f32.s32	s15, s16
10000e70:	b100      	cbz	r0, 10000e74 <_ZN4Game6updateEv+0x32c>
10000e72:	7525      	strb	r5, [r4, #20]
10000e74:	eeb0 7a67 	vmov.f32	s14, s15
10000e78:	eebe 7ac8 	vcvt.s32.f32	s14, s14, #16
10000e7c:	ee17 3a10 	vmov	r3, s14
10000e80:	6822      	ldr	r2, [r4, #0]
10000e82:	429a      	cmp	r2, r3
10000e84:	db1c      	blt.n	10000ec0 <_ZN4Game6updateEv+0x378>
10000e86:	eef8 7ae8 	vcvt.f32.s32	s15, s17
10000e8a:	eefe 7ac8 	vcvt.s32.f32	s15, s15, #16
10000e8e:	ee17 1a90 	vmov	r1, s15
10000e92:	4419      	add	r1, r3
10000e94:	4291      	cmp	r1, r2
10000e96:	db13      	blt.n	10000ec0 <_ZN4Game6updateEv+0x378>
10000e98:	eef8 7ac9 	vcvt.f32.s32	s15, s18
10000e9c:	eeb0 7a67 	vmov.f32	s14, s15
10000ea0:	eebe 7ac8 	vcvt.s32.f32	s14, s14, #16
10000ea4:	ee17 3a10 	vmov	r3, s14
10000ea8:	6862      	ldr	r2, [r4, #4]
10000eaa:	429a      	cmp	r2, r3
10000eac:	db08      	blt.n	10000ec0 <_ZN4Game6updateEv+0x378>
10000eae:	eef8 7ae9 	vcvt.f32.s32	s15, s19
10000eb2:	eefe 7ac8 	vcvt.s32.f32	s15, s15, #16
10000eb6:	ee17 1a90 	vmov	r1, s15
10000eba:	4419      	add	r1, r3
10000ebc:	4291      	cmp	r1, r2
10000ebe:	da00      	bge.n	10000ec2 <_ZN4Game6updateEv+0x37a>
10000ec0:	7525      	strb	r5, [r4, #20]
10000ec2:	455e      	cmp	r6, fp
10000ec4:	f104 0420 	add.w	r4, r4, #32
10000ec8:	d1c4      	bne.n	10000e54 <_ZN4Game6updateEv+0x30c>
10000eca:	f8d8 3770 	ldr.w	r3, [r8, #1904]	@ 0x770
10000ece:	b1bb      	cbz	r3, 10000f00 <_ZN4Game6updateEv+0x3b8>
10000ed0:	2400      	movs	r4, #0
10000ed2:	9a02      	ldr	r2, [sp, #8]
10000ed4:	f502 5613 	add.w	r6, r2, #9408	@ 0x24c0
10000ed8:	f502 551d 	add.w	r5, r2, #10048	@ 0x2740
10000edc:	361c      	adds	r6, #28
10000ede:	351c      	adds	r5, #28
10000ee0:	2c13      	cmp	r4, #19
10000ee2:	d808      	bhi.n	10000ef6 <_ZN4Game6updateEv+0x3ae>
10000ee4:	5d2a      	ldrb	r2, [r5, r4]
10000ee6:	b132      	cbz	r2, 10000ef6 <_ZN4Game6updateEv+0x3ae>
10000ee8:	4651      	mov	r1, sl
10000eea:	4630      	mov	r0, r6
10000eec:	9a03      	ldr	r2, [sp, #12]
10000eee:	f001 fd51 	bl	10002994 <_ZN10BasicEnemy6updateEfRK5Level>
10000ef2:	f8d8 3770 	ldr.w	r3, [r8, #1904]	@ 0x770
10000ef6:	3401      	adds	r4, #1
10000ef8:	429c      	cmp	r4, r3
10000efa:	f106 0620 	add.w	r6, r6, #32
10000efe:	d3ef      	bcc.n	10000ee0 <_ZN4Game6updateEv+0x398>
10000f00:	f8d8 3aa8 	ldr.w	r3, [r8, #2728]	@ 0xaa8
10000f04:	2b00      	cmp	r3, #0
10000f06:	f000 84b0 	beq.w	1000186a <_ZN4Game6updateEv+0xd22>
10000f0a:	2400      	movs	r4, #0
10000f0c:	9a02      	ldr	r2, [sp, #8]
10000f0e:	f502 571d 	add.w	r7, r2, #10048	@ 0x2740
10000f12:	f502 562a 	add.w	r6, r2, #10880	@ 0x2a80
10000f16:	f502 552a 	add.w	r5, r2, #10880	@ 0x2a80
10000f1a:	3734      	adds	r7, #52	@ 0x34
10000f1c:	362c      	adds	r6, #44	@ 0x2c
10000f1e:	3514      	adds	r5, #20
10000f20:	2c13      	cmp	r4, #19
10000f22:	d80a      	bhi.n	10000f3a <_ZN4Game6updateEv+0x3f2>
10000f24:	5d2a      	ldrb	r2, [r5, r4]
10000f26:	b142      	cbz	r2, 10000f3a <_ZN4Game6updateEv+0x3f2>
10000f28:	e9dd 2303 	ldrd	r2, r3, [sp, #12]
10000f2c:	4651      	mov	r1, sl
10000f2e:	4638      	mov	r0, r7
10000f30:	9600      	str	r6, [sp, #0]
10000f32:	f001 ffc3 	bl	10002ebc <_ZN11RangedEnemy6updateEfRK5LevelRK6PlayerR10EntityPoolI15EnemyProjectileLj30EE>
10000f36:	f8d8 3aa8 	ldr.w	r3, [r8, #2728]	@ 0xaa8
10000f3a:	3401      	adds	r4, #1
10000f3c:	429c      	cmp	r4, r3
10000f3e:	f107 0728 	add.w	r7, r7, #40	@ 0x28
10000f42:	d3ed      	bcc.n	10000f20 <_ZN4Game6updateEv+0x3d8>
10000f44:	f898 3f00 	ldrb.w	r3, [r8, #3840]	@ 0xf00
10000f48:	b15b      	cbz	r3, 10000f62 <_ZN4Game6updateEv+0x41a>
10000f4a:	f898 3ed0 	ldrb.w	r3, [r8, #3792]	@ 0xed0
10000f4e:	b143      	cbz	r3, 10000f62 <_ZN4Game6updateEv+0x41a>
10000f50:	f898 3ed1 	ldrb.w	r3, [r8, #3793]	@ 0xed1
10000f54:	b12b      	cbz	r3, 10000f62 <_ZN4Game6updateEv+0x41a>
10000f56:	e9dd 2303 	ldrd	r2, r3, [sp, #12]
10000f5a:	4651      	mov	r1, sl
10000f5c:	9805      	ldr	r0, [sp, #20]
10000f5e:	f002 f91d 	bl	1000319c <_ZN9BossEnemy6updateEfRK5LevelRK6Player>
10000f62:	f898 3f01 	ldrb.w	r3, [r8, #3841]	@ 0xf01
10000f66:	b173      	cbz	r3, 10000f86 <_ZN4Game6updateEv+0x43e>
10000f68:	f898 3ee4 	ldrb.w	r3, [r8, #3812]	@ 0xee4
10000f6c:	b15b      	cbz	r3, 10000f86 <_ZN4Game6updateEv+0x43e>
10000f6e:	f898 3ee5 	ldrb.w	r3, [r8, #3813]	@ 0xee5
10000f72:	b143      	cbz	r3, 10000f86 <_ZN4Game6updateEv+0x43e>
10000f74:	9b02      	ldr	r3, [sp, #8]
10000f76:	4651      	mov	r1, sl
10000f78:	f503 503b 	add.w	r0, r3, #11968	@ 0x2ec0
10000f7c:	3018      	adds	r0, #24
10000f7e:	e9dd 2303 	ldrd	r2, r3, [sp, #12]
10000f82:	f002 f90b 	bl	1000319c <_ZN9BossEnemy6updateEfRK5LevelRK6Player>
10000f86:	f898 3f02 	ldrb.w	r3, [r8, #3842]	@ 0xf02
10000f8a:	b173      	cbz	r3, 10000faa <_ZN4Game6updateEv+0x462>
10000f8c:	f898 3ef8 	ldrb.w	r3, [r8, #3832]	@ 0xef8
10000f90:	b15b      	cbz	r3, 10000faa <_ZN4Game6updateEv+0x462>
10000f92:	f898 3ef9 	ldrb.w	r3, [r8, #3833]	@ 0xef9
10000f96:	b143      	cbz	r3, 10000faa <_ZN4Game6updateEv+0x462>
10000f98:	9b02      	ldr	r3, [sp, #8]
10000f9a:	4651      	mov	r1, sl
10000f9c:	f503 503b 	add.w	r0, r3, #11968	@ 0x2ec0
10000fa0:	302c      	adds	r0, #44	@ 0x2c
10000fa2:	e9dd 2303 	ldrd	r2, r3, [sp, #12]
10000fa6:	f002 f8f9 	bl	1000319c <_ZN9BossEnemy6updateEfRK5LevelRK6Player>
10000faa:	9b02      	ldr	r3, [sp, #8]
10000fac:	edd3 7a09 	vldr	s15, [r3, #36]	@ 0x24
10000fb0:	eef5 7ac0 	vcmpe.f32	s15, #0.0
10000fb4:	eef1 fa10 	vmrs	APSR_nzcv, fpscr
10000fb8:	f240 82ed 	bls.w	10001596 <_ZN4Game6updateEv+0xa4e>
10000fbc:	f503 521d 	add.w	r2, r3, #10048	@ 0x2740
10000fc0:	321b      	adds	r2, #27
10000fc2:	920b      	str	r2, [sp, #44]	@ 0x2c
10000fc4:	f503 521d 	add.w	r2, r3, #10048	@ 0x2740
10000fc8:	f503 532a 	add.w	r3, r3, #10880	@ 0x2a80
10000fcc:	322f      	adds	r2, #47	@ 0x2f
10000fce:	3313      	adds	r3, #19
10000fd0:	920c      	str	r2, [sp, #48]	@ 0x30
10000fd2:	9309      	str	r3, [sp, #36]	@ 0x24
10000fd4:	9b02      	ldr	r3, [sp, #8]
10000fd6:	4637      	mov	r7, r6
10000fd8:	f503 5439 	add.w	r4, r3, #11840	@ 0x2e40
10000fdc:	342b      	adds	r4, #43	@ 0x2b
10000fde:	46a1      	mov	r9, r4
10000fe0:	f503 533a 	add.w	r3, r3, #11904	@ 0x2e80
10000fe4:	3309      	adds	r3, #9
10000fe6:	960e      	str	r6, [sp, #56]	@ 0x38
10000fe8:	2501      	movs	r5, #1
10000fea:	9e07      	ldr	r6, [sp, #28]
10000fec:	9407      	str	r4, [sp, #28]
10000fee:	461c      	mov	r4, r3
10000ff0:	f8cd 803c 	str.w	r8, [sp, #60]	@ 0x3c
10000ff4:	46c8      	mov	r8, r9
10000ff6:	f8dd 900c 	ldr.w	r9, [sp, #12]
10000ffa:	930a      	str	r3, [sp, #40]	@ 0x28
10000ffc:	f818 2f01 	ldrb.w	r2, [r8, #1]!
10001000:	b39a      	cbz	r2, 1000106a <_ZN4Game6updateEv+0x522>
10001002:	4651      	mov	r1, sl
10001004:	4638      	mov	r0, r7
10001006:	f002 f9e7 	bl	100033d8 <_ZN15EnemyProjectile6updateEf>
1000100a:	464a      	mov	r2, r9
1000100c:	4639      	mov	r1, r7
1000100e:	4630      	mov	r0, r6
10001010:	f002 fdf0 	bl	10003bf4 <_ZN9Collision33checkEnemyProjectileTileCollisionERK15EnemyProjectileRK5Level>
10001014:	eef8 7ac8 	vcvt.f32.s32	s15, s16
10001018:	b100      	cbz	r0, 1000101c <_ZN4Game6updateEv+0x4d4>
1000101a:	753d      	strb	r5, [r7, #20]
1000101c:	eeb0 7a67 	vmov.f32	s14, s15
10001020:	eebe 7ac8 	vcvt.s32.f32	s14, s14, #16
10001024:	ee17 2a10 	vmov	r2, s14
10001028:	6839      	ldr	r1, [r7, #0]
1000102a:	4291      	cmp	r1, r2
1000102c:	db1c      	blt.n	10001068 <_ZN4Game6updateEv+0x520>
1000102e:	eef8 7ae8 	vcvt.f32.s32	s15, s17
10001032:	eefe 7ac8 	vcvt.s32.f32	s15, s15, #16
10001036:	ee17 3a90 	vmov	r3, s15
1000103a:	4413      	add	r3, r2
1000103c:	428b      	cmp	r3, r1
1000103e:	db13      	blt.n	10001068 <_ZN4Game6updateEv+0x520>
10001040:	eef8 7ac9 	vcvt.f32.s32	s15, s18
10001044:	eeb0 7a67 	vmov.f32	s14, s15
10001048:	eebe 7ac8 	vcvt.s32.f32	s14, s14, #16
1000104c:	ee17 2a10 	vmov	r2, s14
10001050:	6879      	ldr	r1, [r7, #4]
10001052:	4291      	cmp	r1, r2
10001054:	db08      	blt.n	10001068 <_ZN4Game6updateEv+0x520>
10001056:	eef8 7ae9 	vcvt.f32.s32	s15, s19
1000105a:	eefe 7ac8 	vcvt.s32.f32	s15, s15, #16
1000105e:	ee17 3a90 	vmov	r3, s15
10001062:	4413      	add	r3, r2
10001064:	428b      	cmp	r3, r1
10001066:	da00      	bge.n	1000106a <_ZN4Game6updateEv+0x522>
10001068:	753d      	strb	r5, [r7, #20]
1000106a:	45a0      	cmp	r8, r4
1000106c:	f107 0720 	add.w	r7, r7, #32
10001070:	d1c4      	bne.n	10000ffc <_ZN4Game6updateEv+0x4b4>
10001072:	f8dd 803c 	ldr.w	r8, [sp, #60]	@ 0x3c
10001076:	9c07      	ldr	r4, [sp, #28]
10001078:	f898 3ea4 	ldrb.w	r3, [r8, #3748]	@ 0xea4
1000107c:	b133      	cbz	r3, 1000108c <_ZN4Game6updateEv+0x544>
1000107e:	9b02      	ldr	r3, [sp, #8]
10001080:	4651      	mov	r1, sl
10001082:	f503 503a 	add.w	r0, r3, #11904	@ 0x2e80
10001086:	3010      	adds	r0, #16
10001088:	f002 fa18 	bl	100034bc <_ZN10HealthPack6updateEf>
1000108c:	f608 73ec 	addw	r3, r8, #4076	@ 0xfec
10001090:	edd3 7a00 	vldr	s15, [r3]
10001094:	ee06 aa90 	vmov	s13, sl
10001098:	ed9f 7a5b 	vldr	s14, [pc, #364]	@ 10001208 <_ZN4Game6updateEv+0x6c0>
1000109c:	ee76 7aa7 	vadd.f32	s15, s13, s15
100010a0:	eef4 7ac7 	vcmpe.f32	s15, s14
100010a4:	eef1 fa10 	vmrs	APSR_nzcv, fpscr
100010a8:	f2c0 821d 	blt.w	100014e6 <_ZN4Game6updateEv+0x99e>
100010ac:	ee77 7ac7 	vsub.f32	s15, s15, s14
100010b0:	edc3 7a00 	vstr	s15, [r3]
100010b4:	f8d8 3fe8 	ldr.w	r3, [r8, #4072]	@ 0xfe8
100010b8:	4954      	ldr	r1, [pc, #336]	@ (1000120c <_ZN4Game6updateEv+0x6c4>)
100010ba:	1c5a      	adds	r2, r3, #1
100010bc:	fb81 3102 	smull	r3, r1, r1, r2
100010c0:	17d3      	asrs	r3, r2, #31
100010c2:	ebc3 0361 	rsb	r3, r3, r1, asr #1
100010c6:	eb03 0343 	add.w	r3, r3, r3, lsl #1
100010ca:	eba2 0383 	sub.w	r3, r2, r3, lsl #2
100010ce:	f8c8 3fe8 	str.w	r3, [r8, #4072]	@ 0xfe8
100010d2:	f8dd 9020 	ldr.w	r9, [sp, #32]
100010d6:	f8dd a018 	ldr.w	sl, [sp, #24]
100010da:	9407      	str	r4, [sp, #28]
100010dc:	f8cd 803c 	str.w	r8, [sp, #60]	@ 0x3c
100010e0:	464c      	mov	r4, r9
100010e2:	46d0      	mov	r8, sl
100010e4:	f8dd 9008 	ldr.w	r9, [sp, #8]
100010e8:	9f0c      	ldr	r7, [sp, #48]	@ 0x30
100010ea:	f8dd a02c 	ldr.w	sl, [sp, #44]	@ 0x2c
100010ee:	e003      	b.n	100010f8 <_ZN4Game6updateEv+0x5b0>
100010f0:	45d8      	cmp	r8, fp
100010f2:	f104 0420 	add.w	r4, r4, #32
100010f6:	d035      	beq.n	10001164 <_ZN4Game6updateEv+0x61c>
100010f8:	f818 1f01 	ldrb.w	r1, [r8, #1]!
100010fc:	2900      	cmp	r1, #0
100010fe:	d0f7      	beq.n	100010f0 <_ZN4Game6updateEv+0x5a8>
10001100:	4655      	mov	r5, sl
10001102:	f509 5613 	add.w	r6, r9, #9408	@ 0x24c0
10001106:	361c      	adds	r6, #28
10001108:	f815 3f01 	ldrb.w	r3, [r5, #1]!
1000110c:	2b00      	cmp	r3, #0
1000110e:	f000 81de 	beq.w	100014ce <_ZN4Game6updateEv+0x986>
10001112:	4621      	mov	r1, r4
10001114:	a81e      	add	r0, sp, #120	@ 0x78
10001116:	f001 fa9d 	bl	10002654 <_ZNK10Projectile11getColliderEv>
1000111a:	4631      	mov	r1, r6
1000111c:	a822      	add	r0, sp, #136	@ 0x88
1000111e:	f001 fad3 	bl	100026c8 <_ZNK10BasicEnemy11getColliderEv>
10001122:	9922      	ldr	r1, [sp, #136]	@ 0x88
10001124:	9b24      	ldr	r3, [sp, #144]	@ 0x90
10001126:	9a1e      	ldr	r2, [sp, #120]	@ 0x78
10001128:	440b      	add	r3, r1
1000112a:	429a      	cmp	r2, r3
1000112c:	f280 81cf 	bge.w	100014ce <_ZN4Game6updateEv+0x986>
10001130:	9b20      	ldr	r3, [sp, #128]	@ 0x80
10001132:	441a      	add	r2, r3
10001134:	4291      	cmp	r1, r2
10001136:	f280 81ca 	bge.w	100014ce <_ZN4Game6updateEv+0x986>
1000113a:	9923      	ldr	r1, [sp, #140]	@ 0x8c
1000113c:	9b25      	ldr	r3, [sp, #148]	@ 0x94
1000113e:	9a1f      	ldr	r2, [sp, #124]	@ 0x7c
10001140:	440b      	add	r3, r1
10001142:	429a      	cmp	r2, r3
10001144:	f280 81c3 	bge.w	100014ce <_ZN4Game6updateEv+0x986>
10001148:	9b21      	ldr	r3, [sp, #132]	@ 0x84
1000114a:	441a      	add	r2, r3
1000114c:	4291      	cmp	r1, r2
1000114e:	f280 81be 	bge.w	100014ce <_ZN4Game6updateEv+0x986>
10001152:	2101      	movs	r1, #1
10001154:	4630      	mov	r0, r6
10001156:	7521      	strb	r1, [r4, #20]
10001158:	f001 faac 	bl	100026b4 <_ZN10BasicEnemy10takeDamageEi>
1000115c:	45d8      	cmp	r8, fp
1000115e:	f104 0420 	add.w	r4, r4, #32
10001162:	d1c9      	bne.n	100010f8 <_ZN4Game6updateEv+0x5b0>
10001164:	9b02      	ldr	r3, [sp, #8]
10001166:	f8dd 9020 	ldr.w	r9, [sp, #32]
1000116a:	9e06      	ldr	r6, [sp, #24]
1000116c:	f503 5a2a 	add.w	sl, r3, #10880	@ 0x2a80
10001170:	464c      	mov	r4, r9
10001172:	46b0      	mov	r8, r6
10001174:	f8dd 9024 	ldr.w	r9, [sp, #36]	@ 0x24
10001178:	461e      	mov	r6, r3
1000117a:	f10a 0a27 	add.w	sl, sl, #39	@ 0x27
1000117e:	e003      	b.n	10001188 <_ZN4Game6updateEv+0x640>
10001180:	45d8      	cmp	r8, fp
10001182:	f104 0420 	add.w	r4, r4, #32
10001186:	d035      	beq.n	100011f4 <_ZN4Game6updateEv+0x6ac>
10001188:	f818 1f01 	ldrb.w	r1, [r8, #1]!
1000118c:	2900      	cmp	r1, #0
1000118e:	d0f7      	beq.n	10001180 <_ZN4Game6updateEv+0x638>
10001190:	464d      	mov	r5, r9
10001192:	f506 571d 	add.w	r7, r6, #10048	@ 0x2740
10001196:	3734      	adds	r7, #52	@ 0x34
10001198:	f815 3f01 	ldrb.w	r3, [r5, #1]!
1000119c:	2b00      	cmp	r3, #0
1000119e:	f000 819c 	beq.w	100014da <_ZN4Game6updateEv+0x992>
100011a2:	4621      	mov	r1, r4
100011a4:	a81e      	add	r0, sp, #120	@ 0x78
100011a6:	f001 fa55 	bl	10002654 <_ZNK10Projectile11getColliderEv>
100011aa:	4639      	mov	r1, r7
100011ac:	a822      	add	r0, sp, #136	@ 0x88
100011ae:	f001 fcaf 	bl	10002b10 <_ZNK11RangedEnemy11getColliderEv>
100011b2:	9922      	ldr	r1, [sp, #136]	@ 0x88
100011b4:	9b24      	ldr	r3, [sp, #144]	@ 0x90
100011b6:	9a1e      	ldr	r2, [sp, #120]	@ 0x78
100011b8:	440b      	add	r3, r1
100011ba:	429a      	cmp	r2, r3
100011bc:	f280 818d 	bge.w	100014da <_ZN4Game6updateEv+0x992>
100011c0:	9b20      	ldr	r3, [sp, #128]	@ 0x80
100011c2:	441a      	add	r2, r3
100011c4:	4291      	cmp	r1, r2
100011c6:	f280 8188 	bge.w	100014da <_ZN4Game6updateEv+0x992>
100011ca:	9923      	ldr	r1, [sp, #140]	@ 0x8c
100011cc:	9b25      	ldr	r3, [sp, #148]	@ 0x94
100011ce:	9a1f      	ldr	r2, [sp, #124]	@ 0x7c
100011d0:	440b      	add	r3, r1
100011d2:	429a      	cmp	r2, r3
100011d4:	f280 8181 	bge.w	100014da <_ZN4Game6updateEv+0x992>
100011d8:	9b21      	ldr	r3, [sp, #132]	@ 0x84
100011da:	441a      	add	r2, r3
100011dc:	4291      	cmp	r1, r2
100011de:	f280 817c 	bge.w	100014da <_ZN4Game6updateEv+0x992>
100011e2:	2101      	movs	r1, #1
100011e4:	4638      	mov	r0, r7
100011e6:	7521      	strb	r1, [r4, #20]
100011e8:	f001 fc88 	bl	10002afc <_ZN11RangedEnemy10takeDamageEi>
100011ec:	45d8      	cmp	r8, fp
100011ee:	f104 0420 	add.w	r4, r4, #32
100011f2:	d1c9      	bne.n	10001188 <_ZN4Game6updateEv+0x640>
100011f4:	9c07      	ldr	r4, [sp, #28]
100011f6:	e9dd 3705 	ldrd	r3, r7, [sp, #20]
100011fa:	3314      	adds	r3, #20
100011fc:	f8dd 803c 	ldr.w	r8, [sp, #60]	@ 0x3c
10001200:	9306      	str	r3, [sp, #24]
10001202:	940f      	str	r4, [sp, #60]	@ 0x3c
10001204:	9c08      	ldr	r4, [sp, #32]
10001206:	e007      	b.n	10001218 <_ZN4Game6updateEv+0x6d0>
10001208:	3e2ab368 	.word	0x3e2ab368
1000120c:	2aaaaaab 	.word	0x2aaaaaab
10001210:	455f      	cmp	r7, fp
10001212:	f104 0420 	add.w	r4, r4, #32
10001216:	d078      	beq.n	1000130a <_ZN4Game6updateEv+0x7c2>
10001218:	f817 3f01 	ldrb.w	r3, [r7, #1]!
1000121c:	2b00      	cmp	r3, #0
1000121e:	d0f7      	beq.n	10001210 <_ZN4Game6updateEv+0x6c8>
10001220:	f898 3f00 	ldrb.w	r3, [r8, #3840]	@ 0xf00
10001224:	b1d3      	cbz	r3, 1000125c <_ZN4Game6updateEv+0x714>
10001226:	f898 3ed0 	ldrb.w	r3, [r8, #3792]	@ 0xed0
1000122a:	b1bb      	cbz	r3, 1000125c <_ZN4Game6updateEv+0x714>
1000122c:	f898 3ed1 	ldrb.w	r3, [r8, #3793]	@ 0xed1
10001230:	b1a3      	cbz	r3, 1000125c <_ZN4Game6updateEv+0x714>
10001232:	4621      	mov	r1, r4
10001234:	a816      	add	r0, sp, #88	@ 0x58
10001236:	f001 fa0d 	bl	10002654 <_ZNK10Projectile11getColliderEv>
1000123a:	e9dd a516 	ldrd	sl, r5, [sp, #88]	@ 0x58
1000123e:	e9dd 6918 	ldrd	r6, r9, [sp, #96]	@ 0x60
10001242:	9905      	ldr	r1, [sp, #20]
10001244:	a81a      	add	r0, sp, #104	@ 0x68
10001246:	f001 ffb9 	bl	100031bc <_ZNK9BossEnemy11getColliderEv>
1000124a:	9a1a      	ldr	r2, [sp, #104]	@ 0x68
1000124c:	9b1c      	ldr	r3, [sp, #112]	@ 0x70
1000124e:	4413      	add	r3, r2
10001250:	459a      	cmp	sl, r3
10001252:	da03      	bge.n	1000125c <_ZN4Game6updateEv+0x714>
10001254:	44b2      	add	sl, r6
10001256:	4552      	cmp	r2, sl
10001258:	f2c0 8159 	blt.w	1000150e <_ZN4Game6updateEv+0x9c6>
1000125c:	f898 3f01 	ldrb.w	r3, [r8, #3841]	@ 0xf01
10001260:	b1eb      	cbz	r3, 1000129e <_ZN4Game6updateEv+0x756>
10001262:	f898 3ee4 	ldrb.w	r3, [r8, #3812]	@ 0xee4
10001266:	b1d3      	cbz	r3, 1000129e <_ZN4Game6updateEv+0x756>
10001268:	f898 3ee5 	ldrb.w	r3, [r8, #3813]	@ 0xee5
1000126c:	b1bb      	cbz	r3, 1000129e <_ZN4Game6updateEv+0x756>
1000126e:	9e06      	ldr	r6, [sp, #24]
10001270:	4621      	mov	r1, r4
10001272:	a816      	add	r0, sp, #88	@ 0x58
10001274:	f001 f9ee 	bl	10002654 <_ZNK10Projectile11getColliderEv>
10001278:	e9dd 9a16 	ldrd	r9, sl, [sp, #88]	@ 0x58
1000127c:	4631      	mov	r1, r6
1000127e:	a81a      	add	r0, sp, #104	@ 0x68
10001280:	4635      	mov	r5, r6
10001282:	e9dd 6318 	ldrd	r6, r3, [sp, #96]	@ 0x60
10001286:	9307      	str	r3, [sp, #28]
10001288:	f001 ff98 	bl	100031bc <_ZNK9BossEnemy11getColliderEv>
1000128c:	991a      	ldr	r1, [sp, #104]	@ 0x68
1000128e:	9a1c      	ldr	r2, [sp, #112]	@ 0x70
10001290:	440a      	add	r2, r1
10001292:	4591      	cmp	r9, r2
10001294:	da03      	bge.n	1000129e <_ZN4Game6updateEv+0x756>
10001296:	444e      	add	r6, r9
10001298:	42b1      	cmp	r1, r6
1000129a:	f2c0 8127 	blt.w	100014ec <_ZN4Game6updateEv+0x9a4>
1000129e:	f898 3f02 	ldrb.w	r3, [r8, #3842]	@ 0xf02
100012a2:	2b00      	cmp	r3, #0
100012a4:	d0b4      	beq.n	10001210 <_ZN4Game6updateEv+0x6c8>
100012a6:	f898 3ef8 	ldrb.w	r3, [r8, #3832]	@ 0xef8
100012aa:	2b00      	cmp	r3, #0
100012ac:	d0b0      	beq.n	10001210 <_ZN4Game6updateEv+0x6c8>
100012ae:	f898 3ef9 	ldrb.w	r3, [r8, #3833]	@ 0xef9
100012b2:	2b00      	cmp	r3, #0
100012b4:	d0ac      	beq.n	10001210 <_ZN4Game6updateEv+0x6c8>
100012b6:	9b05      	ldr	r3, [sp, #20]
100012b8:	4621      	mov	r1, r4
100012ba:	f103 0528 	add.w	r5, r3, #40	@ 0x28
100012be:	a816      	add	r0, sp, #88	@ 0x58
100012c0:	f001 f9c8 	bl	10002654 <_ZNK10Projectile11getColliderEv>
100012c4:	e9dd 9a16 	ldrd	r9, sl, [sp, #88]	@ 0x58
100012c8:	e9dd 6318 	ldrd	r6, r3, [sp, #96]	@ 0x60
100012cc:	4629      	mov	r1, r5
100012ce:	a81a      	add	r0, sp, #104	@ 0x68
100012d0:	9307      	str	r3, [sp, #28]
100012d2:	f001 ff73 	bl	100031bc <_ZNK9BossEnemy11getColliderEv>
100012d6:	991a      	ldr	r1, [sp, #104]	@ 0x68
100012d8:	9a1c      	ldr	r2, [sp, #112]	@ 0x70
100012da:	440a      	add	r2, r1
100012dc:	4591      	cmp	r9, r2
100012de:	da97      	bge.n	10001210 <_ZN4Game6updateEv+0x6c8>
100012e0:	444e      	add	r6, r9
100012e2:	42b1      	cmp	r1, r6
100012e4:	da94      	bge.n	10001210 <_ZN4Game6updateEv+0x6c8>
100012e6:	9a1b      	ldr	r2, [sp, #108]	@ 0x6c
100012e8:	9b1d      	ldr	r3, [sp, #116]	@ 0x74
100012ea:	4413      	add	r3, r2
100012ec:	459a      	cmp	sl, r3
100012ee:	da8f      	bge.n	10001210 <_ZN4Game6updateEv+0x6c8>
100012f0:	9b07      	ldr	r3, [sp, #28]
100012f2:	4453      	add	r3, sl
100012f4:	429a      	cmp	r2, r3
100012f6:	da8b      	bge.n	10001210 <_ZN4Game6updateEv+0x6c8>
100012f8:	2101      	movs	r1, #1
100012fa:	4628      	mov	r0, r5
100012fc:	7521      	strb	r1, [r4, #20]
100012fe:	f001 ff4f 	bl	100031a0 <_ZN9BossEnemy10takeDamageEi>
10001302:	455f      	cmp	r7, fp
10001304:	f104 0420 	add.w	r4, r4, #32
10001308:	d186      	bne.n	10001218 <_ZN4Game6updateEv+0x6d0>
1000130a:	9c0f      	ldr	r4, [sp, #60]	@ 0x3c
1000130c:	f8dd 9010 	ldr.w	r9, [sp, #16]
10001310:	4627      	mov	r7, r4
10001312:	9d0e      	ldr	r5, [sp, #56]	@ 0x38
10001314:	9e0a      	ldr	r6, [sp, #40]	@ 0x28
10001316:	f817 3f01 	ldrb.w	r3, [r7, #1]!
1000131a:	b333      	cbz	r3, 1000136a <_ZN4Game6updateEv+0x822>
1000131c:	4629      	mov	r1, r5
1000131e:	a81e      	add	r0, sp, #120	@ 0x78
10001320:	f002 f8aa 	bl	10003478 <_ZNK15EnemyProjectile11getColliderEv>
10001324:	4649      	mov	r1, r9
10001326:	a822      	add	r0, sp, #136	@ 0x88
10001328:	f001 f812 	bl	10002350 <_ZNK6Player11getColliderEv>
1000132c:	9922      	ldr	r1, [sp, #136]	@ 0x88
1000132e:	9b24      	ldr	r3, [sp, #144]	@ 0x90
10001330:	9a1e      	ldr	r2, [sp, #120]	@ 0x78
10001332:	440b      	add	r3, r1
10001334:	429a      	cmp	r2, r3
10001336:	da18      	bge.n	1000136a <_ZN4Game6updateEv+0x822>
10001338:	9b20      	ldr	r3, [sp, #128]	@ 0x80
1000133a:	441a      	add	r2, r3
1000133c:	4291      	cmp	r1, r2
1000133e:	da14      	bge.n	1000136a <_ZN4Game6updateEv+0x822>
10001340:	9923      	ldr	r1, [sp, #140]	@ 0x8c
10001342:	9b25      	ldr	r3, [sp, #148]	@ 0x94
10001344:	9a1f      	ldr	r2, [sp, #124]	@ 0x7c
10001346:	440b      	add	r3, r1
10001348:	429a      	cmp	r2, r3
1000134a:	da0e      	bge.n	1000136a <_ZN4Game6updateEv+0x822>
1000134c:	9b21      	ldr	r3, [sp, #132]	@ 0x84
1000134e:	441a      	add	r2, r3
10001350:	4291      	cmp	r1, r2
10001352:	da0a      	bge.n	1000136a <_ZN4Game6updateEv+0x822>
10001354:	9902      	ldr	r1, [sp, #8]
10001356:	2301      	movs	r3, #1
10001358:	edd1 7a09 	vldr	s15, [r1, #36]	@ 0x24
1000135c:	eef5 7ac0 	vcmpe.f32	s15, #0.0
10001360:	eef1 fa10 	vmrs	APSR_nzcv, fpscr
10001364:	752b      	strb	r3, [r5, #20]
10001366:	f240 80ff 	bls.w	10001568 <_ZN4Game6updateEv+0xa20>
1000136a:	42b7      	cmp	r7, r6
1000136c:	f105 0520 	add.w	r5, r5, #32
10001370:	d1d1      	bne.n	10001316 <_ZN4Game6updateEv+0x7ce>
10001372:	f898 3ea4 	ldrb.w	r3, [r8, #3748]	@ 0xea4
10001376:	b313      	cbz	r3, 100013be <_ZN4Game6updateEv+0x876>
10001378:	f898 3e98 	ldrb.w	r3, [r8, #3736]	@ 0xe98
1000137c:	b1fb      	cbz	r3, 100013be <_ZN4Game6updateEv+0x876>
1000137e:	9d02      	ldr	r5, [sp, #8]
10001380:	a81e      	add	r0, sp, #120	@ 0x78
10001382:	f505 513a 	add.w	r1, r5, #11904	@ 0x2e80
10001386:	3110      	adds	r1, #16
10001388:	f002 f8f8 	bl	1000357c <_ZNK10HealthPack11getColliderEv>
1000138c:	9904      	ldr	r1, [sp, #16]
1000138e:	a822      	add	r0, sp, #136	@ 0x88
10001390:	f000 ffde 	bl	10002350 <_ZNK6Player11getColliderEv>
10001394:	9a22      	ldr	r2, [sp, #136]	@ 0x88
10001396:	9b24      	ldr	r3, [sp, #144]	@ 0x90
10001398:	991e      	ldr	r1, [sp, #120]	@ 0x78
1000139a:	4413      	add	r3, r2
1000139c:	4299      	cmp	r1, r3
1000139e:	da0e      	bge.n	100013be <_ZN4Game6updateEv+0x876>
100013a0:	9b20      	ldr	r3, [sp, #128]	@ 0x80
100013a2:	4419      	add	r1, r3
100013a4:	428a      	cmp	r2, r1
100013a6:	da0a      	bge.n	100013be <_ZN4Game6updateEv+0x876>
100013a8:	9b25      	ldr	r3, [sp, #148]	@ 0x94
100013aa:	9923      	ldr	r1, [sp, #140]	@ 0x8c
100013ac:	18ca      	adds	r2, r1, r3
100013ae:	9b1f      	ldr	r3, [sp, #124]	@ 0x7c
100013b0:	4293      	cmp	r3, r2
100013b2:	da04      	bge.n	100013be <_ZN4Game6updateEv+0x876>
100013b4:	9a21      	ldr	r2, [sp, #132]	@ 0x84
100013b6:	4413      	add	r3, r2
100013b8:	4299      	cmp	r1, r3
100013ba:	f2c0 8266 	blt.w	1000188a <_ZN4Game6updateEv+0xd42>
100013be:	f898 3ebc 	ldrb.w	r3, [r8, #3772]	@ 0xebc
100013c2:	b1c3      	cbz	r3, 100013f6 <_ZN4Game6updateEv+0x8ae>
100013c4:	f898 3eb8 	ldrb.w	r3, [r8, #3768]	@ 0xeb8
100013c8:	b9ab      	cbnz	r3, 100013f6 <_ZN4Game6updateEv+0x8ae>
100013ca:	9d02      	ldr	r5, [sp, #8]
100013cc:	a81e      	add	r0, sp, #120	@ 0x78
100013ce:	f505 513a 	add.w	r1, r5, #11904	@ 0x2e80
100013d2:	312c      	adds	r1, #44	@ 0x2c
100013d4:	f002 f92a 	bl	1000362c <_ZNK9Objective11getColliderEv>
100013d8:	9904      	ldr	r1, [sp, #16]
100013da:	a822      	add	r0, sp, #136	@ 0x88
100013dc:	f000 ffb8 	bl	10002350 <_ZNK6Player11getColliderEv>
100013e0:	9a22      	ldr	r2, [sp, #136]	@ 0x88
100013e2:	9b24      	ldr	r3, [sp, #144]	@ 0x90
100013e4:	991e      	ldr	r1, [sp, #120]	@ 0x78
100013e6:	4413      	add	r3, r2
100013e8:	4299      	cmp	r1, r3
100013ea:	da04      	bge.n	100013f6 <_ZN4Game6updateEv+0x8ae>
100013ec:	9b20      	ldr	r3, [sp, #128]	@ 0x80
100013ee:	4419      	add	r1, r3
100013f0:	428a      	cmp	r2, r1
100013f2:	f2c0 821e 	blt.w	10001832 <_ZN4Game6updateEv+0xcea>
100013f6:	2000      	movs	r0, #0
100013f8:	9b02      	ldr	r3, [sp, #8]
100013fa:	990d      	ldr	r1, [sp, #52]	@ 0x34
100013fc:	eba3 1243 	sub.w	r2, r3, r3, lsl #5
10001400:	f811 5f01 	ldrb.w	r5, [r1, #1]!
10001404:	014b      	lsls	r3, r1, #5
10001406:	f5a3 238e 	sub.w	r3, r3, #290816	@ 0x47000
1000140a:	f5a3 63c5 	sub.w	r3, r3, #1576	@ 0x628
1000140e:	b115      	cbz	r5, 10001416 <_ZN4Game6updateEv+0x8ce>
10001410:	5c9b      	ldrb	r3, [r3, r2]
10001412:	b103      	cbz	r3, 10001416 <_ZN4Game6updateEv+0x8ce>
10001414:	7008      	strb	r0, [r1, #0]
10001416:	4559      	cmp	r1, fp
10001418:	d1f2      	bne.n	10001400 <_ZN4Game6updateEv+0x8b8>
1000141a:	2000      	movs	r0, #0
1000141c:	9d0a      	ldr	r5, [sp, #40]	@ 0x28
1000141e:	f814 1f01 	ldrb.w	r1, [r4, #1]!
10001422:	0163      	lsls	r3, r4, #5
10001424:	f5a3 23b4 	sub.w	r3, r3, #368640	@ 0x5a000
10001428:	f5a3 7330 	sub.w	r3, r3, #704	@ 0x2c0
1000142c:	b111      	cbz	r1, 10001434 <_ZN4Game6updateEv+0x8ec>
1000142e:	5c9b      	ldrb	r3, [r3, r2]
10001430:	b103      	cbz	r3, 10001434 <_ZN4Game6updateEv+0x8ec>
10001432:	7020      	strb	r0, [r4, #0]
10001434:	42ac      	cmp	r4, r5
10001436:	d1f2      	bne.n	1000141e <_ZN4Game6updateEv+0x8d6>
10001438:	e9dd 140b 	ldrd	r1, r4, [sp, #44]	@ 0x2c
1000143c:	f811 0f01 	ldrb.w	r0, [r1, #1]!
10001440:	014b      	lsls	r3, r1, #5
10001442:	f5a3 2398 	sub.w	r3, r3, #311296	@ 0x4c000
10001446:	f2a3 6394 	subw	r3, r3, #1684	@ 0x694
1000144a:	b110      	cbz	r0, 10001452 <_ZN4Game6updateEv+0x90a>
1000144c:	5c9b      	ldrb	r3, [r3, r2]
1000144e:	b903      	cbnz	r3, 10001452 <_ZN4Game6updateEv+0x90a>
10001450:	700b      	strb	r3, [r1, #0]
10001452:	42a1      	cmp	r1, r4
10001454:	d1f2      	bne.n	1000143c <_ZN4Game6updateEv+0x8f4>
10001456:	2300      	movs	r3, #0
10001458:	9902      	ldr	r1, [sp, #8]
1000145a:	9a09      	ldr	r2, [sp, #36]	@ 0x24
1000145c:	f501 501e 	add.w	r0, r1, #10112	@ 0x2780
10001460:	3004      	adds	r0, #4
10001462:	f812 1f01 	ldrb.w	r1, [r2, #1]!
10001466:	b111      	cbz	r1, 1000146e <_ZN4Game6updateEv+0x926>
10001468:	5cc1      	ldrb	r1, [r0, r3]
1000146a:	b901      	cbnz	r1, 1000146e <_ZN4Game6updateEv+0x926>
1000146c:	7011      	strb	r1, [r2, #0]
1000146e:	3328      	adds	r3, #40	@ 0x28
10001470:	f5b3 7f48 	cmp.w	r3, #800	@ 0x320
10001474:	d1f5      	bne.n	10001462 <_ZN4Game6updateEv+0x91a>
10001476:	f898 3f00 	ldrb.w	r3, [r8, #3840]	@ 0xf00
1000147a:	b123      	cbz	r3, 10001486 <_ZN4Game6updateEv+0x93e>
1000147c:	f898 3ed0 	ldrb.w	r3, [r8, #3792]	@ 0xed0
10001480:	2b00      	cmp	r3, #0
10001482:	f000 81cd 	beq.w	10001820 <_ZN4Game6updateEv+0xcd8>
10001486:	f898 3f01 	ldrb.w	r3, [r8, #3841]	@ 0xf01
1000148a:	b123      	cbz	r3, 10001496 <_ZN4Game6updateEv+0x94e>
1000148c:	f898 3ee4 	ldrb.w	r3, [r8, #3812]	@ 0xee4
10001490:	2b00      	cmp	r3, #0
10001492:	f000 81b3 	beq.w	100017fc <_ZN4Game6updateEv+0xcb4>
10001496:	f898 3f02 	ldrb.w	r3, [r8, #3842]	@ 0xf02
1000149a:	b123      	cbz	r3, 100014a6 <_ZN4Game6updateEv+0x95e>
1000149c:	f898 3ef8 	ldrb.w	r3, [r8, #3832]	@ 0xef8
100014a0:	2b00      	cmp	r3, #0
100014a2:	f000 81b4 	beq.w	1000180e <_ZN4Game6updateEv+0xcc6>
100014a6:	e9dd 2103 	ldrd	r2, r1, [sp, #12]
100014aa:	9c02      	ldr	r4, [sp, #8]
100014ac:	f504 5008 	add.w	r0, r4, #8704	@ 0x2200
100014b0:	301c      	adds	r0, #28
100014b2:	f002 fe79 	bl	100041a8 <_ZN6Camera6followERK6PlayerRK5Level>
100014b6:	4620      	mov	r0, r4
100014b8:	f7ff faf0 	bl	10000a9c <_ZN4Game21checkPortalCollisionsEv>
100014bc:	f894 3020 	ldrb.w	r3, [r4, #32]
100014c0:	2b00      	cmp	r3, #0
100014c2:	d05c      	beq.n	1000157e <_ZN4Game6updateEv+0xa36>
100014c4:	b043      	add	sp, #268	@ 0x10c
100014c6:	ecbd 8b04 	vpop	{d8-d9}
100014ca:	e8bd 8ff0 	ldmia.w	sp!, {r4, r5, r6, r7, r8, r9, sl, fp, pc}
100014ce:	42af      	cmp	r7, r5
100014d0:	f106 0620 	add.w	r6, r6, #32
100014d4:	f47f ae18 	bne.w	10001108 <_ZN4Game6updateEv+0x5c0>
100014d8:	e60a      	b.n	100010f0 <_ZN4Game6updateEv+0x5a8>
100014da:	4555      	cmp	r5, sl
100014dc:	f107 0728 	add.w	r7, r7, #40	@ 0x28
100014e0:	f47f ae5a 	bne.w	10001198 <_ZN4Game6updateEv+0x650>
100014e4:	e64c      	b.n	10001180 <_ZN4Game6updateEv+0x638>
100014e6:	edc3 7a00 	vstr	s15, [r3]
100014ea:	e5f2      	b.n	100010d2 <_ZN4Game6updateEv+0x58a>
100014ec:	9a1b      	ldr	r2, [sp, #108]	@ 0x6c
100014ee:	9b1d      	ldr	r3, [sp, #116]	@ 0x74
100014f0:	4413      	add	r3, r2
100014f2:	459a      	cmp	sl, r3
100014f4:	f6bf aed3 	bge.w	1000129e <_ZN4Game6updateEv+0x756>
100014f8:	9b07      	ldr	r3, [sp, #28]
100014fa:	4453      	add	r3, sl
100014fc:	429a      	cmp	r2, r3
100014fe:	f6bf aece 	bge.w	1000129e <_ZN4Game6updateEv+0x756>
10001502:	2101      	movs	r1, #1
10001504:	4628      	mov	r0, r5
10001506:	7521      	strb	r1, [r4, #20]
10001508:	f001 fe4a 	bl	100031a0 <_ZN9BossEnemy10takeDamageEi>
1000150c:	e6f9      	b.n	10001302 <_ZN4Game6updateEv+0x7ba>
1000150e:	9a1b      	ldr	r2, [sp, #108]	@ 0x6c
10001510:	9b1d      	ldr	r3, [sp, #116]	@ 0x74
10001512:	4413      	add	r3, r2
10001514:	429d      	cmp	r5, r3
10001516:	f6bf aea1 	bge.w	1000125c <_ZN4Game6updateEv+0x714>
1000151a:	444d      	add	r5, r9
1000151c:	42aa      	cmp	r2, r5
1000151e:	f6bf ae9d 	bge.w	1000125c <_ZN4Game6updateEv+0x714>
10001522:	2101      	movs	r1, #1
10001524:	9d05      	ldr	r5, [sp, #20]
10001526:	7521      	strb	r1, [r4, #20]
10001528:	4628      	mov	r0, r5
1000152a:	f001 fe39 	bl	100031a0 <_ZN9BossEnemy10takeDamageEi>
1000152e:	e6e8      	b.n	10001302 <_ZN4Game6updateEv+0x7ba>
10001530:	ab42      	add	r3, sp, #264	@ 0x108
10001532:	eb03 1504 	add.w	r5, r3, r4, lsl #4
10001536:	3d80      	subs	r5, #128	@ 0x80
10001538:	f608 7378 	addw	r3, r8, #3960	@ 0xf78
1000153c:	cb0f      	ldmia	r3, {r0, r1, r2, r3}
1000153e:	3401      	adds	r4, #1
10001540:	e885 000f 	stmia.w	r5, {r0, r1, r2, r3}
10001544:	e41c      	b.n	10000d80 <_ZN4Game6updateEv+0x238>
10001546:	ab42      	add	r3, sp, #264	@ 0x108
10001548:	eb03 1504 	add.w	r5, r3, r4, lsl #4
1000154c:	f898 6f8a 	ldrb.w	r6, [r8, #3978]	@ 0xf8a
10001550:	3d80      	subs	r5, #128	@ 0x80
10001552:	f608 7318 	addw	r3, r8, #3864	@ 0xf18
10001556:	cb0f      	ldmia	r3, {r0, r1, r2, r3}
10001558:	3401      	adds	r4, #1
1000155a:	e885 000f 	stmia.w	r5, {r0, r1, r2, r3}
1000155e:	2e00      	cmp	r6, #0
10001560:	f43f abd5 	beq.w	10000d0e <_ZN4Game6updateEv+0x1c6>
10001564:	f7ff bbc9 	b.w	10000cfa <_ZN4Game6updateEv+0x1b2>
10001568:	f891 3020 	ldrb.w	r3, [r1, #32]
1000156c:	f04f 527e 	mov.w	r2, #1065353216	@ 0x3f800000
10001570:	b113      	cbz	r3, 10001578 <_ZN4Game6updateEv+0xa30>
10001572:	3b01      	subs	r3, #1
10001574:	f881 3020 	strb.w	r3, [r1, #32]
10001578:	9b02      	ldr	r3, [sp, #8]
1000157a:	625a      	str	r2, [r3, #36]	@ 0x24
1000157c:	e6f5      	b.n	1000136a <_ZN4Game6updateEv+0x822>
1000157e:	9c02      	ldr	r4, [sp, #8]
10001580:	4620      	mov	r0, r4
10001582:	f7ff f86f 	bl	10000664 <_ZN4Game25resetAndSpawnEntitiesPicoEv>
10001586:	2301      	movs	r3, #1
10001588:	f884 3020 	strb.w	r3, [r4, #32]
1000158c:	b043      	add	sp, #268	@ 0x10c
1000158e:	ecbd 8b04 	vpop	{d8-d9}
10001592:	e8bd 8ff0 	ldmia.w	sp!, {r4, r5, r6, r7, r8, r9, sl, fp, pc}
10001596:	9904      	ldr	r1, [sp, #16]
10001598:	a812      	add	r0, sp, #72	@ 0x48
1000159a:	f000 fed9 	bl	10002350 <_ZNK6Player11getColliderEv>
1000159e:	9b02      	ldr	r3, [sp, #8]
100015a0:	9915      	ldr	r1, [sp, #84]	@ 0x54
100015a2:	f503 521d 	add.w	r2, r3, #10048	@ 0x2740
100015a6:	321b      	adds	r2, #27
100015a8:	4614      	mov	r4, r2
100015aa:	f503 5713 	add.w	r7, r3, #9408	@ 0x24c0
100015ae:	920b      	str	r2, [sp, #44]	@ 0x2c
100015b0:	f503 531d 	add.w	r3, r3, #10048	@ 0x2740
100015b4:	9a14      	ldr	r2, [sp, #80]	@ 0x50
100015b6:	371c      	adds	r7, #28
100015b8:	332f      	adds	r3, #47	@ 0x2f
100015ba:	e9cd 620e 	strd	r6, r2, [sp, #56]	@ 0x38
100015be:	463e      	mov	r6, r7
100015c0:	4627      	mov	r7, r4
100015c2:	461c      	mov	r4, r3
100015c4:	f8dd 9048 	ldr.w	r9, [sp, #72]	@ 0x48
100015c8:	910a      	str	r1, [sp, #40]	@ 0x28
100015ca:	9d13      	ldr	r5, [sp, #76]	@ 0x4c
100015cc:	eb02 0109 	add.w	r1, r2, r9
100015d0:	930c      	str	r3, [sp, #48]	@ 0x30
100015d2:	9109      	str	r1, [sp, #36]	@ 0x24
100015d4:	f817 2f01 	ldrb.w	r2, [r7, #1]!
100015d8:	b322      	cbz	r2, 10001624 <_ZN4Game6updateEv+0xadc>
100015da:	a822      	add	r0, sp, #136	@ 0x88
100015dc:	4631      	mov	r1, r6
100015de:	f001 f873 	bl	100026c8 <_ZNK10BasicEnemy11getColliderEv>
100015e2:	9822      	ldr	r0, [sp, #136]	@ 0x88
100015e4:	9a24      	ldr	r2, [sp, #144]	@ 0x90
100015e6:	4402      	add	r2, r0
100015e8:	454a      	cmp	r2, r9
100015ea:	dd1b      	ble.n	10001624 <_ZN4Game6updateEv+0xadc>
100015ec:	9b09      	ldr	r3, [sp, #36]	@ 0x24
100015ee:	4298      	cmp	r0, r3
100015f0:	da18      	bge.n	10001624 <_ZN4Game6updateEv+0xadc>
100015f2:	9823      	ldr	r0, [sp, #140]	@ 0x8c
100015f4:	9a25      	ldr	r2, [sp, #148]	@ 0x94
100015f6:	4402      	add	r2, r0
100015f8:	42aa      	cmp	r2, r5
100015fa:	dd13      	ble.n	10001624 <_ZN4Game6updateEv+0xadc>
100015fc:	9b0a      	ldr	r3, [sp, #40]	@ 0x28
100015fe:	195a      	adds	r2, r3, r5
10001600:	4282      	cmp	r2, r0
10001602:	dd0f      	ble.n	10001624 <_ZN4Game6updateEv+0xadc>
10001604:	9a02      	ldr	r2, [sp, #8]
10001606:	9e0e      	ldr	r6, [sp, #56]	@ 0x38
10001608:	f892 3020 	ldrb.w	r3, [r2, #32]
1000160c:	2b00      	cmp	r3, #0
1000160e:	f040 8138 	bne.w	10001882 <_ZN4Game6updateEv+0xd3a>
10001612:	f502 532a 	add.w	r3, r2, #10880	@ 0x2a80
10001616:	3313      	adds	r3, #19
10001618:	9309      	str	r3, [sp, #36]	@ 0x24
1000161a:	f04f 537e 	mov.w	r3, #1065353216	@ 0x3f800000
1000161e:	9a02      	ldr	r2, [sp, #8]
10001620:	6253      	str	r3, [r2, #36]	@ 0x24
10001622:	e4d7      	b.n	10000fd4 <_ZN4Game6updateEv+0x48c>
10001624:	42a7      	cmp	r7, r4
10001626:	f106 0620 	add.w	r6, r6, #32
1000162a:	d1d3      	bne.n	100015d4 <_ZN4Game6updateEv+0xa8c>
1000162c:	9b02      	ldr	r3, [sp, #8]
1000162e:	e9dd 620e 	ldrd	r6, r2, [sp, #56]	@ 0x38
10001632:	edd3 7a09 	vldr	s15, [r3, #36]	@ 0x24
10001636:	eef5 7ac0 	vcmpe.f32	s15, #0.0
1000163a:	eef1 fa10 	vmrs	APSR_nzcv, fpscr
1000163e:	f200 811a 	bhi.w	10001876 <_ZN4Game6updateEv+0xd2e>
10001642:	eb02 0309 	add.w	r3, r2, r9
10001646:	930e      	str	r3, [sp, #56]	@ 0x38
10001648:	9b02      	ldr	r3, [sp, #8]
1000164a:	960f      	str	r6, [sp, #60]	@ 0x3c
1000164c:	f503 522a 	add.w	r2, r3, #10880	@ 0x2a80
10001650:	f503 511d 	add.w	r1, r3, #10048	@ 0x2740
10001654:	f503 572a 	add.w	r7, r3, #10880	@ 0x2a80
10001658:	3213      	adds	r2, #19
1000165a:	3727      	adds	r7, #39	@ 0x27
1000165c:	3134      	adds	r1, #52	@ 0x34
1000165e:	463e      	mov	r6, r7
10001660:	4614      	mov	r4, r2
10001662:	460f      	mov	r7, r1
10001664:	9209      	str	r2, [sp, #36]	@ 0x24
10001666:	f814 2f01 	ldrb.w	r2, [r4, #1]!
1000166a:	2a00      	cmp	r2, #0
1000166c:	f000 80f5 	beq.w	1000185a <_ZN4Game6updateEv+0xd12>
10001670:	4639      	mov	r1, r7
10001672:	a822      	add	r0, sp, #136	@ 0x88
10001674:	f001 fa4c 	bl	10002b10 <_ZNK11RangedEnemy11getColliderEv>
10001678:	9922      	ldr	r1, [sp, #136]	@ 0x88
1000167a:	9a24      	ldr	r2, [sp, #144]	@ 0x90
1000167c:	440a      	add	r2, r1
1000167e:	454a      	cmp	r2, r9
10001680:	f340 80eb 	ble.w	1000185a <_ZN4Game6updateEv+0xd12>
10001684:	9b0e      	ldr	r3, [sp, #56]	@ 0x38
10001686:	4299      	cmp	r1, r3
10001688:	f280 80e7 	bge.w	1000185a <_ZN4Game6updateEv+0xd12>
1000168c:	9923      	ldr	r1, [sp, #140]	@ 0x8c
1000168e:	9a25      	ldr	r2, [sp, #148]	@ 0x94
10001690:	440a      	add	r2, r1
10001692:	42aa      	cmp	r2, r5
10001694:	f340 80e1 	ble.w	1000185a <_ZN4Game6updateEv+0xd12>
10001698:	9b0a      	ldr	r3, [sp, #40]	@ 0x28
1000169a:	195a      	adds	r2, r3, r5
1000169c:	4291      	cmp	r1, r2
1000169e:	f280 80dc 	bge.w	1000185a <_ZN4Game6updateEv+0xd12>
100016a2:	9a02      	ldr	r2, [sp, #8]
100016a4:	9e0f      	ldr	r6, [sp, #60]	@ 0x3c
100016a6:	f892 3020 	ldrb.w	r3, [r2, #32]
100016aa:	2b00      	cmp	r3, #0
100016ac:	d0b5      	beq.n	1000161a <_ZN4Game6updateEv+0xad2>
100016ae:	3b01      	subs	r3, #1
100016b0:	f882 3020 	strb.w	r3, [r2, #32]
100016b4:	e7b1      	b.n	1000161a <_ZN4Game6updateEv+0xad2>
100016b6:	f884 900d 	strb.w	r9, [r4, #13]
100016ba:	e9cd 0022 	strd	r0, r0, [sp, #136]	@ 0x88
100016be:	e9cd 0024 	strd	r0, r0, [sp, #144]	@ 0x90
100016c2:	e9cd 0026 	strd	r0, r0, [sp, #152]	@ 0x98
100016c6:	e9cd 0028 	strd	r0, r0, [sp, #160]	@ 0xa0
100016ca:	e9cd 002a 	strd	r0, r0, [sp, #168]	@ 0xa8
100016ce:	e9cd 002c 	strd	r0, r0, [sp, #176]	@ 0xb0
100016d2:	e9cd 002e 	strd	r0, r0, [sp, #184]	@ 0xb8
100016d6:	e9cd 0030 	strd	r0, r0, [sp, #192]	@ 0xc0
100016da:	f8c8 0f88 	str.w	r0, [r8, #3976]	@ 0xf88
100016de:	f8c8 0f8c 	str.w	r0, [r8, #3980]	@ 0xf8c
100016e2:	f8c8 0f90 	str.w	r0, [r8, #3984]	@ 0xf90
100016e6:	a922      	add	r1, sp, #136	@ 0x88
100016e8:	4620      	mov	r0, r4
100016ea:	f001 fd73 	bl	100031d4 <_ZNK9BossEnemy17computeArenaWallsEP4Rect>
100016ee:	f898 2f88 	ldrb.w	r2, [r8, #3976]	@ 0xf88
100016f2:	2a00      	cmp	r2, #0
100016f4:	f000 819d 	beq.w	10001a32 <_ZN4Game6updateEv+0xeea>
100016f8:	f898 3f89 	ldrb.w	r3, [r8, #3977]	@ 0xf89
100016fc:	2b00      	cmp	r3, #0
100016fe:	f000 819b 	beq.w	10001a38 <_ZN4Game6updateEv+0xef0>
10001702:	f898 3f8a 	ldrb.w	r3, [r8, #3978]	@ 0xf8a
10001706:	2b00      	cmp	r3, #0
10001708:	f000 8187 	beq.w	10001a1a <_ZN4Game6updateEv+0xed2>
1000170c:	f898 3f8b 	ldrb.w	r3, [r8, #3979]	@ 0xf8b
10001710:	2b00      	cmp	r3, #0
10001712:	f000 80c3 	beq.w	1000189c <_ZN4Game6updateEv+0xd54>
10001716:	f898 3f8c 	ldrb.w	r3, [r8, #3980]	@ 0xf8c
1000171a:	2b00      	cmp	r3, #0
1000171c:	f000 8185 	beq.w	10001a2a <_ZN4Game6updateEv+0xee2>
10001720:	f898 3f8d 	ldrb.w	r3, [r8, #3981]	@ 0xf8d
10001724:	2b00      	cmp	r3, #0
10001726:	f000 817c 	beq.w	10001a22 <_ZN4Game6updateEv+0xeda>
1000172a:	f898 3f8e 	ldrb.w	r3, [r8, #3982]	@ 0xf8e
1000172e:	2b00      	cmp	r3, #0
10001730:	f000 81a6 	beq.w	10001a80 <_ZN4Game6updateEv+0xf38>
10001734:	f898 3f8f 	ldrb.w	r3, [r8, #3983]	@ 0xf8f
10001738:	2b00      	cmp	r3, #0
1000173a:	f000 819d 	beq.w	10001a78 <_ZN4Game6updateEv+0xf30>
1000173e:	f898 3f8a 	ldrb.w	r3, [r8, #3978]	@ 0xf8a
10001742:	2b00      	cmp	r3, #0
10001744:	f000 8193 	beq.w	10001a6e <_ZN4Game6updateEv+0xf26>
10001748:	f898 3f8b 	ldrb.w	r3, [r8, #3979]	@ 0xf8b
1000174c:	2b00      	cmp	r3, #0
1000174e:	f000 8189 	beq.w	10001a64 <_ZN4Game6updateEv+0xf1c>
10001752:	f898 3f8c 	ldrb.w	r3, [r8, #3980]	@ 0xf8c
10001756:	2b00      	cmp	r3, #0
10001758:	f000 817f 	beq.w	10001a5a <_ZN4Game6updateEv+0xf12>
1000175c:	f898 3f8d 	ldrb.w	r3, [r8, #3981]	@ 0xf8d
10001760:	2b00      	cmp	r3, #0
10001762:	f000 8175 	beq.w	10001a50 <_ZN4Game6updateEv+0xf08>
10001766:	f898 3f8e 	ldrb.w	r3, [r8, #3982]	@ 0xf8e
1000176a:	2b00      	cmp	r3, #0
1000176c:	f000 816b 	beq.w	10001a46 <_ZN4Game6updateEv+0xefe>
10001770:	f898 3f8f 	ldrb.w	r3, [r8, #3983]	@ 0xf8f
10001774:	2b00      	cmp	r3, #0
10001776:	f000 8161 	beq.w	10001a3c <_ZN4Game6updateEv+0xef4>
1000177a:	f898 3f8a 	ldrb.w	r3, [r8, #3978]	@ 0xf8a
1000177e:	2b00      	cmp	r3, #0
10001780:	f000 8137 	beq.w	100019f2 <_ZN4Game6updateEv+0xeaa>
10001784:	f898 3f8b 	ldrb.w	r3, [r8, #3979]	@ 0xf8b
10001788:	2b00      	cmp	r3, #0
1000178a:	f000 812d 	beq.w	100019e8 <_ZN4Game6updateEv+0xea0>
1000178e:	f898 3f8c 	ldrb.w	r3, [r8, #3980]	@ 0xf8c
10001792:	2b00      	cmp	r3, #0
10001794:	f000 8123 	beq.w	100019de <_ZN4Game6updateEv+0xe96>
10001798:	f898 3f8d 	ldrb.w	r3, [r8, #3981]	@ 0xf8d
1000179c:	2b00      	cmp	r3, #0
1000179e:	f000 8119 	beq.w	100019d4 <_ZN4Game6updateEv+0xe8c>
100017a2:	f898 3f8e 	ldrb.w	r3, [r8, #3982]	@ 0xf8e
100017a6:	2b00      	cmp	r3, #0
100017a8:	f000 810f 	beq.w	100019ca <_ZN4Game6updateEv+0xe82>
100017ac:	f898 3f8f 	ldrb.w	r3, [r8, #3983]	@ 0xf8f
100017b0:	2b00      	cmp	r3, #0
100017b2:	f000 8105 	beq.w	100019c0 <_ZN4Game6updateEv+0xe78>
100017b6:	f898 3f8a 	ldrb.w	r3, [r8, #3978]	@ 0xf8a
100017ba:	2b00      	cmp	r3, #0
100017bc:	f000 80fb 	beq.w	100019b6 <_ZN4Game6updateEv+0xe6e>
100017c0:	f898 3f8b 	ldrb.w	r3, [r8, #3979]	@ 0xf8b
100017c4:	2b00      	cmp	r3, #0
100017c6:	f000 80f1 	beq.w	100019ac <_ZN4Game6updateEv+0xe64>
100017ca:	f898 3f8c 	ldrb.w	r3, [r8, #3980]	@ 0xf8c
100017ce:	2b00      	cmp	r3, #0
100017d0:	f000 80e7 	beq.w	100019a2 <_ZN4Game6updateEv+0xe5a>
100017d4:	f898 3f8d 	ldrb.w	r3, [r8, #3981]	@ 0xf8d
100017d8:	2b00      	cmp	r3, #0
100017da:	f000 80dd 	beq.w	10001998 <_ZN4Game6updateEv+0xe50>
100017de:	f898 3f8e 	ldrb.w	r3, [r8, #3982]	@ 0xf8e
100017e2:	2b00      	cmp	r3, #0
100017e4:	f000 80d3 	beq.w	1000198e <_ZN4Game6updateEv+0xe46>
100017e8:	f898 3f8f 	ldrb.w	r3, [r8, #3983]	@ 0xf8f
100017ec:	2b00      	cmp	r3, #0
100017ee:	f47f aa4d 	bne.w	10000c8c <_ZN4Game6updateEv+0x144>
100017f2:	2208      	movs	r2, #8
100017f4:	2307      	movs	r3, #7
100017f6:	f8d8 1f90 	ldr.w	r1, [r8, #3984]	@ 0xf90
100017fa:	e0b4      	b.n	10001966 <_ZN4Game6updateEv+0xe1e>
100017fc:	f8c8 3f88 	str.w	r3, [r8, #3976]	@ 0xf88
10001800:	f8c8 3f8c 	str.w	r3, [r8, #3980]	@ 0xf8c
10001804:	f8c8 3f90 	str.w	r3, [r8, #3984]	@ 0xf90
10001808:	f888 3f01 	strb.w	r3, [r8, #3841]	@ 0xf01
1000180c:	e643      	b.n	10001496 <_ZN4Game6updateEv+0x94e>
1000180e:	f8c8 3f88 	str.w	r3, [r8, #3976]	@ 0xf88
10001812:	f8c8 3f8c 	str.w	r3, [r8, #3980]	@ 0xf8c
10001816:	f8c8 3f90 	str.w	r3, [r8, #3984]	@ 0xf90
1000181a:	f888 3f02 	strb.w	r3, [r8, #3842]	@ 0xf02
1000181e:	e642      	b.n	100014a6 <_ZN4Game6updateEv+0x95e>
10001820:	f8c8 3f88 	str.w	r3, [r8, #3976]	@ 0xf88
10001824:	f8c8 3f8c 	str.w	r3, [r8, #3980]	@ 0xf8c
10001828:	f8c8 3f90 	str.w	r3, [r8, #3984]	@ 0xf90
1000182c:	f888 3f00 	strb.w	r3, [r8, #3840]	@ 0xf00
10001830:	e629      	b.n	10001486 <_ZN4Game6updateEv+0x93e>
10001832:	9b25      	ldr	r3, [sp, #148]	@ 0x94
10001834:	9923      	ldr	r1, [sp, #140]	@ 0x8c
10001836:	18ca      	adds	r2, r1, r3
10001838:	9b1f      	ldr	r3, [sp, #124]	@ 0x7c
1000183a:	4293      	cmp	r3, r2
1000183c:	f6bf addb 	bge.w	100013f6 <_ZN4Game6updateEv+0x8ae>
10001840:	9a21      	ldr	r2, [sp, #132]	@ 0x84
10001842:	4413      	add	r3, r2
10001844:	4299      	cmp	r1, r3
10001846:	f6bf add6 	bge.w	100013f6 <_ZN4Game6updateEv+0x8ae>
1000184a:	2201      	movs	r2, #1
1000184c:	f505 5340 	add.w	r3, r5, #12288	@ 0x3000
10001850:	f888 2eb8 	strb.w	r2, [r8, #3768]	@ 0xeb8
10001854:	f883 2030 	strb.w	r2, [r3, #48]	@ 0x30
10001858:	e5cd      	b.n	100013f6 <_ZN4Game6updateEv+0x8ae>
1000185a:	42a6      	cmp	r6, r4
1000185c:	f107 0728 	add.w	r7, r7, #40	@ 0x28
10001860:	f47f af01 	bne.w	10001666 <_ZN4Game6updateEv+0xb1e>
10001864:	9e0f      	ldr	r6, [sp, #60]	@ 0x3c
10001866:	f7ff bbb5 	b.w	10000fd4 <_ZN4Game6updateEv+0x48c>
1000186a:	9b02      	ldr	r3, [sp, #8]
1000186c:	f503 562a 	add.w	r6, r3, #10880	@ 0x2a80
10001870:	362c      	adds	r6, #44	@ 0x2c
10001872:	f7ff bb67 	b.w	10000f44 <_ZN4Game6updateEv+0x3fc>
10001876:	f503 532a 	add.w	r3, r3, #10880	@ 0x2a80
1000187a:	3313      	adds	r3, #19
1000187c:	9309      	str	r3, [sp, #36]	@ 0x24
1000187e:	f7ff bba9 	b.w	10000fd4 <_ZN4Game6updateEv+0x48c>
10001882:	3b01      	subs	r3, #1
10001884:	f882 3020 	strb.w	r3, [r2, #32]
10001888:	e6c3      	b.n	10001612 <_ZN4Game6updateEv+0xaca>
1000188a:	2200      	movs	r2, #0
1000188c:	f895 3020 	ldrb.w	r3, [r5, #32]
10001890:	3301      	adds	r3, #1
10001892:	f885 3020 	strb.w	r3, [r5, #32]
10001896:	f888 2e98 	strb.w	r2, [r8, #3736]	@ 0xe98
1000189a:	e590      	b.n	100013be <_ZN4Game6updateEv+0x876>
1000189c:	2304      	movs	r3, #4
1000189e:	f04f 0903 	mov.w	r9, #3
100018a2:	2001      	movs	r0, #1
100018a4:	f8d8 2f90 	ldr.w	r2, [r8, #3984]	@ 0xf90
100018a8:	eb08 0109 	add.w	r1, r8, r9
100018ac:	4591      	cmp	r9, r2
100018ae:	f881 0f88 	strb.w	r0, [r1, #3976]	@ 0xf88
100018b2:	d301      	bcc.n	100018b8 <_ZN4Game6updateEv+0xd70>
100018b4:	f8c8 3f90 	str.w	r3, [r8, #3984]	@ 0xf90
100018b8:	f898 ef88 	ldrb.w	lr, [r8, #3976]	@ 0xf88
100018bc:	eb08 1909 	add.w	r9, r8, r9, lsl #4
100018c0:	f609 7c08 	addw	ip, r9, #3848	@ 0xf08
100018c4:	ab22      	add	r3, sp, #136	@ 0x88
100018c6:	cb0f      	ldmia	r3, {r0, r1, r2, r3}
100018c8:	e88c 000f 	stmia.w	ip, {r0, r1, r2, r3}
100018cc:	f1be 0f00 	cmp.w	lr, #0
100018d0:	f000 809e 	beq.w	10001a10 <_ZN4Game6updateEv+0xec8>
100018d4:	f898 3f89 	ldrb.w	r3, [r8, #3977]	@ 0xf89
100018d8:	2b00      	cmp	r3, #0
100018da:	f47f af30 	bne.w	1000173e <_ZN4Game6updateEv+0xbf6>
100018de:	2202      	movs	r2, #2
100018e0:	2301      	movs	r3, #1
100018e2:	f8d8 1f90 	ldr.w	r1, [r8, #3984]	@ 0xf90
100018e6:	f04f 0c01 	mov.w	ip, #1
100018ea:	eb08 0003 	add.w	r0, r8, r3
100018ee:	4299      	cmp	r1, r3
100018f0:	f880 cf88 	strb.w	ip, [r0, #3976]	@ 0xf88
100018f4:	d801      	bhi.n	100018fa <_ZN4Game6updateEv+0xdb2>
100018f6:	f8c8 2f90 	str.w	r2, [r8, #3984]	@ 0xf90
100018fa:	eb08 1303 	add.w	r3, r8, r3, lsl #4
100018fe:	f898 cf88 	ldrb.w	ip, [r8, #3976]	@ 0xf88
10001902:	f603 7e08 	addw	lr, r3, #3848	@ 0xf08
10001906:	ab26      	add	r3, sp, #152	@ 0x98
10001908:	cb0f      	ldmia	r3, {r0, r1, r2, r3}
1000190a:	e88e 000f 	stmia.w	lr, {r0, r1, r2, r3}
1000190e:	f1bc 0f00 	cmp.w	ip, #0
10001912:	d078      	beq.n	10001a06 <_ZN4Game6updateEv+0xebe>
10001914:	f898 3f89 	ldrb.w	r3, [r8, #3977]	@ 0xf89
10001918:	2b00      	cmp	r3, #0
1000191a:	f47f af2e 	bne.w	1000177a <_ZN4Game6updateEv+0xc32>
1000191e:	2202      	movs	r2, #2
10001920:	2301      	movs	r3, #1
10001922:	f8d8 1f90 	ldr.w	r1, [r8, #3984]	@ 0xf90
10001926:	f04f 0c01 	mov.w	ip, #1
1000192a:	eb08 0003 	add.w	r0, r8, r3
1000192e:	4299      	cmp	r1, r3
10001930:	f880 cf88 	strb.w	ip, [r0, #3976]	@ 0xf88
10001934:	d801      	bhi.n	1000193a <_ZN4Game6updateEv+0xdf2>
10001936:	f8c8 2f90 	str.w	r2, [r8, #3984]	@ 0xf90
1000193a:	eb08 1303 	add.w	r3, r8, r3, lsl #4
1000193e:	f898 cf88 	ldrb.w	ip, [r8, #3976]	@ 0xf88
10001942:	f603 7e08 	addw	lr, r3, #3848	@ 0xf08
10001946:	ab2a      	add	r3, sp, #168	@ 0xa8
10001948:	cb0f      	ldmia	r3, {r0, r1, r2, r3}
1000194a:	e88e 000f 	stmia.w	lr, {r0, r1, r2, r3}
1000194e:	f1bc 0f00 	cmp.w	ip, #0
10001952:	d053      	beq.n	100019fc <_ZN4Game6updateEv+0xeb4>
10001954:	f898 3f89 	ldrb.w	r3, [r8, #3977]	@ 0xf89
10001958:	2b00      	cmp	r3, #0
1000195a:	f47f af2c 	bne.w	100017b6 <_ZN4Game6updateEv+0xc6e>
1000195e:	2202      	movs	r2, #2
10001960:	2301      	movs	r3, #1
10001962:	f8d8 1f90 	ldr.w	r1, [r8, #3984]	@ 0xf90
10001966:	f04f 0c01 	mov.w	ip, #1
1000196a:	eb08 0003 	add.w	r0, r8, r3
1000196e:	4299      	cmp	r1, r3
10001970:	f880 cf88 	strb.w	ip, [r0, #3976]	@ 0xf88
10001974:	d801      	bhi.n	1000197a <_ZN4Game6updateEv+0xe32>
10001976:	f8c8 2f90 	str.w	r2, [r8, #3984]	@ 0xf90
1000197a:	eb08 1303 	add.w	r3, r8, r3, lsl #4
1000197e:	f603 7c08 	addw	ip, r3, #3848	@ 0xf08
10001982:	ab2e      	add	r3, sp, #184	@ 0xb8
10001984:	cb0f      	ldmia	r3, {r0, r1, r2, r3}
10001986:	e88c 000f 	stmia.w	ip, {r0, r1, r2, r3}
1000198a:	f7ff b97f 	b.w	10000c8c <_ZN4Game6updateEv+0x144>
1000198e:	2207      	movs	r2, #7
10001990:	2306      	movs	r3, #6
10001992:	f8d8 1f90 	ldr.w	r1, [r8, #3984]	@ 0xf90
10001996:	e7e6      	b.n	10001966 <_ZN4Game6updateEv+0xe1e>
10001998:	2206      	movs	r2, #6
1000199a:	2305      	movs	r3, #5
1000199c:	f8d8 1f90 	ldr.w	r1, [r8, #3984]	@ 0xf90
100019a0:	e7e1      	b.n	10001966 <_ZN4Game6updateEv+0xe1e>
100019a2:	2205      	movs	r2, #5
100019a4:	2304      	movs	r3, #4
100019a6:	f8d8 1f90 	ldr.w	r1, [r8, #3984]	@ 0xf90
100019aa:	e7dc      	b.n	10001966 <_ZN4Game6updateEv+0xe1e>
100019ac:	2204      	movs	r2, #4
100019ae:	2303      	movs	r3, #3
100019b0:	f8d8 1f90 	ldr.w	r1, [r8, #3984]	@ 0xf90
100019b4:	e7d7      	b.n	10001966 <_ZN4Game6updateEv+0xe1e>
100019b6:	2203      	movs	r2, #3
100019b8:	2302      	movs	r3, #2
100019ba:	f8d8 1f90 	ldr.w	r1, [r8, #3984]	@ 0xf90
100019be:	e7d2      	b.n	10001966 <_ZN4Game6updateEv+0xe1e>
100019c0:	2208      	movs	r2, #8
100019c2:	2307      	movs	r3, #7
100019c4:	f8d8 1f90 	ldr.w	r1, [r8, #3984]	@ 0xf90
100019c8:	e7ad      	b.n	10001926 <_ZN4Game6updateEv+0xdde>
100019ca:	2207      	movs	r2, #7
100019cc:	2306      	movs	r3, #6
100019ce:	f8d8 1f90 	ldr.w	r1, [r8, #3984]	@ 0xf90
100019d2:	e7a8      	b.n	10001926 <_ZN4Game6updateEv+0xdde>
100019d4:	2206      	movs	r2, #6
100019d6:	2305      	movs	r3, #5
100019d8:	f8d8 1f90 	ldr.w	r1, [r8, #3984]	@ 0xf90
100019dc:	e7a3      	b.n	10001926 <_ZN4Game6updateEv+0xdde>
100019de:	2205      	movs	r2, #5
100019e0:	2304      	movs	r3, #4
100019e2:	f8d8 1f90 	ldr.w	r1, [r8, #3984]	@ 0xf90
100019e6:	e79e      	b.n	10001926 <_ZN4Game6updateEv+0xdde>
100019e8:	2204      	movs	r2, #4
100019ea:	2303      	movs	r3, #3
100019ec:	f8d8 1f90 	ldr.w	r1, [r8, #3984]	@ 0xf90
100019f0:	e799      	b.n	10001926 <_ZN4Game6updateEv+0xdde>
100019f2:	2203      	movs	r2, #3
100019f4:	2302      	movs	r3, #2
100019f6:	f8d8 1f90 	ldr.w	r1, [r8, #3984]	@ 0xf90
100019fa:	e794      	b.n	10001926 <_ZN4Game6updateEv+0xdde>
100019fc:	2201      	movs	r2, #1
100019fe:	4663      	mov	r3, ip
10001a00:	f888 2f88 	strb.w	r2, [r8, #3976]	@ 0xf88
10001a04:	e7b9      	b.n	1000197a <_ZN4Game6updateEv+0xe32>
10001a06:	2201      	movs	r2, #1
10001a08:	4663      	mov	r3, ip
10001a0a:	f888 2f88 	strb.w	r2, [r8, #3976]	@ 0xf88
10001a0e:	e794      	b.n	1000193a <_ZN4Game6updateEv+0xdf2>
10001a10:	2201      	movs	r2, #1
10001a12:	4673      	mov	r3, lr
10001a14:	f888 2f88 	strb.w	r2, [r8, #3976]	@ 0xf88
10001a18:	e76f      	b.n	100018fa <_ZN4Game6updateEv+0xdb2>
10001a1a:	2303      	movs	r3, #3
10001a1c:	f04f 0902 	mov.w	r9, #2
10001a20:	e73f      	b.n	100018a2 <_ZN4Game6updateEv+0xd5a>
10001a22:	2306      	movs	r3, #6
10001a24:	f04f 0905 	mov.w	r9, #5
10001a28:	e73b      	b.n	100018a2 <_ZN4Game6updateEv+0xd5a>
10001a2a:	2305      	movs	r3, #5
10001a2c:	f04f 0904 	mov.w	r9, #4
10001a30:	e737      	b.n	100018a2 <_ZN4Game6updateEv+0xd5a>
10001a32:	464b      	mov	r3, r9
10001a34:	4691      	mov	r9, r2
10001a36:	e734      	b.n	100018a2 <_ZN4Game6updateEv+0xd5a>
10001a38:	2302      	movs	r3, #2
10001a3a:	e732      	b.n	100018a2 <_ZN4Game6updateEv+0xd5a>
10001a3c:	2208      	movs	r2, #8
10001a3e:	2307      	movs	r3, #7
10001a40:	f8d8 1f90 	ldr.w	r1, [r8, #3984]	@ 0xf90
10001a44:	e74f      	b.n	100018e6 <_ZN4Game6updateEv+0xd9e>
10001a46:	2207      	movs	r2, #7
10001a48:	2306      	movs	r3, #6
10001a4a:	f8d8 1f90 	ldr.w	r1, [r8, #3984]	@ 0xf90
10001a4e:	e74a      	b.n	100018e6 <_ZN4Game6updateEv+0xd9e>
10001a50:	2206      	movs	r2, #6
10001a52:	2305      	movs	r3, #5
10001a54:	f8d8 1f90 	ldr.w	r1, [r8, #3984]	@ 0xf90
10001a58:	e745      	b.n	100018e6 <_ZN4Game6updateEv+0xd9e>
10001a5a:	2205      	movs	r2, #5
10001a5c:	2304      	movs	r3, #4
10001a5e:	f8d8 1f90 	ldr.w	r1, [r8, #3984]	@ 0xf90
10001a62:	e740      	b.n	100018e6 <_ZN4Game6updateEv+0xd9e>
10001a64:	2204      	movs	r2, #4
10001a66:	2303      	movs	r3, #3
10001a68:	f8d8 1f90 	ldr.w	r1, [r8, #3984]	@ 0xf90
10001a6c:	e73b      	b.n	100018e6 <_ZN4Game6updateEv+0xd9e>
10001a6e:	2203      	movs	r2, #3
10001a70:	2302      	movs	r3, #2
10001a72:	f8d8 1f90 	ldr.w	r1, [r8, #3984]	@ 0xf90
10001a76:	e736      	b.n	100018e6 <_ZN4Game6updateEv+0xd9e>
10001a78:	2308      	movs	r3, #8
10001a7a:	f04f 0907 	mov.w	r9, #7
10001a7e:	e710      	b.n	100018a2 <_ZN4Game6updateEv+0xd5a>
10001a80:	2307      	movs	r3, #7
10001a82:	f04f 0906 	mov.w	r9, #6
10001a86:	e70c      	b.n	100018a2 <_ZN4Game6updateEv+0xd5a>

10001a88 <_ZN4Game6renderEv>:
10001a88:	e92d 4ff0 	stmdb	sp!, {r4, r5, r6, r7, r8, r9, sl, fp, lr}
10001a8c:	ed2d 8b02 	vpush	{d8}
10001a90:	4606      	mov	r6, r0
10001a92:	6800      	ldr	r0, [r0, #0]
10001a94:	b0a5      	sub	sp, #148	@ 0x94
10001a96:	6803      	ldr	r3, [r0, #0]
10001a98:	f506 5400 	add.w	r4, r6, #8192	@ 0x2000
10001a9c:	689b      	ldr	r3, [r3, #8]
10001a9e:	4798      	blx	r3
10001aa0:	e9d4 5787 	ldrd	r5, r7, [r4, #540]	@ 0x21c
10001aa4:	6830      	ldr	r0, [r6, #0]
10001aa6:	143b      	asrs	r3, r7, #16
10001aa8:	9305      	str	r3, [sp, #20]
10001aaa:	6803      	ldr	r3, [r0, #0]
10001aac:	ea4f 4a25 	mov.w	sl, r5, asr #16
10001ab0:	6adb      	ldr	r3, [r3, #44]	@ 0x2c
10001ab2:	4798      	blx	r3
10001ab4:	4680      	mov	r8, r0
10001ab6:	6830      	ldr	r0, [r6, #0]
10001ab8:	6803      	ldr	r3, [r0, #0]
10001aba:	6b1b      	ldr	r3, [r3, #48]	@ 0x30
10001abc:	4798      	blx	r3
10001abe:	143b      	asrs	r3, r7, #16
10001ac0:	eb18 080a 	adds.w	r8, r8, sl
10001ac4:	bf48      	it	mi
10001ac6:	f108 080f 	addmi.w	r8, r8, #15
10001aca:	18c0      	adds	r0, r0, r3
10001acc:	bf48      	it	mi
10001ace:	300f      	addmi	r0, #15
10001ad0:	143b      	asrs	r3, r7, #16
10001ad2:	f1ba 0f0f 	cmp.w	sl, #15
10001ad6:	bfd8      	it	le
10001ad8:	2100      	movle	r1, #0
10001ada:	ea4f 1020 	mov.w	r0, r0, asr #4
10001ade:	bfc8      	it	gt
10001ae0:	1529      	asrgt	r1, r5, #20
10001ae2:	2b0f      	cmp	r3, #15
10001ae4:	6bb3      	ldr	r3, [r6, #56]	@ 0x38
10001ae6:	f100 0b01 	add.w	fp, r0, #1
10001aea:	bfd4      	ite	le
10001aec:	2700      	movle	r7, #0
10001aee:	153f      	asrgt	r7, r7, #20
10001af0:	459b      	cmp	fp, r3
10001af2:	bfa8      	it	ge
10001af4:	469b      	movge	fp, r3
10001af6:	ea4f 1228 	mov.w	r2, r8, asr #4
10001afa:	6b73      	ldr	r3, [r6, #52]	@ 0x34
10001afc:	3201      	adds	r2, #1
10001afe:	429a      	cmp	r2, r3
10001b00:	bfa8      	it	ge
10001b02:	461a      	movge	r2, r3
10001b04:	455f      	cmp	r7, fp
10001b06:	4691      	mov	r9, r2
10001b08:	da30      	bge.n	10001b6c <_ZN4Game6renderEv+0xe4>
10001b0a:	4291      	cmp	r1, r2
10001b0c:	da2e      	bge.n	10001b6c <_ZN4Game6renderEv+0xe4>
10001b0e:	4623      	mov	r3, r4
10001b10:	463d      	mov	r5, r7
10001b12:	4654      	mov	r4, sl
10001b14:	469a      	mov	sl, r3
10001b16:	f106 0834 	add.w	r8, r6, #52	@ 0x34
10001b1a:	9106      	str	r1, [sp, #24]
10001b1c:	f8cd b01c 	str.w	fp, [sp, #28]
10001b20:	f8dd b018 	ldr.w	fp, [sp, #24]
10001b24:	465f      	mov	r7, fp
10001b26:	46b3      	mov	fp, r6
10001b28:	4626      	mov	r6, r4
10001b2a:	462a      	mov	r2, r5
10001b2c:	4639      	mov	r1, r7
10001b2e:	4640      	mov	r0, r8
10001b30:	f002 f8b2 	bl	10003c98 <_ZNK5Level9getTileIdEii>
10001b34:	1c42      	adds	r2, r0, #1
10001b36:	4603      	mov	r3, r0
10001b38:	d00c      	beq.n	10001b54 <_ZN4Game6renderEv+0xcc>
10001b3a:	f8db 0000 	ldr.w	r0, [fp]
10001b3e:	9905      	ldr	r1, [sp, #20]
10001b40:	f8da 2fa8 	ldr.w	r2, [sl, #4008]	@ 0xfa8
10001b44:	6804      	ldr	r4, [r0, #0]
10001b46:	e9cd 6101 	strd	r6, r1, [sp, #4]
10001b4a:	9200      	str	r2, [sp, #0]
10001b4c:	4639      	mov	r1, r7
10001b4e:	462a      	mov	r2, r5
10001b50:	69a4      	ldr	r4, [r4, #24]
10001b52:	47a0      	blx	r4
10001b54:	3701      	adds	r7, #1
10001b56:	45b9      	cmp	r9, r7
10001b58:	d1e7      	bne.n	10001b2a <_ZN4Game6renderEv+0xa2>
10001b5a:	9b07      	ldr	r3, [sp, #28]
10001b5c:	3501      	adds	r5, #1
10001b5e:	429d      	cmp	r5, r3
10001b60:	4634      	mov	r4, r6
10001b62:	465e      	mov	r6, fp
10001b64:	d1dc      	bne.n	10001b20 <_ZN4Game6renderEv+0x98>
10001b66:	4653      	mov	r3, sl
10001b68:	46a2      	mov	sl, r4
10001b6a:	461c      	mov	r4, r3
10001b6c:	ee07 aa90 	vmov	s15, sl
10001b70:	eef8 8ae7 	vcvt.f32.s32	s17, s15
10001b74:	eddd 7a05 	vldr	s15, [sp, #20]
10001b78:	f894 309c 	ldrb.w	r3, [r4, #156]	@ 0x9c
10001b7c:	eeb8 8ae7 	vcvt.f32.s32	s16, s15
10001b80:	2b00      	cmp	r3, #0
10001b82:	f000 8351 	beq.w	10002228 <_ZN4Game6renderEv+0x7a0>
10001b86:	eef0 7a68 	vmov.f32	s15, s17
10001b8a:	eefe 7ac8 	vcvt.s32.f32	s15, s15, #16
10001b8e:	ee17 ba90 	vmov	fp, s15
10001b92:	eef0 7a48 	vmov.f32	s15, s16
10001b96:	eefe 7ac8 	vcvt.s32.f32	s15, s15, #16
10001b9a:	2258      	movs	r2, #88	@ 0x58
10001b9c:	edcd 7a07 	vstr	s15, [sp, #28]
10001ba0:	f506 5701 	add.w	r7, r6, #8256	@ 0x2040
10001ba4:	3704      	adds	r7, #4
10001ba6:	fb02 7803 	mla	r8, r2, r3, r7
10001baa:	ad14      	add	r5, sp, #80	@ 0x50
10001bac:	9606      	str	r6, [sp, #24]
10001bae:	e897 000f 	ldmia.w	r7, {r0, r1, r2, r3}
10001bb2:	e885 000f 	stmia.w	r5, {r0, r1, r2, r3}
10001bb6:	9b06      	ldr	r3, [sp, #24]
10001bb8:	9a14      	ldr	r2, [sp, #80]	@ 0x50
10001bba:	6818      	ldr	r0, [r3, #0]
10001bbc:	465b      	mov	r3, fp
10001bbe:	9e15      	ldr	r6, [sp, #84]	@ 0x54
10001bc0:	1ad2      	subs	r2, r2, r3
10001bc2:	f8d4 1fc4 	ldr.w	r1, [r4, #4036]	@ 0xfc4
10001bc6:	9b07      	ldr	r3, [sp, #28]
10001bc8:	2900      	cmp	r1, #0
10001bca:	eba6 0303 	sub.w	r3, r6, r3
10001bce:	f8d0 c000 	ldr.w	ip, [r0]
10001bd2:	e9cd 2314 	strd	r2, r3, [sp, #80]	@ 0x50
10001bd6:	f2c0 828f 	blt.w	100020f8 <_ZN4Game6renderEv+0x670>
10001bda:	2200      	movs	r2, #0
10001bdc:	2320      	movs	r3, #32
10001bde:	e9cd 5201 	strd	r5, r2, [sp, #4]
10001be2:	f8d4 2fe8 	ldr.w	r2, [r4, #4072]	@ 0xfe8
10001be6:	9300      	str	r3, [sp, #0]
10001be8:	f8dc 9024 	ldr.w	r9, [ip, #36]	@ 0x24
10001bec:	3758      	adds	r7, #88	@ 0x58
10001bee:	47c8      	blx	r9
10001bf0:	45b8      	cmp	r8, r7
10001bf2:	d1dc      	bne.n	10001bae <_ZN4Game6renderEv+0x126>
10001bf4:	9e06      	ldr	r6, [sp, #24]
10001bf6:	f506 531d 	add.w	r3, r6, #10048	@ 0x2740
10001bfa:	f506 571d 	add.w	r7, r6, #10048	@ 0x2740
10001bfe:	f506 5813 	add.w	r8, r6, #9408	@ 0x24c0
10001c02:	332f      	adds	r3, #47	@ 0x2f
10001c04:	46d3      	mov	fp, sl
10001c06:	4699      	mov	r9, r3
10001c08:	371b      	adds	r7, #27
10001c0a:	f108 081c 	add.w	r8, r8, #28
10001c0e:	9406      	str	r4, [sp, #24]
10001c10:	e00f      	b.n	10001c32 <_ZN4Game6renderEv+0x1aa>
10001c12:	2310      	movs	r3, #16
10001c14:	f04f 0e00 	mov.w	lr, #0
10001c18:	f8d8 2014 	ldr.w	r2, [r8, #20]
10001c1c:	e9cd 3500 	strd	r3, r5, [sp]
10001c20:	f8cd e008 	str.w	lr, [sp, #8]
10001c24:	f8dc a024 	ldr.w	sl, [ip, #36]	@ 0x24
10001c28:	47d0      	blx	sl
10001c2a:	45b9      	cmp	r9, r7
10001c2c:	f108 0820 	add.w	r8, r8, #32
10001c30:	d02f      	beq.n	10001c92 <_ZN4Game6renderEv+0x20a>
10001c32:	f817 3f01 	ldrb.w	r3, [r7, #1]!
10001c36:	2b00      	cmp	r3, #0
10001c38:	d0f7      	beq.n	10001c2a <_ZN4Game6renderEv+0x1a2>
10001c3a:	4641      	mov	r1, r8
10001c3c:	4628      	mov	r0, r5
10001c3e:	f000 fd43 	bl	100026c8 <_ZNK10BasicEnemy11getColliderEv>
10001c42:	eef0 7a68 	vmov.f32	s15, s17
10001c46:	eefe 7ac8 	vcvt.s32.f32	s15, s15, #16
10001c4a:	ee17 ea90 	vmov	lr, s15
10001c4e:	eef0 7a48 	vmov.f32	s15, s16
10001c52:	eefe 7ac8 	vcvt.s32.f32	s15, s15, #16
10001c56:	ee17 aa90 	vmov	sl, s15
10001c5a:	9906      	ldr	r1, [sp, #24]
10001c5c:	9b15      	ldr	r3, [sp, #84]	@ 0x54
10001c5e:	9c14      	ldr	r4, [sp, #80]	@ 0x50
10001c60:	f8d1 1fac 	ldr.w	r1, [r1, #4012]	@ 0xfac
10001c64:	6830      	ldr	r0, [r6, #0]
10001c66:	eba4 0e0e 	sub.w	lr, r4, lr
10001c6a:	eba3 030a 	sub.w	r3, r3, sl
10001c6e:	2900      	cmp	r1, #0
10001c70:	f8d0 c000 	ldr.w	ip, [r0]
10001c74:	4aa5      	ldr	r2, [pc, #660]	@ (10001f0c <_ZN4Game6renderEv+0x484>)
10001c76:	e9cd e314 	strd	lr, r3, [sp, #80]	@ 0x50
10001c7a:	daca      	bge.n	10001c12 <_ZN4Game6renderEv+0x18a>
10001c7c:	4ca3      	ldr	r4, [pc, #652]	@ (10001f0c <_ZN4Game6renderEv+0x484>)
10001c7e:	f8dc a014 	ldr.w	sl, [ip, #20]
10001c82:	2301      	movs	r3, #1
10001c84:	4629      	mov	r1, r5
10001c86:	9410      	str	r4, [sp, #64]	@ 0x40
10001c88:	47d0      	blx	sl
10001c8a:	45b9      	cmp	r9, r7
10001c8c:	f108 0820 	add.w	r8, r8, #32
10001c90:	d1cf      	bne.n	10001c32 <_ZN4Game6renderEv+0x1aa>
10001c92:	46da      	mov	sl, fp
10001c94:	f506 582a 	add.w	r8, r6, #10880	@ 0x2a80
10001c98:	f506 571d 	add.w	r7, r6, #10048	@ 0x2740
10001c9c:	f506 5b2a 	add.w	fp, r6, #10880	@ 0x2a80
10001ca0:	f108 0813 	add.w	r8, r8, #19
10001ca4:	3734      	adds	r7, #52	@ 0x34
10001ca6:	f10b 0b27 	add.w	fp, fp, #39	@ 0x27
10001caa:	e00f      	b.n	10001ccc <_ZN4Game6renderEv+0x244>
10001cac:	2310      	movs	r3, #16
10001cae:	f897 e024 	ldrb.w	lr, [r7, #36]	@ 0x24
10001cb2:	697a      	ldr	r2, [r7, #20]
10001cb4:	f00e 0e01 	and.w	lr, lr, #1
10001cb8:	e9cd 5e01 	strd	r5, lr, [sp, #4]
10001cbc:	9300      	str	r3, [sp, #0]
10001cbe:	f8dc 9024 	ldr.w	r9, [ip, #36]	@ 0x24
10001cc2:	47c8      	blx	r9
10001cc4:	45c3      	cmp	fp, r8
10001cc6:	f107 0728 	add.w	r7, r7, #40	@ 0x28
10001cca:	d02e      	beq.n	10001d2a <_ZN4Game6renderEv+0x2a2>
10001ccc:	f818 3f01 	ldrb.w	r3, [r8, #1]!
10001cd0:	2b00      	cmp	r3, #0
10001cd2:	d0f7      	beq.n	10001cc4 <_ZN4Game6renderEv+0x23c>
10001cd4:	4639      	mov	r1, r7
10001cd6:	4628      	mov	r0, r5
10001cd8:	f000 ff1a 	bl	10002b10 <_ZNK11RangedEnemy11getColliderEv>
10001cdc:	eef0 7a68 	vmov.f32	s15, s17
10001ce0:	eefe 7ac8 	vcvt.s32.f32	s15, s15, #16
10001ce4:	9b06      	ldr	r3, [sp, #24]
10001ce6:	9c14      	ldr	r4, [sp, #80]	@ 0x50
10001ce8:	f8d3 1fb0 	ldr.w	r1, [r3, #4016]	@ 0xfb0
10001cec:	ee17 3a90 	vmov	r3, s15
10001cf0:	eef0 7a48 	vmov.f32	s15, s16
10001cf4:	eefe 7ac8 	vcvt.s32.f32	s15, s15, #16
10001cf8:	ee17 ea90 	vmov	lr, s15
10001cfc:	1ae3      	subs	r3, r4, r3
10001cfe:	9c15      	ldr	r4, [sp, #84]	@ 0x54
10001d00:	6830      	ldr	r0, [r6, #0]
10001d02:	eba4 0e0e 	sub.w	lr, r4, lr
10001d06:	2900      	cmp	r1, #0
10001d08:	f8d0 c000 	ldr.w	ip, [r0]
10001d0c:	4a80      	ldr	r2, [pc, #512]	@ (10001f10 <_ZN4Game6renderEv+0x488>)
10001d0e:	e9cd 3e14 	strd	r3, lr, [sp, #80]	@ 0x50
10001d12:	dacb      	bge.n	10001cac <_ZN4Game6renderEv+0x224>
10001d14:	4c7e      	ldr	r4, [pc, #504]	@ (10001f10 <_ZN4Game6renderEv+0x488>)
10001d16:	f8dc 9014 	ldr.w	r9, [ip, #20]
10001d1a:	2301      	movs	r3, #1
10001d1c:	4629      	mov	r1, r5
10001d1e:	9410      	str	r4, [sp, #64]	@ 0x40
10001d20:	47c8      	blx	r9
10001d22:	45c3      	cmp	fp, r8
10001d24:	f107 0728 	add.w	r7, r7, #40	@ 0x28
10001d28:	d1d0      	bne.n	10001ccc <_ZN4Game6renderEv+0x244>
10001d2a:	9c06      	ldr	r4, [sp, #24]
10001d2c:	f894 3f00 	ldrb.w	r3, [r4, #3840]	@ 0xf00
10001d30:	b333      	cbz	r3, 10001d80 <_ZN4Game6renderEv+0x2f8>
10001d32:	f894 3ed0 	ldrb.w	r3, [r4, #3792]	@ 0xed0
10001d36:	b31b      	cbz	r3, 10001d80 <_ZN4Game6renderEv+0x2f8>
10001d38:	f894 3ed1 	ldrb.w	r3, [r4, #3793]	@ 0xed1
10001d3c:	b303      	cbz	r3, 10001d80 <_ZN4Game6renderEv+0x2f8>
10001d3e:	f506 513b 	add.w	r1, r6, #11968	@ 0x2ec0
10001d42:	4628      	mov	r0, r5
10001d44:	3104      	adds	r1, #4
10001d46:	f001 fa39 	bl	100031bc <_ZNK9BossEnemy11getColliderEv>
10001d4a:	eef0 7a68 	vmov.f32	s15, s17
10001d4e:	eefe 7ac8 	vcvt.s32.f32	s15, s15, #16
10001d52:	ee17 7a90 	vmov	r7, s15
10001d56:	eef0 7a48 	vmov.f32	s15, s16
10001d5a:	eefe 7ac8 	vcvt.s32.f32	s15, s15, #16
10001d5e:	9914      	ldr	r1, [sp, #80]	@ 0x50
10001d60:	f46f 427f 	mvn.w	r2, #65280	@ 0xff00
10001d64:	1bc9      	subs	r1, r1, r7
10001d66:	ee17 7a90 	vmov	r7, s15
10001d6a:	9114      	str	r1, [sp, #80]	@ 0x50
10001d6c:	9915      	ldr	r1, [sp, #84]	@ 0x54
10001d6e:	6830      	ldr	r0, [r6, #0]
10001d70:	1bc9      	subs	r1, r1, r7
10001d72:	9115      	str	r1, [sp, #84]	@ 0x54
10001d74:	6801      	ldr	r1, [r0, #0]
10001d76:	2301      	movs	r3, #1
10001d78:	694f      	ldr	r7, [r1, #20]
10001d7a:	4629      	mov	r1, r5
10001d7c:	9210      	str	r2, [sp, #64]	@ 0x40
10001d7e:	47b8      	blx	r7
10001d80:	f894 3f01 	ldrb.w	r3, [r4, #3841]	@ 0xf01
10001d84:	b333      	cbz	r3, 10001dd4 <_ZN4Game6renderEv+0x34c>
10001d86:	f894 3ee4 	ldrb.w	r3, [r4, #3812]	@ 0xee4
10001d8a:	b31b      	cbz	r3, 10001dd4 <_ZN4Game6renderEv+0x34c>
10001d8c:	f894 3ee5 	ldrb.w	r3, [r4, #3813]	@ 0xee5
10001d90:	b303      	cbz	r3, 10001dd4 <_ZN4Game6renderEv+0x34c>
10001d92:	f506 513b 	add.w	r1, r6, #11968	@ 0x2ec0
10001d96:	4628      	mov	r0, r5
10001d98:	3118      	adds	r1, #24
10001d9a:	f001 fa0f 	bl	100031bc <_ZNK9BossEnemy11getColliderEv>
10001d9e:	eef0 7a68 	vmov.f32	s15, s17
10001da2:	eefe 7ac8 	vcvt.s32.f32	s15, s15, #16
10001da6:	ee17 7a90 	vmov	r7, s15
10001daa:	eef0 7a48 	vmov.f32	s15, s16
10001dae:	eefe 7ac8 	vcvt.s32.f32	s15, s15, #16
10001db2:	9914      	ldr	r1, [sp, #80]	@ 0x50
10001db4:	f46f 427f 	mvn.w	r2, #65280	@ 0xff00
10001db8:	1bc9      	subs	r1, r1, r7
10001dba:	ee17 7a90 	vmov	r7, s15
10001dbe:	9114      	str	r1, [sp, #80]	@ 0x50
10001dc0:	9915      	ldr	r1, [sp, #84]	@ 0x54
10001dc2:	6830      	ldr	r0, [r6, #0]
10001dc4:	1bc9      	subs	r1, r1, r7
10001dc6:	9115      	str	r1, [sp, #84]	@ 0x54
10001dc8:	6801      	ldr	r1, [r0, #0]
10001dca:	2301      	movs	r3, #1
10001dcc:	694f      	ldr	r7, [r1, #20]
10001dce:	4629      	mov	r1, r5
10001dd0:	9210      	str	r2, [sp, #64]	@ 0x40
10001dd2:	47b8      	blx	r7
10001dd4:	f894 3f02 	ldrb.w	r3, [r4, #3842]	@ 0xf02
10001dd8:	b333      	cbz	r3, 10001e28 <_ZN4Game6renderEv+0x3a0>
10001dda:	f894 3ef8 	ldrb.w	r3, [r4, #3832]	@ 0xef8
10001dde:	b31b      	cbz	r3, 10001e28 <_ZN4Game6renderEv+0x3a0>
10001de0:	f894 3ef9 	ldrb.w	r3, [r4, #3833]	@ 0xef9
10001de4:	b303      	cbz	r3, 10001e28 <_ZN4Game6renderEv+0x3a0>
10001de6:	f506 513b 	add.w	r1, r6, #11968	@ 0x2ec0
10001dea:	4628      	mov	r0, r5
10001dec:	312c      	adds	r1, #44	@ 0x2c
10001dee:	f001 f9e5 	bl	100031bc <_ZNK9BossEnemy11getColliderEv>
10001df2:	eef0 7a68 	vmov.f32	s15, s17
10001df6:	eefe 7ac8 	vcvt.s32.f32	s15, s15, #16
10001dfa:	ee17 7a90 	vmov	r7, s15
10001dfe:	eef0 7a48 	vmov.f32	s15, s16
10001e02:	eefe 7ac8 	vcvt.s32.f32	s15, s15, #16
10001e06:	9914      	ldr	r1, [sp, #80]	@ 0x50
10001e08:	f46f 427f 	mvn.w	r2, #65280	@ 0xff00
10001e0c:	1bc9      	subs	r1, r1, r7
10001e0e:	ee17 7a90 	vmov	r7, s15
10001e12:	9114      	str	r1, [sp, #80]	@ 0x50
10001e14:	9915      	ldr	r1, [sp, #84]	@ 0x54
10001e16:	6830      	ldr	r0, [r6, #0]
10001e18:	1bc9      	subs	r1, r1, r7
10001e1a:	9115      	str	r1, [sp, #84]	@ 0x54
10001e1c:	6801      	ldr	r1, [r0, #0]
10001e1e:	2301      	movs	r3, #1
10001e20:	694f      	ldr	r7, [r1, #20]
10001e22:	4629      	mov	r1, r5
10001e24:	9210      	str	r2, [sp, #64]	@ 0x40
10001e26:	47b8      	blx	r7
10001e28:	f894 2ea4 	ldrb.w	r2, [r4, #3748]	@ 0xea4
10001e2c:	2300      	movs	r3, #0
10001e2e:	b122      	cbz	r2, 10001e3a <_ZN4Game6renderEv+0x3b2>
10001e30:	f894 2e98 	ldrb.w	r2, [r4, #3736]	@ 0xe98
10001e34:	2a00      	cmp	r2, #0
10001e36:	f040 8185 	bne.w	10002144 <_ZN4Game6renderEv+0x6bc>
10001e3a:	b93b      	cbnz	r3, 10001e4c <_ZN4Game6renderEv+0x3c4>
10001e3c:	f894 3ebc 	ldrb.w	r3, [r4, #3772]	@ 0xebc
10001e40:	b123      	cbz	r3, 10001e4c <_ZN4Game6renderEv+0x3c4>
10001e42:	f894 3eb8 	ldrb.w	r3, [r4, #3768]	@ 0xeb8
10001e46:	2b00      	cmp	r3, #0
10001e48:	f000 816c 	beq.w	10002124 <_ZN4Game6renderEv+0x69c>
10001e4c:	f506 5839 	add.w	r8, r6, #11840	@ 0x2e40
10001e50:	f506 572a 	add.w	r7, r6, #10880	@ 0x2a80
10001e54:	f506 5b3a 	add.w	fp, r6, #11904	@ 0x2e80
10001e58:	f8df 90b8 	ldr.w	r9, [pc, #184]	@ 10001f14 <_ZN4Game6renderEv+0x48c>
10001e5c:	f108 082b 	add.w	r8, r8, #43	@ 0x2b
10001e60:	372c      	adds	r7, #44	@ 0x2c
10001e62:	f10b 0b09 	add.w	fp, fp, #9
10001e66:	e00e      	b.n	10001e86 <_ZN4Game6renderEv+0x3fe>
10001e68:	2310      	movs	r3, #16
10001e6a:	f04f 0e00 	mov.w	lr, #0
10001e6e:	69ba      	ldr	r2, [r7, #24]
10001e70:	e9cd 3500 	strd	r3, r5, [sp]
10001e74:	f8cd e008 	str.w	lr, [sp, #8]
10001e78:	f8dc a024 	ldr.w	sl, [ip, #36]	@ 0x24
10001e7c:	47d0      	blx	sl
10001e7e:	45c3      	cmp	fp, r8
10001e80:	f107 0720 	add.w	r7, r7, #32
10001e84:	d034      	beq.n	10001ef0 <_ZN4Game6renderEv+0x468>
10001e86:	f818 3f01 	ldrb.w	r3, [r8, #1]!
10001e8a:	2b00      	cmp	r3, #0
10001e8c:	d0f7      	beq.n	10001e7e <_ZN4Game6renderEv+0x3f6>
10001e8e:	4639      	mov	r1, r7
10001e90:	4628      	mov	r0, r5
10001e92:	f001 faf1 	bl	10003478 <_ZNK15EnemyProjectile11getColliderEv>
10001e96:	eef0 7a68 	vmov.f32	s15, s17
10001e9a:	eefe 7ac8 	vcvt.s32.f32	s15, s15, #16
10001e9e:	ee17 ea90 	vmov	lr, s15
10001ea2:	eef0 7a48 	vmov.f32	s15, s16
10001ea6:	eefe 7ac8 	vcvt.s32.f32	s15, s15, #16
10001eaa:	f8d4 3fb8 	ldr.w	r3, [r4, #4024]	@ 0xfb8
10001eae:	7d78      	ldrb	r0, [r7, #21]
10001eb0:	f8d4 1fb4 	ldr.w	r1, [r4, #4020]	@ 0xfb4
10001eb4:	ee17 aa90 	vmov	sl, s15
10001eb8:	2800      	cmp	r0, #0
10001eba:	bf18      	it	ne
10001ebc:	4619      	movne	r1, r3
10001ebe:	9b14      	ldr	r3, [sp, #80]	@ 0x50
10001ec0:	6830      	ldr	r0, [r6, #0]
10001ec2:	eba3 0e0e 	sub.w	lr, r3, lr
10001ec6:	9b15      	ldr	r3, [sp, #84]	@ 0x54
10001ec8:	2900      	cmp	r1, #0
10001eca:	eba3 030a 	sub.w	r3, r3, sl
10001ece:	f8d0 c000 	ldr.w	ip, [r0]
10001ed2:	4a10      	ldr	r2, [pc, #64]	@ (10001f14 <_ZN4Game6renderEv+0x48c>)
10001ed4:	e9cd e314 	strd	lr, r3, [sp, #80]	@ 0x50
10001ed8:	dac6      	bge.n	10001e68 <_ZN4Game6renderEv+0x3e0>
10001eda:	f8dc a014 	ldr.w	sl, [ip, #20]
10001ede:	2301      	movs	r3, #1
10001ee0:	4629      	mov	r1, r5
10001ee2:	f8cd 9040 	str.w	r9, [sp, #64]	@ 0x40
10001ee6:	47d0      	blx	sl
10001ee8:	45c3      	cmp	fp, r8
10001eea:	f107 0720 	add.w	r7, r7, #32
10001eee:	d1ca      	bne.n	10001e86 <_ZN4Game6renderEv+0x3fe>
10001ef0:	f506 5813 	add.w	r8, r6, #9408	@ 0x24c0
10001ef4:	f506 5709 	add.w	r7, r6, #8768	@ 0x2240
10001ef8:	f506 5b13 	add.w	fp, r6, #9408	@ 0x24c0
10001efc:	f8df 9018 	ldr.w	r9, [pc, #24]	@ 10001f18 <_ZN4Game6renderEv+0x490>
10001f00:	f108 0803 	add.w	r8, r8, #3
10001f04:	3704      	adds	r7, #4
10001f06:	f10b 0b17 	add.w	fp, fp, #23
10001f0a:	e016      	b.n	10001f3a <_ZN4Game6renderEv+0x4b2>
10001f0c:	ff0000ff 	.word	0xff0000ff
10001f10:	ff0080ff 	.word	0xff0080ff
10001f14:	ffff0080 	.word	0xffff0080
10001f18:	ff00c8ff 	.word	0xff00c8ff
10001f1c:	2308      	movs	r3, #8
10001f1e:	f04f 0e00 	mov.w	lr, #0
10001f22:	69ba      	ldr	r2, [r7, #24]
10001f24:	e9cd 3500 	strd	r3, r5, [sp]
10001f28:	f8cd e008 	str.w	lr, [sp, #8]
10001f2c:	f8dc a024 	ldr.w	sl, [ip, #36]	@ 0x24
10001f30:	47d0      	blx	sl
10001f32:	45d8      	cmp	r8, fp
10001f34:	f107 0720 	add.w	r7, r7, #32
10001f38:	d034      	beq.n	10001fa4 <_ZN4Game6renderEv+0x51c>
10001f3a:	f818 3f01 	ldrb.w	r3, [r8, #1]!
10001f3e:	2b00      	cmp	r3, #0
10001f40:	d0f7      	beq.n	10001f32 <_ZN4Game6renderEv+0x4aa>
10001f42:	4639      	mov	r1, r7
10001f44:	4628      	mov	r0, r5
10001f46:	f000 fb85 	bl	10002654 <_ZNK10Projectile11getColliderEv>
10001f4a:	eef0 7a68 	vmov.f32	s15, s17
10001f4e:	eefe 7ac8 	vcvt.s32.f32	s15, s15, #16
10001f52:	ee17 ea90 	vmov	lr, s15
10001f56:	eef0 7a48 	vmov.f32	s15, s16
10001f5a:	eefe 7ac8 	vcvt.s32.f32	s15, s15, #16
10001f5e:	f8d4 3fa4 	ldr.w	r3, [r4, #4004]	@ 0xfa4
10001f62:	7d78      	ldrb	r0, [r7, #21]
10001f64:	f8d4 1fa0 	ldr.w	r1, [r4, #4000]	@ 0xfa0
10001f68:	ee17 aa90 	vmov	sl, s15
10001f6c:	2800      	cmp	r0, #0
10001f6e:	bf18      	it	ne
10001f70:	4619      	movne	r1, r3
10001f72:	9b14      	ldr	r3, [sp, #80]	@ 0x50
10001f74:	6830      	ldr	r0, [r6, #0]
10001f76:	eba3 0e0e 	sub.w	lr, r3, lr
10001f7a:	9b15      	ldr	r3, [sp, #84]	@ 0x54
10001f7c:	2900      	cmp	r1, #0
10001f7e:	eba3 030a 	sub.w	r3, r3, sl
10001f82:	f8d0 c000 	ldr.w	ip, [r0]
10001f86:	4aa9      	ldr	r2, [pc, #676]	@ (1000222c <_ZN4Game6renderEv+0x7a4>)
10001f88:	e9cd e314 	strd	lr, r3, [sp, #80]	@ 0x50
10001f8c:	dac6      	bge.n	10001f1c <_ZN4Game6renderEv+0x494>
10001f8e:	f8dc a014 	ldr.w	sl, [ip, #20]
10001f92:	2301      	movs	r3, #1
10001f94:	4629      	mov	r1, r5
10001f96:	f8cd 9040 	str.w	r9, [sp, #64]	@ 0x40
10001f9a:	47d0      	blx	sl
10001f9c:	45d8      	cmp	r8, fp
10001f9e:	f107 0720 	add.w	r7, r7, #32
10001fa2:	d1ca      	bne.n	10001f3a <_ZN4Game6renderEv+0x4b2>
10001fa4:	f106 0110 	add.w	r1, r6, #16
10001fa8:	a80c      	add	r0, sp, #48	@ 0x30
10001faa:	f000 f9d1 	bl	10002350 <_ZNK6Player11getColliderEv>
10001fae:	eefe 8ac8 	vcvt.s32.f32	s17, s17, #16
10001fb2:	eebe 8ac8 	vcvt.s32.f32	s16, s16, #16
10001fb6:	ee18 2a90 	vmov	r2, s17
10001fba:	9b0c      	ldr	r3, [sp, #48]	@ 0x30
10001fbc:	f8d4 1f9c 	ldr.w	r1, [r4, #3996]	@ 0xf9c
10001fc0:	1a9b      	subs	r3, r3, r2
10001fc2:	ee18 2a10 	vmov	r2, s16
10001fc6:	930c      	str	r3, [sp, #48]	@ 0x30
10001fc8:	9b0d      	ldr	r3, [sp, #52]	@ 0x34
10001fca:	6830      	ldr	r0, [r6, #0]
10001fcc:	1a9b      	subs	r3, r3, r2
10001fce:	2900      	cmp	r1, #0
10001fd0:	6807      	ldr	r7, [r0, #0]
10001fd2:	930d      	str	r3, [sp, #52]	@ 0x34
10001fd4:	f2c0 80d3 	blt.w	1000217e <_ZN4Game6renderEv+0x6f6>
10001fd8:	ab0c      	add	r3, sp, #48	@ 0x30
10001fda:	9301      	str	r3, [sp, #4]
10001fdc:	2310      	movs	r3, #16
10001fde:	f896 2030 	ldrb.w	r2, [r6, #48]	@ 0x30
10001fe2:	f3c2 02c0 	ubfx	r2, r2, #3, #1
10001fe6:	f082 0201 	eor.w	r2, r2, #1
10001fea:	b2d2      	uxtb	r2, r2
10001fec:	9202      	str	r2, [sp, #8]
10001fee:	6ab2      	ldr	r2, [r6, #40]	@ 0x28
10001ff0:	9300      	str	r3, [sp, #0]
10001ff2:	6a7f      	ldr	r7, [r7, #36]	@ 0x24
10001ff4:	47b8      	blx	r7
10001ff6:	f8d4 1fbc 	ldr.w	r1, [r4, #4028]	@ 0xfbc
10001ffa:	6830      	ldr	r0, [r6, #0]
10001ffc:	2900      	cmp	r1, #0
10001ffe:	6807      	ldr	r7, [r0, #0]
10002000:	f2c0 80ad 	blt.w	1000215e <_ZN4Game6renderEv+0x6d6>
10002004:	2200      	movs	r2, #0
10002006:	2310      	movs	r3, #16
10002008:	f44f 2e10 	mov.w	lr, #589824	@ 0x90000
1000200c:	f44f 1c80 	mov.w	ip, #1048576	@ 0x100000
10002010:	9501      	str	r5, [sp, #4]
10002012:	9202      	str	r2, [sp, #8]
10002014:	9300      	str	r3, [sp, #0]
10002016:	6a7f      	ldr	r7, [r7, #36]	@ 0x24
10002018:	e9cd ee14 	strd	lr, lr, [sp, #80]	@ 0x50
1000201c:	e9cd cc16 	strd	ip, ip, [sp, #88]	@ 0x58
10002020:	47b8      	blx	r7
10002022:	f04f 37ff 	mov.w	r7, #4294967295
10002026:	2108      	movs	r1, #8
10002028:	f896 3020 	ldrb.w	r3, [r6, #32]
1000202c:	4a80      	ldr	r2, [pc, #512]	@ (10002230 <_ZN4Game6renderEv+0x7a8>)
1000202e:	a80a      	add	r0, sp, #40	@ 0x28
10002030:	f006 fb7e 	bl	10008730 <__wrap_snprintf>
10002034:	6830      	ldr	r0, [r6, #0]
10002036:	2309      	movs	r3, #9
10002038:	f8d0 c000 	ldr.w	ip, [r0]
1000203c:	221c      	movs	r2, #28
1000203e:	f8dc 8028 	ldr.w	r8, [ip, #40]	@ 0x28
10002042:	a90a      	add	r1, sp, #40	@ 0x28
10002044:	9714      	str	r7, [sp, #80]	@ 0x50
10002046:	9700      	str	r7, [sp, #0]
10002048:	47c0      	blx	r8
1000204a:	f04f 4350 	mov.w	r3, #3489660928	@ 0xd0000000
1000204e:	685b      	ldr	r3, [r3, #4]
10002050:	2140      	movs	r1, #64	@ 0x40
10002052:	f3c3 3380 	ubfx	r3, r3, #14, #1
10002056:	4628      	mov	r0, r5
10002058:	4a76      	ldr	r2, [pc, #472]	@ (10002234 <_ZN4Game6renderEv+0x7ac>)
1000205a:	f083 0301 	eor.w	r3, r3, #1
1000205e:	f006 fb67 	bl	10008730 <__wrap_snprintf>
10002062:	2302      	movs	r3, #2
10002064:	6830      	ldr	r0, [r6, #0]
10002066:	4629      	mov	r1, r5
10002068:	6802      	ldr	r2, [r0, #0]
1000206a:	6a95      	ldr	r5, [r2, #40]	@ 0x28
1000206c:	461a      	mov	r2, r3
1000206e:	9710      	str	r7, [sp, #64]	@ 0x40
10002070:	9700      	str	r7, [sp, #0]
10002072:	47a8      	blx	r5
10002074:	f894 3ebc 	ldrb.w	r3, [r4, #3772]	@ 0xebc
10002078:	2b00      	cmp	r3, #0
1000207a:	d14a      	bne.n	10002112 <_ZN4Game6renderEv+0x68a>
1000207c:	f506 5540 	add.w	r5, r6, #12288	@ 0x3000
10002080:	f895 3031 	ldrb.w	r3, [r5, #49]	@ 0x31
10002084:	2b00      	cmp	r3, #0
10002086:	d02e      	beq.n	100020e6 <_ZN4Game6renderEv+0x65e>
10002088:	f44f 1380 	mov.w	r3, #1048576	@ 0x100000
1000208c:	f44f 113c 	mov.w	r1, #3080192	@ 0x2f0000
10002090:	f44f 2700 	mov.w	r7, #524288	@ 0x80000
10002094:	6830      	ldr	r0, [r6, #0]
10002096:	4a68      	ldr	r2, [pc, #416]	@ (10002238 <_ZN4Game6renderEv+0x7b0>)
10002098:	6805      	ldr	r5, [r0, #0]
1000209a:	696d      	ldr	r5, [r5, #20]
1000209c:	e9cd 7110 	strd	r7, r1, [sp, #64]	@ 0x40
100020a0:	e9cd 3312 	strd	r3, r3, [sp, #72]	@ 0x48
100020a4:	9209      	str	r2, [sp, #36]	@ 0x24
100020a6:	2301      	movs	r3, #1
100020a8:	a910      	add	r1, sp, #64	@ 0x40
100020aa:	47a8      	blx	r5
100020ac:	f894 3f00 	ldrb.w	r3, [r4, #3840]	@ 0xf00
100020b0:	2b00      	cmp	r3, #0
100020b2:	d141      	bne.n	10002138 <_ZN4Game6renderEv+0x6b0>
100020b4:	f894 3f01 	ldrb.w	r3, [r4, #3841]	@ 0xf01
100020b8:	b11b      	cbz	r3, 100020c2 <_ZN4Game6renderEv+0x63a>
100020ba:	f894 3ee4 	ldrb.w	r3, [r4, #3812]	@ 0xee4
100020be:	2b00      	cmp	r3, #0
100020c0:	d13e      	bne.n	10002140 <_ZN4Game6renderEv+0x6b8>
100020c2:	f894 3f02 	ldrb.w	r3, [r4, #3842]	@ 0xf02
100020c6:	b11b      	cbz	r3, 100020d0 <_ZN4Game6renderEv+0x648>
100020c8:	f894 3ef8 	ldrb.w	r3, [r4, #3832]	@ 0xef8
100020cc:	2b00      	cmp	r3, #0
100020ce:	d137      	bne.n	10002140 <_ZN4Game6renderEv+0x6b8>
100020d0:	495a      	ldr	r1, [pc, #360]	@ (1000223c <_ZN4Game6renderEv+0x7b4>)
100020d2:	f04f 34ff 	mov.w	r4, #4294967295
100020d6:	6830      	ldr	r0, [r6, #0]
100020d8:	221c      	movs	r2, #28
100020da:	6803      	ldr	r3, [r0, #0]
100020dc:	9409      	str	r4, [sp, #36]	@ 0x24
100020de:	6a9d      	ldr	r5, [r3, #40]	@ 0x28
100020e0:	232f      	movs	r3, #47	@ 0x2f
100020e2:	9400      	str	r4, [sp, #0]
100020e4:	47a8      	blx	r5
100020e6:	6830      	ldr	r0, [r6, #0]
100020e8:	6803      	ldr	r3, [r0, #0]
100020ea:	68db      	ldr	r3, [r3, #12]
100020ec:	4798      	blx	r3
100020ee:	b025      	add	sp, #148	@ 0x94
100020f0:	ecbd 8b02 	vpop	{d8}
100020f4:	e8bd 8ff0 	ldmia.w	sp!, {r4, r5, r6, r7, r8, r9, sl, fp, pc}
100020f8:	f06f 02ff 	mvn.w	r2, #255	@ 0xff
100020fc:	f8dc 9014 	ldr.w	r9, [ip, #20]
10002100:	2301      	movs	r3, #1
10002102:	4629      	mov	r1, r5
10002104:	9210      	str	r2, [sp, #64]	@ 0x40
10002106:	3758      	adds	r7, #88	@ 0x58
10002108:	47c8      	blx	r9
1000210a:	45b8      	cmp	r8, r7
1000210c:	f47f ad4f 	bne.w	10001bae <_ZN4Game6renderEv+0x126>
10002110:	e570      	b.n	10001bf4 <_ZN4Game6renderEv+0x16c>
10002112:	f8d4 3eb4 	ldr.w	r3, [r4, #3764]	@ 0xeb4
10002116:	2b05      	cmp	r3, #5
10002118:	d872      	bhi.n	10002200 <_ZN4Game6renderEv+0x778>
1000211a:	e8df f003 	tbb	[pc, r3]
1000211e:	6337      	.short	0x6337
10002120:	606c6966 	.word	0x606c6966
10002124:	f8d4 3eb4 	ldr.w	r3, [r4, #3764]	@ 0xeb4
10002128:	2b05      	cmp	r3, #5
1000212a:	f200 80a6 	bhi.w	1000227a <_ZN4Game6renderEv+0x7f2>
1000212e:	e8df f003 	tbb	[pc, r3]
10002132:	9e9b      	.short	0x9e9b
10002134:	989589a1 	.word	0x989589a1
10002138:	f894 3ed0 	ldrb.w	r3, [r4, #3792]	@ 0xed0
1000213c:	2b00      	cmp	r3, #0
1000213e:	d0b9      	beq.n	100020b4 <_ZN4Game6renderEv+0x62c>
10002140:	493f      	ldr	r1, [pc, #252]	@ (10002240 <_ZN4Game6renderEv+0x7b8>)
10002142:	e7c6      	b.n	100020d2 <_ZN4Game6renderEv+0x64a>
10002144:	9b05      	ldr	r3, [sp, #20]
10002146:	f506 503a 	add.w	r0, r6, #11904	@ 0x2e80
1000214a:	9300      	str	r3, [sp, #0]
1000214c:	f8d4 2fc0 	ldr.w	r2, [r4, #4032]	@ 0xfc0
10002150:	4653      	mov	r3, sl
10002152:	6831      	ldr	r1, [r6, #0]
10002154:	3010      	adds	r0, #16
10002156:	f001 f9d7 	bl	10003508 <_ZNK10HealthPack6renderEP9IRendereriii>
1000215a:	2300      	movs	r3, #0
1000215c:	e66d      	b.n	10001e3a <_ZN4Game6renderEv+0x3b2>
1000215e:	f8d7 8014 	ldr.w	r8, [r7, #20]
10002162:	f44f 2c10 	mov.w	ip, #589824	@ 0x90000
10002166:	f44f 1780 	mov.w	r7, #1048576	@ 0x100000
1000216a:	4a33      	ldr	r2, [pc, #204]	@ (10002238 <_ZN4Game6renderEv+0x7b0>)
1000216c:	2301      	movs	r3, #1
1000216e:	4629      	mov	r1, r5
10002170:	e9cd cc14 	strd	ip, ip, [sp, #80]	@ 0x50
10002174:	e9cd 7716 	strd	r7, r7, [sp, #88]	@ 0x58
10002178:	9210      	str	r2, [sp, #64]	@ 0x40
1000217a:	47c0      	blx	r8
1000217c:	e751      	b.n	10002022 <_ZN4Game6renderEv+0x59a>
1000217e:	4a2e      	ldr	r2, [pc, #184]	@ (10002238 <_ZN4Game6renderEv+0x7b0>)
10002180:	697f      	ldr	r7, [r7, #20]
10002182:	2301      	movs	r3, #1
10002184:	a90c      	add	r1, sp, #48	@ 0x30
10002186:	9214      	str	r2, [sp, #80]	@ 0x50
10002188:	47b8      	blx	r7
1000218a:	e734      	b.n	10001ff6 <_ZN4Game6renderEv+0x56e>
1000218c:	f8d4 1fc8 	ldr.w	r1, [r4, #4040]	@ 0xfc8
10002190:	f44f 1380 	mov.w	r3, #1048576	@ 0x100000
10002194:	f44f 2200 	mov.w	r2, #524288	@ 0x80000
10002198:	f44f 10e0 	mov.w	r0, #1835008	@ 0x1c0000
1000219c:	2900      	cmp	r1, #0
1000219e:	e9cd 2010 	strd	r2, r0, [sp, #64]	@ 0x40
100021a2:	e9cd 3312 	strd	r3, r3, [sp, #72]	@ 0x48
100021a6:	db35      	blt.n	10002214 <_ZN4Game6renderEv+0x78c>
100021a8:	2200      	movs	r2, #0
100021aa:	2310      	movs	r3, #16
100021ac:	6830      	ldr	r0, [r6, #0]
100021ae:	af10      	add	r7, sp, #64	@ 0x40
100021b0:	6805      	ldr	r5, [r0, #0]
100021b2:	e9cd 7201 	strd	r7, r2, [sp, #4]
100021b6:	9300      	str	r3, [sp, #0]
100021b8:	6a6d      	ldr	r5, [r5, #36]	@ 0x24
100021ba:	47a8      	blx	r5
100021bc:	f506 5540 	add.w	r5, r6, #12288	@ 0x3000
100021c0:	f895 3030 	ldrb.w	r3, [r5, #48]	@ 0x30
100021c4:	b1d3      	cbz	r3, 100021fc <_ZN4Game6renderEv+0x774>
100021c6:	491d      	ldr	r1, [pc, #116]	@ (1000223c <_ZN4Game6renderEv+0x7b4>)
100021c8:	f04f 32ff 	mov.w	r2, #4294967295
100021cc:	231c      	movs	r3, #28
100021ce:	6830      	ldr	r0, [r6, #0]
100021d0:	9209      	str	r2, [sp, #36]	@ 0x24
100021d2:	6807      	ldr	r7, [r0, #0]
100021d4:	6abf      	ldr	r7, [r7, #40]	@ 0x28
100021d6:	9200      	str	r2, [sp, #0]
100021d8:	461a      	mov	r2, r3
100021da:	47b8      	blx	r7
100021dc:	e750      	b.n	10002080 <_ZN4Game6renderEv+0x5f8>
100021de:	f8d4 1fdc 	ldr.w	r1, [r4, #4060]	@ 0xfdc
100021e2:	e7d5      	b.n	10002190 <_ZN4Game6renderEv+0x708>
100021e4:	f8d4 1fcc 	ldr.w	r1, [r4, #4044]	@ 0xfcc
100021e8:	e7d2      	b.n	10002190 <_ZN4Game6renderEv+0x708>
100021ea:	f8d4 1fd0 	ldr.w	r1, [r4, #4048]	@ 0xfd0
100021ee:	e7cf      	b.n	10002190 <_ZN4Game6renderEv+0x708>
100021f0:	f8d4 1fd4 	ldr.w	r1, [r4, #4052]	@ 0xfd4
100021f4:	e7cc      	b.n	10002190 <_ZN4Game6renderEv+0x708>
100021f6:	f8d4 1fd8 	ldr.w	r1, [r4, #4056]	@ 0xfd8
100021fa:	e7c9      	b.n	10002190 <_ZN4Game6renderEv+0x708>
100021fc:	4910      	ldr	r1, [pc, #64]	@ (10002240 <_ZN4Game6renderEv+0x7b8>)
100021fe:	e7e3      	b.n	100021c8 <_ZN4Game6renderEv+0x740>
10002200:	f44f 2100 	mov.w	r1, #524288	@ 0x80000
10002204:	f44f 12e0 	mov.w	r2, #1835008	@ 0x1c0000
10002208:	f44f 1380 	mov.w	r3, #1048576	@ 0x100000
1000220c:	e9cd 1210 	strd	r1, r2, [sp, #64]	@ 0x40
10002210:	9312      	str	r3, [sp, #72]	@ 0x48
10002212:	9313      	str	r3, [sp, #76]	@ 0x4c
10002214:	f46f 027f 	mvn.w	r2, #16711680	@ 0xff0000
10002218:	6830      	ldr	r0, [r6, #0]
1000221a:	a910      	add	r1, sp, #64	@ 0x40
1000221c:	6803      	ldr	r3, [r0, #0]
1000221e:	9209      	str	r2, [sp, #36]	@ 0x24
10002220:	695d      	ldr	r5, [r3, #20]
10002222:	2301      	movs	r3, #1
10002224:	47a8      	blx	r5
10002226:	e7c9      	b.n	100021bc <_ZN4Game6renderEv+0x734>
10002228:	ad14      	add	r5, sp, #80	@ 0x50
1000222a:	e4e4      	b.n	10001bf6 <_ZN4Game6renderEv+0x16e>
1000222c:	ff00c8ff 	.word	0xff00c8ff
10002230:	1000d7b0 	.word	0x1000d7b0
10002234:	1000d7b4 	.word	0x1000d7b4
10002238:	ff0000ff 	.word	0xff0000ff
1000223c:	1000d7a8 	.word	0x1000d7a8
10002240:	1000d7ac 	.word	0x1000d7ac
10002244:	f8d4 2fd4 	ldr.w	r2, [r4, #4052]	@ 0xfd4
10002248:	9b05      	ldr	r3, [sp, #20]
1000224a:	f506 503a 	add.w	r0, r6, #11904	@ 0x2e80
1000224e:	9300      	str	r3, [sp, #0]
10002250:	6831      	ldr	r1, [r6, #0]
10002252:	4653      	mov	r3, sl
10002254:	302c      	adds	r0, #44	@ 0x2c
10002256:	f001 f9b1 	bl	100035bc <_ZNK9Objective6renderEP9IRendereriii>
1000225a:	e5f7      	b.n	10001e4c <_ZN4Game6renderEv+0x3c4>
1000225c:	f8d4 2fd8 	ldr.w	r2, [r4, #4056]	@ 0xfd8
10002260:	e7f2      	b.n	10002248 <_ZN4Game6renderEv+0x7c0>
10002262:	f8d4 2fdc 	ldr.w	r2, [r4, #4060]	@ 0xfdc
10002266:	e7ef      	b.n	10002248 <_ZN4Game6renderEv+0x7c0>
10002268:	f8d4 2fc8 	ldr.w	r2, [r4, #4040]	@ 0xfc8
1000226c:	e7ec      	b.n	10002248 <_ZN4Game6renderEv+0x7c0>
1000226e:	f8d4 2fcc 	ldr.w	r2, [r4, #4044]	@ 0xfcc
10002272:	e7e9      	b.n	10002248 <_ZN4Game6renderEv+0x7c0>
10002274:	f8d4 2fd0 	ldr.w	r2, [r4, #4048]	@ 0xfd0
10002278:	e7e6      	b.n	10002248 <_ZN4Game6renderEv+0x7c0>
1000227a:	f04f 32ff 	mov.w	r2, #4294967295
1000227e:	e7e3      	b.n	10002248 <_ZN4Game6renderEv+0x7c0>

10002280 <_ZN6PlayerC1Ev>:
10002280:	b470      	push	{r4, r5, r6}
10002282:	f44f 04c8 	mov.w	r4, #6553600	@ 0x640000
10002286:	2503      	movs	r5, #3
10002288:	2200      	movs	r2, #0
1000228a:	2601      	movs	r6, #1
1000228c:	2100      	movs	r1, #0
1000228e:	f04f 0c08 	mov.w	ip, #8
10002292:	e9c0 4400 	strd	r4, r4, [r0]
10002296:	6186      	str	r6, [r0, #24]
10002298:	6105      	str	r5, [r0, #16]
1000229a:	e9c0 1102 	strd	r1, r1, [r0, #8]
1000229e:	bc70      	pop	{r4, r5, r6}
100022a0:	f880 c020 	strb.w	ip, [r0, #32]
100022a4:	6142      	str	r2, [r0, #20]
100022a6:	61c2      	str	r2, [r0, #28]
100022a8:	4770      	bx	lr
100022aa:	bf00      	nop

100022ac <_ZN6Player6updateEf>:
100022ac:	ed90 7a05 	vldr	s14, [r0, #20]
100022b0:	e9d0 2302 	ldrd	r2, r3, [r0, #8]
100022b4:	eeb5 7ac0 	vcmpe.f32	s14, #0.0
100022b8:	ee07 1a90 	vmov	s15, r1
100022bc:	eef1 fa10 	vmrs	APSR_nzcv, fpscr
100022c0:	bfc4      	itt	gt
100022c2:	ee37 7a67 	vsubgt.f32	s14, s14, s15
100022c6:	ed80 7a05 	vstrgt	s14, [r0, #20]
100022ca:	2a00      	cmp	r2, #0
100022cc:	f503 1348 	add.w	r3, r3, #3276800	@ 0x320000
100022d0:	dd0d      	ble.n	100022ee <_ZN6Player6updateEf+0x42>
100022d2:	f890 2020 	ldrb.w	r2, [r0, #32]
100022d6:	f5b3 0fc8 	cmp.w	r3, #6553600	@ 0x640000
100022da:	f042 0208 	orr.w	r2, r2, #8
100022de:	f880 2020 	strb.w	r2, [r0, #32]
100022e2:	d90e      	bls.n	10002302 <_ZN6Player6updateEf+0x56>
100022e4:	2205      	movs	r2, #5
100022e6:	2300      	movs	r3, #0
100022e8:	6182      	str	r2, [r0, #24]
100022ea:	61c3      	str	r3, [r0, #28]
100022ec:	4770      	bx	lr
100022ee:	d025      	beq.n	1000233c <_ZN6Player6updateEf+0x90>
100022f0:	f890 2020 	ldrb.w	r2, [r0, #32]
100022f4:	f5b3 0fc8 	cmp.w	r3, #6553600	@ 0x640000
100022f8:	f022 0208 	bic.w	r2, r2, #8
100022fc:	f880 2020 	strb.w	r2, [r0, #32]
10002300:	d8f0      	bhi.n	100022e4 <_ZN6Player6updateEf+0x38>
10002302:	edd0 6a07 	vldr	s13, [r0, #28]
10002306:	ed9f 7a10 	vldr	s14, [pc, #64]	@ 10002348 <_ZN6Player6updateEf+0x9c>
1000230a:	ee77 7aa6 	vadd.f32	s15, s15, s13
1000230e:	eef4 7ac7 	vcmpe.f32	s15, s14
10002312:	eef1 fa10 	vmrs	APSR_nzcv, fpscr
10002316:	db0e      	blt.n	10002336 <_ZN6Player6updateEf+0x8a>
10002318:	ee77 7ac7 	vsub.f32	s15, s15, s14
1000231c:	6983      	ldr	r3, [r0, #24]
1000231e:	490b      	ldr	r1, [pc, #44]	@ (1000234c <_ZN6Player6updateEf+0xa0>)
10002320:	3301      	adds	r3, #1
10002322:	fb81 2103 	smull	r2, r1, r1, r3
10002326:	17da      	asrs	r2, r3, #31
10002328:	ebc2 0261 	rsb	r2, r2, r1, asr #1
1000232c:	eb02 0242 	add.w	r2, r2, r2, lsl #1
10002330:	eba3 0382 	sub.w	r3, r3, r2, lsl #2
10002334:	6183      	str	r3, [r0, #24]
10002336:	edc0 7a07 	vstr	s15, [r0, #28]
1000233a:	4770      	bx	lr
1000233c:	2201      	movs	r2, #1
1000233e:	2300      	movs	r3, #0
10002340:	6182      	str	r2, [r0, #24]
10002342:	61c3      	str	r3, [r0, #28]
10002344:	4770      	bx	lr
10002346:	bf00      	nop
10002348:	3d63bcd3 	.word	0x3d63bcd3
1000234c:	2aaaaaab 	.word	0x2aaaaaab

10002350 <_ZNK6Player11getColliderEv>:
10002350:	f44f 1280 	mov.w	r2, #1048576	@ 0x100000
10002354:	b410      	push	{r4}
10002356:	680c      	ldr	r4, [r1, #0]
10002358:	6849      	ldr	r1, [r1, #4]
1000235a:	6004      	str	r4, [r0, #0]
1000235c:	e9c0 1201 	strd	r1, r2, [r0, #4]
10002360:	f85d 4b04 	ldr.w	r4, [sp], #4
10002364:	60c2      	str	r2, [r0, #12]
10002366:	4770      	bx	lr

10002368 <_ZN16PlayerControllerC1Ev>:
10002368:	2200      	movs	r2, #0
1000236a:	2100      	movs	r1, #0
1000236c:	6002      	str	r2, [r0, #0]
1000236e:	6042      	str	r2, [r0, #4]
10002370:	6081      	str	r1, [r0, #8]
10002372:	60c2      	str	r2, [r0, #12]
10002374:	6102      	str	r2, [r0, #16]
10002376:	4770      	bx	lr

10002378 <_ZN16PlayerController17handleDropThroughER6PlayerP6IInputf>:
10002378:	b570      	push	{r4, r5, r6, lr}
1000237a:	ed2d 8b02 	vpush	{d8}
1000237e:	ee08 3a10 	vmov	s16, r3
10002382:	6813      	ldr	r3, [r2, #0]
10002384:	460d      	mov	r5, r1
10002386:	4606      	mov	r6, r0
10002388:	2103      	movs	r1, #3
1000238a:	4610      	mov	r0, r2
1000238c:	68db      	ldr	r3, [r3, #12]
1000238e:	4614      	mov	r4, r2
10002390:	4798      	blx	r3
10002392:	b118      	cbz	r0, 1000239c <_ZN16PlayerController17handleDropThroughER6PlayerP6IInputf+0x24>
10002394:	f895 3020 	ldrb.w	r3, [r5, #32]
10002398:	07da      	lsls	r2, r3, #31
1000239a:	d426      	bmi.n	100023ea <_ZN16PlayerController17handleDropThroughER6PlayerP6IInputf+0x72>
1000239c:	6823      	ldr	r3, [r4, #0]
1000239e:	2103      	movs	r1, #3
100023a0:	68db      	ldr	r3, [r3, #12]
100023a2:	4620      	mov	r0, r4
100023a4:	4798      	blx	r3
100023a6:	f895 3020 	ldrb.w	r3, [r5, #32]
100023aa:	f003 0202 	and.w	r2, r3, #2
100023ae:	b118      	cbz	r0, 100023b8 <_ZN16PlayerController17handleDropThroughER6PlayerP6IInputf+0x40>
100023b0:	b11a      	cbz	r2, 100023ba <_ZN16PlayerController17handleDropThroughER6PlayerP6IInputf+0x42>
100023b2:	eddf 7a14 	vldr	s15, [pc, #80]	@ 10002404 <_ZN16PlayerController17handleDropThroughER6PlayerP6IInputf+0x8c>
100023b6:	e005      	b.n	100023c4 <_ZN16PlayerController17handleDropThroughER6PlayerP6IInputf+0x4c>
100023b8:	b912      	cbnz	r2, 100023c0 <_ZN16PlayerController17handleDropThroughER6PlayerP6IInputf+0x48>
100023ba:	ecbd 8b02 	vpop	{d8}
100023be:	bd70      	pop	{r4, r5, r6, pc}
100023c0:	edd6 7a03 	vldr	s15, [r6, #12]
100023c4:	ee77 7ac8 	vsub.f32	s15, s15, s16
100023c8:	eef5 7ac0 	vcmpe.f32	s15, #0.0
100023cc:	eef1 fa10 	vmrs	APSR_nzcv, fpscr
100023d0:	f04f 0200 	mov.w	r2, #0
100023d4:	edc6 7a03 	vstr	s15, [r6, #12]
100023d8:	d8ef      	bhi.n	100023ba <_ZN16PlayerController17handleDropThroughER6PlayerP6IInputf+0x42>
100023da:	f023 0302 	bic.w	r3, r3, #2
100023de:	f885 3020 	strb.w	r3, [r5, #32]
100023e2:	ecbd 8b02 	vpop	{d8}
100023e6:	60f2      	str	r2, [r6, #12]
100023e8:	bd70      	pop	{r4, r5, r6, pc}
100023ea:	f023 0301 	bic.w	r3, r3, #1
100023ee:	f043 0302 	orr.w	r3, r3, #2
100023f2:	f885 3020 	strb.w	r3, [r5, #32]
100023f6:	f44f 1348 	mov.w	r3, #3276800	@ 0x320000
100023fa:	4a03      	ldr	r2, [pc, #12]	@ (10002408 <_ZN16PlayerController17handleDropThroughER6PlayerP6IInputf+0x90>)
100023fc:	60f2      	str	r2, [r6, #12]
100023fe:	60eb      	str	r3, [r5, #12]
10002400:	e7cc      	b.n	1000239c <_ZN16PlayerController17handleDropThroughER6PlayerP6IInputf+0x24>
10002402:	bf00      	nop
10002404:	3e4ccccd 	.word	0x3e4ccccd
10002408:	3e4ccccd 	.word	0x3e4ccccd

1000240c <_ZN16PlayerController6updateER6PlayerP6IInputf>:
1000240c:	b570      	push	{r4, r5, r6, lr}
1000240e:	ed2d 8b02 	vpush	{d8}
10002412:	ee08 3a10 	vmov	s16, r3
10002416:	6813      	ldr	r3, [r2, #0]
10002418:	460e      	mov	r6, r1
1000241a:	4604      	mov	r4, r0
1000241c:	2100      	movs	r1, #0
1000241e:	4610      	mov	r0, r2
10002420:	68db      	ldr	r3, [r3, #12]
10002422:	4615      	mov	r5, r2
10002424:	4798      	blx	r3
10002426:	2800      	cmp	r0, #0
10002428:	d162      	bne.n	100024f0 <_ZN16PlayerController6updateER6PlayerP6IInputf+0xe4>
1000242a:	682b      	ldr	r3, [r5, #0]
1000242c:	2101      	movs	r1, #1
1000242e:	68db      	ldr	r3, [r3, #12]
10002430:	4628      	mov	r0, r5
10002432:	4798      	blx	r3
10002434:	2800      	cmp	r0, #0
10002436:	bf14      	ite	ne
10002438:	f44f 0216 	movne.w	r2, #9830400	@ 0x960000
1000243c:	2200      	moveq	r2, #0
1000243e:	f896 3020 	ldrb.w	r3, [r6, #32]
10002442:	60b2      	str	r2, [r6, #8]
10002444:	f013 0301 	ands.w	r3, r3, #1
10002448:	d059      	beq.n	100024fe <_ZN16PlayerController6updateER6PlayerP6IInputf+0xf2>
1000244a:	2301      	movs	r3, #1
1000244c:	4a44      	ldr	r2, [pc, #272]	@ (10002560 <_ZN16PlayerController6updateER6PlayerP6IInputf+0x154>)
1000244e:	7223      	strb	r3, [r4, #8]
10002450:	6062      	str	r2, [r4, #4]
10002452:	682b      	ldr	r3, [r5, #0]
10002454:	2102      	movs	r1, #2
10002456:	691b      	ldr	r3, [r3, #16]
10002458:	4628      	mov	r0, r5
1000245a:	4798      	blx	r3
1000245c:	f896 3020 	ldrb.w	r3, [r6, #32]
10002460:	f003 0201 	and.w	r2, r3, #1
10002464:	2800      	cmp	r0, #0
10002466:	d05b      	beq.n	10002520 <_ZN16PlayerController6updateER6PlayerP6IInputf+0x114>
10002468:	493e      	ldr	r1, [pc, #248]	@ (10002564 <_ZN16PlayerController6updateER6PlayerP6IInputf+0x158>)
1000246a:	6021      	str	r1, [r4, #0]
1000246c:	2a00      	cmp	r2, #0
1000246e:	d06d      	beq.n	1000254c <_ZN16PlayerController6updateER6PlayerP6IInputf+0x140>
10002470:	4a3d      	ldr	r2, [pc, #244]	@ (10002568 <_ZN16PlayerController6updateER6PlayerP6IInputf+0x15c>)
10002472:	f023 0301 	bic.w	r3, r3, #1
10002476:	60f2      	str	r2, [r6, #12]
10002478:	2200      	movs	r2, #0
1000247a:	f886 3020 	strb.w	r3, [r6, #32]
1000247e:	6022      	str	r2, [r4, #0]
10002480:	6062      	str	r2, [r4, #4]
10002482:	ee18 3a10 	vmov	r3, s16
10002486:	462a      	mov	r2, r5
10002488:	4631      	mov	r1, r6
1000248a:	4620      	mov	r0, r4
1000248c:	f7ff ff74 	bl	10002378 <_ZN16PlayerController17handleDropThroughER6PlayerP6IInputf>
10002490:	f896 3020 	ldrb.w	r3, [r6, #32]
10002494:	2200      	movs	r2, #0
10002496:	f023 0304 	bic.w	r3, r3, #4
1000249a:	f886 3020 	strb.w	r3, [r6, #32]
1000249e:	edd4 7a04 	vldr	s15, [r4, #16]
100024a2:	eef5 7ac0 	vcmpe.f32	s15, #0.0
100024a6:	eef1 fa10 	vmrs	APSR_nzcv, fpscr
100024aa:	dd09      	ble.n	100024c0 <_ZN16PlayerController6updateER6PlayerP6IInputf+0xb4>
100024ac:	ee77 7ac8 	vsub.f32	s15, s15, s16
100024b0:	eef5 7ac0 	vcmpe.f32	s15, #0.0
100024b4:	eef1 fa10 	vmrs	APSR_nzcv, fpscr
100024b8:	bf54      	ite	pl
100024ba:	edc4 7a04 	vstrpl	s15, [r4, #16]
100024be:	6122      	strmi	r2, [r4, #16]
100024c0:	682b      	ldr	r3, [r5, #0]
100024c2:	2105      	movs	r1, #5
100024c4:	4628      	mov	r0, r5
100024c6:	691b      	ldr	r3, [r3, #16]
100024c8:	4798      	blx	r3
100024ca:	b170      	cbz	r0, 100024ea <_ZN16PlayerController6updateER6PlayerP6IInputf+0xde>
100024cc:	edd4 7a04 	vldr	s15, [r4, #16]
100024d0:	eef5 7ac0 	vcmpe.f32	s15, #0.0
100024d4:	eef1 fa10 	vmrs	APSR_nzcv, fpscr
100024d8:	d807      	bhi.n	100024ea <_ZN16PlayerController6updateER6PlayerP6IInputf+0xde>
100024da:	f896 3020 	ldrb.w	r3, [r6, #32]
100024de:	4a23      	ldr	r2, [pc, #140]	@ (1000256c <_ZN16PlayerController6updateER6PlayerP6IInputf+0x160>)
100024e0:	f043 0304 	orr.w	r3, r3, #4
100024e4:	f886 3020 	strb.w	r3, [r6, #32]
100024e8:	6122      	str	r2, [r4, #16]
100024ea:	ecbd 8b02 	vpop	{d8}
100024ee:	bd70      	pop	{r4, r5, r6, pc}
100024f0:	f896 3020 	ldrb.w	r3, [r6, #32]
100024f4:	4a1e      	ldr	r2, [pc, #120]	@ (10002570 <_ZN16PlayerController6updateER6PlayerP6IInputf+0x164>)
100024f6:	f013 0301 	ands.w	r3, r3, #1
100024fa:	60b2      	str	r2, [r6, #8]
100024fc:	d1a5      	bne.n	1000244a <_ZN16PlayerController6updateER6PlayerP6IInputf+0x3e>
100024fe:	7a22      	ldrb	r2, [r4, #8]
10002500:	b102      	cbz	r2, 10002504 <_ZN16PlayerController6updateER6PlayerP6IInputf+0xf8>
10002502:	7223      	strb	r3, [r4, #8]
10002504:	edd4 7a01 	vldr	s15, [r4, #4]
10002508:	ee77 7ac8 	vsub.f32	s15, s15, s16
1000250c:	eef5 7ac0 	vcmpe.f32	s15, #0.0
10002510:	2300      	movs	r3, #0
10002512:	eef1 fa10 	vmrs	APSR_nzcv, fpscr
10002516:	bf54      	ite	pl
10002518:	edc4 7a01 	vstrpl	s15, [r4, #4]
1000251c:	6063      	strmi	r3, [r4, #4]
1000251e:	e798      	b.n	10002452 <_ZN16PlayerController6updateER6PlayerP6IInputf+0x46>
10002520:	edd4 7a00 	vldr	s15, [r4]
10002524:	ee77 7ac8 	vsub.f32	s15, s15, s16
10002528:	eef5 7ac0 	vcmpe.f32	s15, #0.0
1000252c:	eef1 fa10 	vmrs	APSR_nzcv, fpscr
10002530:	f04f 0100 	mov.w	r1, #0
10002534:	edc4 7a00 	vstr	s15, [r4]
10002538:	d410      	bmi.n	1000255c <_ZN16PlayerController6updateER6PlayerP6IInputf+0x150>
1000253a:	b94a      	cbnz	r2, 10002550 <_ZN16PlayerController6updateER6PlayerP6IInputf+0x144>
1000253c:	ed94 7a01 	vldr	s14, [r4, #4]
10002540:	eeb5 7ac0 	vcmpe.f32	s14, #0.0
10002544:	eef1 fa10 	vmrs	APSR_nzcv, fpscr
10002548:	dc02      	bgt.n	10002550 <_ZN16PlayerController6updateER6PlayerP6IInputf+0x144>
1000254a:	e79a      	b.n	10002482 <_ZN16PlayerController6updateER6PlayerP6IInputf+0x76>
1000254c:	edd4 7a01 	vldr	s15, [r4, #4]
10002550:	eef5 7ac0 	vcmpe.f32	s15, #0.0
10002554:	eef1 fa10 	vmrs	APSR_nzcv, fpscr
10002558:	dd93      	ble.n	10002482 <_ZN16PlayerController6updateER6PlayerP6IInputf+0x76>
1000255a:	e789      	b.n	10002470 <_ZN16PlayerController6updateER6PlayerP6IInputf+0x64>
1000255c:	6021      	str	r1, [r4, #0]
1000255e:	e790      	b.n	10002482 <_ZN16PlayerController6updateER6PlayerP6IInputf+0x76>
10002560:	3df5c28f 	.word	0x3df5c28f
10002564:	3dcccccd 	.word	0x3dcccccd
10002568:	fe020000 	.word	0xfe020000
1000256c:	3e4ccccd 	.word	0x3e4ccccd
10002570:	ff6a0000 	.word	0xff6a0000

10002574 <_ZN10ProjectileC1E4Vec2b>:
10002574:	4684      	mov	ip, r0
10002576:	b082      	sub	sp, #8
10002578:	e9cd 1200 	strd	r1, r2, [sp]
1000257c:	e9dd 0100 	ldrd	r0, r1, [sp]
10002580:	4661      	mov	r1, ip
10002582:	e9cc 0200 	strd	r0, r2, [ip]
10002586:	b183      	cbz	r3, 100025aa <_ZN10ProjectileC1E4Vec2b+0x36>
10002588:	f04f 70af 	mov.w	r0, #22937600	@ 0x15e0000
1000258c:	2200      	movs	r2, #0
1000258e:	f04f 0c00 	mov.w	ip, #0
10002592:	6088      	str	r0, [r1, #8]
10002594:	4608      	mov	r0, r1
10002596:	754b      	strb	r3, [r1, #21]
10002598:	60ca      	str	r2, [r1, #12]
1000259a:	f8c1 c010 	str.w	ip, [r1, #16]
1000259e:	750a      	strb	r2, [r1, #20]
100025a0:	618a      	str	r2, [r1, #24]
100025a2:	f8c1 c01c 	str.w	ip, [r1, #28]
100025a6:	b002      	add	sp, #8
100025a8:	4770      	bx	lr
100025aa:	4801      	ldr	r0, [pc, #4]	@ (100025b0 <_ZN10ProjectileC1E4Vec2b+0x3c>)
100025ac:	e7ee      	b.n	1000258c <_ZN10ProjectileC1E4Vec2b+0x18>
100025ae:	bf00      	nop
100025b0:	fea20000 	.word	0xfea20000

100025b4 <_ZN10Projectile6updateEf>:
100025b4:	ee07 1a90 	vmov	s15, r1
100025b8:	e9d0 1201 	ldrd	r1, r2, [r0, #4]
100025bc:	ed90 7a04 	vldr	s14, [r0, #16]
100025c0:	eeb0 6a67 	vmov.f32	s12, s15
100025c4:	ee37 7a87 	vadd.f32	s14, s15, s14
100025c8:	eddf 6a1f 	vldr	s13, [pc, #124]	@ 10002648 <_ZN10Projectile6updateEf+0x94>
100025cc:	eebe 6ac8 	vcvt.s32.f32	s12, s12, #16
100025d0:	eeb4 7ae6 	vcmpe.f32	s14, s13
100025d4:	edd0 6a07 	vldr	s13, [r0, #28]
100025d8:	ee16 3a10 	vmov	r3, s12
100025dc:	b510      	push	{r4, lr}
100025de:	eef1 fa10 	vmrs	APSR_nzcv, fpscr
100025e2:	ed80 7a04 	vstr	s14, [r0, #16]
100025e6:	ee77 7aa6 	vadd.f32	s15, s15, s13
100025ea:	ed9f 7a18 	vldr	s14, [pc, #96]	@ 1000264c <_ZN10Projectile6updateEf+0x98>
100025ee:	68c4      	ldr	r4, [r0, #12]
100025f0:	fb83 2e02 	smull	r2, lr, r3, r2
100025f4:	fb83 3c04 	smull	r3, ip, r3, r4
100025f8:	ea4f 4313 	mov.w	r3, r3, lsr #16
100025fc:	ea43 430c 	orr.w	r3, r3, ip, lsl #16
10002600:	4419      	add	r1, r3
10002602:	eef4 7ac7 	vcmpe.f32	s15, s14
10002606:	bfa4      	itt	ge
10002608:	2301      	movge	r3, #1
1000260a:	7503      	strbge	r3, [r0, #20]
1000260c:	eef1 fa10 	vmrs	APSR_nzcv, fpscr
10002610:	6804      	ldr	r4, [r0, #0]
10002612:	ea4f 4212 	mov.w	r2, r2, lsr #16
10002616:	ea42 420e 	orr.w	r2, r2, lr, lsl #16
1000261a:	4422      	add	r2, r4
1000261c:	e9c0 2100 	strd	r2, r1, [r0]
10002620:	db0e      	blt.n	10002640 <_ZN10Projectile6updateEf+0x8c>
10002622:	ee77 7ac7 	vsub.f32	s15, s15, s14
10002626:	6983      	ldr	r3, [r0, #24]
10002628:	4909      	ldr	r1, [pc, #36]	@ (10002650 <_ZN10Projectile6updateEf+0x9c>)
1000262a:	3301      	adds	r3, #1
1000262c:	fb81 2103 	smull	r2, r1, r1, r3
10002630:	17da      	asrs	r2, r3, #31
10002632:	ebc2 0261 	rsb	r2, r2, r1, asr #1
10002636:	eb02 0242 	add.w	r2, r2, r2, lsl #1
1000263a:	eba3 0382 	sub.w	r3, r3, r2, lsl #2
1000263e:	6183      	str	r3, [r0, #24]
10002640:	edc0 7a07 	vstr	s15, [r0, #28]
10002644:	bd10      	pop	{r4, pc}
10002646:	bf00      	nop
10002648:	48000000 	.word	0x48000000
1000264c:	3d2acd9f 	.word	0x3d2acd9f
10002650:	2aaaaaab 	.word	0x2aaaaaab

10002654 <_ZNK10Projectile11getColliderEv>:
10002654:	f44f 2200 	mov.w	r2, #524288	@ 0x80000
10002658:	b410      	push	{r4}
1000265a:	680c      	ldr	r4, [r1, #0]
1000265c:	6849      	ldr	r1, [r1, #4]
1000265e:	6004      	str	r4, [r0, #0]
10002660:	e9c0 1201 	strd	r1, r2, [r0, #4]
10002664:	f85d 4b04 	ldr.w	r4, [sp], #4
10002668:	60c2      	str	r2, [r0, #12]
1000266a:	4770      	bx	lr

1000266c <_ZN10BasicEnemyC1E4Vec2b>:
1000266c:	4684      	mov	ip, r0
1000266e:	b082      	sub	sp, #8
10002670:	e9cd 1200 	strd	r1, r2, [sp]
10002674:	e9dd 0100 	ldrd	r0, r1, [sp]
10002678:	4661      	mov	r1, ip
1000267a:	e9cc 0200 	strd	r0, r2, [ip]
1000267e:	b18b      	cbz	r3, 100026a4 <_ZN10BasicEnemyC1E4Vec2b+0x38>
10002680:	f44f 02a0 	mov.w	r2, #5242880	@ 0x500000
10002684:	2300      	movs	r3, #0
10002686:	2001      	movs	r0, #1
10002688:	e9cc 2302 	strd	r2, r3, [ip, #8]
1000268c:	f04f 0c03 	mov.w	ip, #3
10002690:	2200      	movs	r2, #0
10002692:	2300      	movs	r3, #0
10002694:	7708      	strb	r0, [r1, #28]
10002696:	4608      	mov	r0, r1
10002698:	f881 c010 	strb.w	ip, [r1, #16]
1000269c:	614a      	str	r2, [r1, #20]
1000269e:	618b      	str	r3, [r1, #24]
100026a0:	b002      	add	sp, #8
100026a2:	4770      	bx	lr
100026a4:	4a02      	ldr	r2, [pc, #8]	@ (100026b0 <_ZN10BasicEnemyC1E4Vec2b+0x44>)
100026a6:	4618      	mov	r0, r3
100026a8:	e9cc 2302 	strd	r2, r3, [ip, #8]
100026ac:	e7ee      	b.n	1000268c <_ZN10BasicEnemyC1E4Vec2b+0x20>
100026ae:	bf00      	nop
100026b0:	ffb00000 	.word	0xffb00000

100026b4 <_ZN10BasicEnemy10takeDamageEi>:
100026b4:	7c03      	ldrb	r3, [r0, #16]
100026b6:	4602      	mov	r2, r0
100026b8:	1a59      	subs	r1, r3, r1
100026ba:	b2c9      	uxtb	r1, r1
100026bc:	fab1 f081 	clz	r0, r1
100026c0:	7411      	strb	r1, [r2, #16]
100026c2:	0940      	lsrs	r0, r0, #5
100026c4:	4770      	bx	lr
100026c6:	bf00      	nop

100026c8 <_ZNK10BasicEnemy11getColliderEv>:
100026c8:	f44f 1280 	mov.w	r2, #1048576	@ 0x100000
100026cc:	b410      	push	{r4}
100026ce:	680c      	ldr	r4, [r1, #0]
100026d0:	6849      	ldr	r1, [r1, #4]
100026d2:	6004      	str	r4, [r0, #0]
100026d4:	e9c0 1201 	strd	r1, r2, [r0, #4]
100026d8:	f85d 4b04 	ldr.w	r4, [sp], #4
100026dc:	60c2      	str	r2, [r0, #12]
100026de:	4770      	bx	lr

100026e0 <_ZN10BasicEnemy18checkWallCollisionERK5Level>:
100026e0:	e92d 41f0 	stmdb	sp!, {r4, r5, r6, r7, r8, lr}
100026e4:	e9d0 6500 	ldrd	r6, r5, [r0]
100026e8:	2d00      	cmp	r5, #0
100026ea:	bfae      	itee	ge
100026ec:	462c      	movge	r4, r5
100026ee:	f505 247f 	addlt.w	r4, r5, #1044480	@ 0xff000
100026f2:	f604 74ff 	addwlt	r4, r4, #4095	@ 0xfff
100026f6:	6883      	ldr	r3, [r0, #8]
100026f8:	f515 2570 	adds.w	r5, r5, #983040	@ 0xf0000
100026fc:	bf44      	itt	mi
100026fe:	f505 257f 	addmi.w	r5, r5, #1044480	@ 0xff000
10002702:	f605 75ff 	addwmi	r5, r5, #4095	@ 0xfff
10002706:	2b00      	cmp	r3, #0
10002708:	4680      	mov	r8, r0
1000270a:	460f      	mov	r7, r1
1000270c:	ea4f 5424 	mov.w	r4, r4, asr #20
10002710:	ea4f 5525 	mov.w	r5, r5, asr #20
10002714:	dd2c      	ble.n	10002770 <_ZN10BasicEnemy18checkWallCollisionERK5Level+0x90>
10002716:	42a5      	cmp	r5, r4
10002718:	db28      	blt.n	1000276c <_ZN10BasicEnemy18checkWallCollisionERK5Level+0x8c>
1000271a:	f516 2670 	adds.w	r6, r6, #983040	@ 0xf0000
1000271e:	bf44      	itt	mi
10002720:	f506 267f 	addmi.w	r6, r6, #1044480	@ 0xff000
10002724:	f606 76ff 	addwmi	r6, r6, #4095	@ 0xfff
10002728:	1536      	asrs	r6, r6, #20
1000272a:	e001      	b.n	10002730 <_ZN10BasicEnemy18checkWallCollisionERK5Level+0x50>
1000272c:	42a5      	cmp	r5, r4
1000272e:	db1d      	blt.n	1000276c <_ZN10BasicEnemy18checkWallCollisionERK5Level+0x8c>
10002730:	4622      	mov	r2, r4
10002732:	4631      	mov	r1, r6
10002734:	4638      	mov	r0, r7
10002736:	f001 fac9 	bl	10003ccc <_ZNK5Level7isSolidEii>
1000273a:	3401      	adds	r4, #1
1000273c:	2800      	cmp	r0, #0
1000273e:	d0f5      	beq.n	1000272c <_ZN10BasicEnemy18checkWallCollisionERK5Level+0x4c>
10002740:	0136      	lsls	r6, r6, #4
10002742:	ee07 6a90 	vmov	s15, r6
10002746:	eef8 7ae7 	vcvt.f32.s32	s15, s15
1000274a:	eefe 7ac8 	vcvt.s32.f32	s15, s15, #16
1000274e:	f898 301c 	ldrb.w	r3, [r8, #28]
10002752:	4a1c      	ldr	r2, [pc, #112]	@ (100027c4 <_ZN10BasicEnemy18checkWallCollisionERK5Level+0xe4>)
10002754:	f023 0301 	bic.w	r3, r3, #1
10002758:	f888 301c 	strb.w	r3, [r8, #28]
1000275c:	ee17 3a90 	vmov	r3, s15
10002760:	f5a3 1380 	sub.w	r3, r3, #1048576	@ 0x100000
10002764:	f8c8 2008 	str.w	r2, [r8, #8]
10002768:	f8c8 3000 	str.w	r3, [r8]
1000276c:	e8bd 81f0 	ldmia.w	sp!, {r4, r5, r6, r7, r8, pc}
10002770:	d0fc      	beq.n	1000276c <_ZN10BasicEnemy18checkWallCollisionERK5Level+0x8c>
10002772:	42a5      	cmp	r5, r4
10002774:	dbfa      	blt.n	1000276c <_ZN10BasicEnemy18checkWallCollisionERK5Level+0x8c>
10002776:	2e00      	cmp	r6, #0
10002778:	bfbc      	itt	lt
1000277a:	f506 267f 	addlt.w	r6, r6, #1044480	@ 0xff000
1000277e:	f606 76ff 	addwlt	r6, r6, #4095	@ 0xfff
10002782:	1536      	asrs	r6, r6, #20
10002784:	e001      	b.n	1000278a <_ZN10BasicEnemy18checkWallCollisionERK5Level+0xaa>
10002786:	42a5      	cmp	r5, r4
10002788:	dbf0      	blt.n	1000276c <_ZN10BasicEnemy18checkWallCollisionERK5Level+0x8c>
1000278a:	4622      	mov	r2, r4
1000278c:	4631      	mov	r1, r6
1000278e:	4638      	mov	r0, r7
10002790:	f001 fa9c 	bl	10003ccc <_ZNK5Level7isSolidEii>
10002794:	3401      	adds	r4, #1
10002796:	2800      	cmp	r0, #0
10002798:	d0f5      	beq.n	10002786 <_ZN10BasicEnemy18checkWallCollisionERK5Level+0xa6>
1000279a:	3601      	adds	r6, #1
1000279c:	0136      	lsls	r6, r6, #4
1000279e:	ee07 6a90 	vmov	s15, r6
100027a2:	eef8 7ae7 	vcvt.f32.s32	s15, s15
100027a6:	f44f 02a0 	mov.w	r2, #5242880	@ 0x500000
100027aa:	eefe 7ac8 	vcvt.s32.f32	s15, s15, #16
100027ae:	f898 301c 	ldrb.w	r3, [r8, #28]
100027b2:	edc8 7a00 	vstr	s15, [r8]
100027b6:	f043 0301 	orr.w	r3, r3, #1
100027ba:	f888 301c 	strb.w	r3, [r8, #28]
100027be:	f8c8 2008 	str.w	r2, [r8, #8]
100027c2:	e7d3      	b.n	1000276c <_ZN10BasicEnemy18checkWallCollisionERK5Level+0x8c>
100027c4:	ffb00000 	.word	0xffb00000

100027c8 <_ZN10BasicEnemy22resolveVerticalTerrainERK5Levell>:
100027c8:	e92d 4ff0 	stmdb	sp!, {r4, r5, r6, r7, r8, r9, sl, fp, lr}
100027cc:	e9d0 5900 	ldrd	r5, r9, [r0]
100027d0:	2d00      	cmp	r5, #0
100027d2:	bfa8      	it	ge
100027d4:	46ab      	movge	fp, r5
100027d6:	ed2d 8b02 	vpush	{d8}
100027da:	bfbc      	itt	lt
100027dc:	f505 2b7f 	addlt.w	fp, r5, #1044480	@ 0xff000
100027e0:	f60b 7bff 	addwlt	fp, fp, #4095	@ 0xfff
100027e4:	68c3      	ldr	r3, [r0, #12]
100027e6:	f515 2570 	adds.w	r5, r5, #983040	@ 0xf0000
100027ea:	bf44      	itt	mi
100027ec:	f505 257f 	addmi.w	r5, r5, #1044480	@ 0xff000
100027f0:	f605 75ff 	addwmi	r5, r5, #4095	@ 0xfff
100027f4:	2b00      	cmp	r3, #0
100027f6:	4680      	mov	r8, r0
100027f8:	460e      	mov	r6, r1
100027fa:	b083      	sub	sp, #12
100027fc:	ea4f 5b2b 	mov.w	fp, fp, asr #20
10002800:	ea4f 5525 	mov.w	r5, r5, asr #20
10002804:	dd7e      	ble.n	10002904 <_ZN10BasicEnemy22resolveVerticalTerrainERK5Levell+0x13c>
10002806:	f519 2370 	adds.w	r3, r9, #983040	@ 0xf0000
1000280a:	bf44      	itt	mi
1000280c:	f503 237f 	addmi.w	r3, r3, #1044480	@ 0xff000
10002810:	f603 73ff 	addwmi	r3, r3, #4095	@ 0xfff
10002814:	f512 2c70 	adds.w	ip, r2, #983040	@ 0xf0000
10002818:	bf44      	itt	mi
1000281a:	f50c 2c7f 	addmi.w	ip, ip, #1044480	@ 0xff000
1000281e:	f60c 7cff 	addwmi	ip, ip, #4095	@ 0xfff
10002822:	ea4f 5c2c 	mov.w	ip, ip, asr #20
10002826:	151b      	asrs	r3, r3, #20
10002828:	459c      	cmp	ip, r3
1000282a:	46e2      	mov	sl, ip
1000282c:	bfa8      	it	ge
1000282e:	469a      	movge	sl, r3
10002830:	459c      	cmp	ip, r3
10002832:	bfb8      	it	lt
10002834:	469c      	movlt	ip, r3
10002836:	45e2      	cmp	sl, ip
10002838:	dc27      	bgt.n	1000288a <_ZN10BasicEnemy22resolveVerticalTerrainERK5Levell+0xc2>
1000283a:	4657      	mov	r7, sl
1000283c:	f8cd a000 	str.w	sl, [sp]
10002840:	f8cd 9004 	str.w	r9, [sp, #4]
10002844:	46da      	mov	sl, fp
10002846:	46a9      	mov	r9, r5
10002848:	4693      	mov	fp, r2
1000284a:	4665      	mov	r5, ip
1000284c:	45d1      	cmp	r9, sl
1000284e:	bfa8      	it	ge
10002850:	4654      	movge	r4, sl
10002852:	da02      	bge.n	1000285a <_ZN10BasicEnemy22resolveVerticalTerrainERK5Levell+0x92>
10002854:	e01e      	b.n	10002894 <_ZN10BasicEnemy22resolveVerticalTerrainERK5Levell+0xcc>
10002856:	454c      	cmp	r4, r9
10002858:	dc1c      	bgt.n	10002894 <_ZN10BasicEnemy22resolveVerticalTerrainERK5Levell+0xcc>
1000285a:	4621      	mov	r1, r4
1000285c:	463a      	mov	r2, r7
1000285e:	4630      	mov	r0, r6
10002860:	f001 fa34 	bl	10003ccc <_ZNK5Level7isSolidEii>
10002864:	3401      	adds	r4, #1
10002866:	2800      	cmp	r0, #0
10002868:	d0f5      	beq.n	10002856 <_ZN10BasicEnemy22resolveVerticalTerrainERK5Levell+0x8e>
1000286a:	013f      	lsls	r7, r7, #4
1000286c:	ee07 7a90 	vmov	s15, r7
10002870:	eef8 7ae7 	vcvt.f32.s32	s15, s15
10002874:	2300      	movs	r3, #0
10002876:	eefe 7ac8 	vcvt.s32.f32	s15, s15, #16
1000287a:	f8c8 300c 	str.w	r3, [r8, #12]
1000287e:	ee17 3a90 	vmov	r3, s15
10002882:	f5a3 1380 	sub.w	r3, r3, #1048576	@ 0x100000
10002886:	f8c8 3004 	str.w	r3, [r8, #4]
1000288a:	b003      	add	sp, #12
1000288c:	ecbd 8b02 	vpop	{d8}
10002890:	e8bd 8ff0 	ldmia.w	sp!, {r4, r5, r6, r7, r8, r9, sl, fp, pc}
10002894:	3701      	adds	r7, #1
10002896:	42af      	cmp	r7, r5
10002898:	ddd8      	ble.n	1000284c <_ZN10BasicEnemy22resolveVerticalTerrainERK5Levell+0x84>
1000289a:	46ac      	mov	ip, r5
1000289c:	465a      	mov	r2, fp
1000289e:	464d      	mov	r5, r9
100028a0:	f8dd 9004 	ldr.w	r9, [sp, #4]
100028a4:	46d3      	mov	fp, sl
100028a6:	f509 1780 	add.w	r7, r9, #1048576	@ 0x100000
100028aa:	f8dd a000 	ldr.w	sl, [sp]
100028ae:	f502 1980 	add.w	r9, r2, #1048576	@ 0x100000
100028b2:	f8cd c000 	str.w	ip, [sp]
100028b6:	455d      	cmp	r5, fp
100028b8:	db1e      	blt.n	100028f8 <_ZN10BasicEnemy22resolveVerticalTerrainERK5Levell+0x130>
100028ba:	ea4f 130a 	mov.w	r3, sl, lsl #4
100028be:	3308      	adds	r3, #8
100028c0:	465c      	mov	r4, fp
100028c2:	ee08 3a10 	vmov	s16, r3
100028c6:	4621      	mov	r1, r4
100028c8:	4652      	mov	r2, sl
100028ca:	4630      	mov	r0, r6
100028cc:	f001 fa26 	bl	10003d1c <_ZNK5Level10isPlatformEii>
100028d0:	3401      	adds	r4, #1
100028d2:	b178      	cbz	r0, 100028f4 <_ZN10BasicEnemy22resolveVerticalTerrainERK5Levell+0x12c>
100028d4:	eef8 7ac8 	vcvt.f32.s32	s15, s16
100028d8:	eeb0 7a67 	vmov.f32	s14, s15
100028dc:	eebe 7ac8 	vcvt.s32.f32	s14, s14, #16
100028e0:	ee17 3a10 	vmov	r3, s14
100028e4:	4599      	cmp	r9, r3
100028e6:	dc05      	bgt.n	100028f4 <_ZN10BasicEnemy22resolveVerticalTerrainERK5Levell+0x12c>
100028e8:	429f      	cmp	r7, r3
100028ea:	db03      	blt.n	100028f4 <_ZN10BasicEnemy22resolveVerticalTerrainERK5Levell+0x12c>
100028ec:	f8d8 200c 	ldr.w	r2, [r8, #12]
100028f0:	2a00      	cmp	r2, #0
100028f2:	da47      	bge.n	10002984 <_ZN10BasicEnemy22resolveVerticalTerrainERK5Levell+0x1bc>
100028f4:	42ac      	cmp	r4, r5
100028f6:	dde6      	ble.n	100028c6 <_ZN10BasicEnemy22resolveVerticalTerrainERK5Levell+0xfe>
100028f8:	9b00      	ldr	r3, [sp, #0]
100028fa:	f10a 0a01 	add.w	sl, sl, #1
100028fe:	459a      	cmp	sl, r3
10002900:	ddd9      	ble.n	100028b6 <_ZN10BasicEnemy22resolveVerticalTerrainERK5Levell+0xee>
10002902:	e7c2      	b.n	1000288a <_ZN10BasicEnemy22resolveVerticalTerrainERK5Levell+0xc2>
10002904:	d0c1      	beq.n	1000288a <_ZN10BasicEnemy22resolveVerticalTerrainERK5Levell+0xc2>
10002906:	f1b9 0700 	subs.w	r7, r9, #0
1000290a:	bfbc      	itt	lt
1000290c:	f507 277f 	addlt.w	r7, r7, #1044480	@ 0xff000
10002910:	f607 77ff 	addwlt	r7, r7, #4095	@ 0xfff
10002914:	f1b2 0900 	subs.w	r9, r2, #0
10002918:	bfbc      	itt	lt
1000291a:	f509 297f 	addlt.w	r9, r9, #1044480	@ 0xff000
1000291e:	f609 79ff 	addwlt	r9, r9, #4095	@ 0xfff
10002922:	153f      	asrs	r7, r7, #20
10002924:	ea4f 5929 	mov.w	r9, r9, asr #20
10002928:	454f      	cmp	r7, r9
1000292a:	46ba      	mov	sl, r7
1000292c:	bfa8      	it	ge
1000292e:	46ca      	movge	sl, r9
10002930:	454f      	cmp	r7, r9
10002932:	bfb8      	it	lt
10002934:	464f      	movlt	r7, r9
10002936:	45ba      	cmp	sl, r7
10002938:	dca7      	bgt.n	1000288a <_ZN10BasicEnemy22resolveVerticalTerrainERK5Levell+0xc2>
1000293a:	455d      	cmp	r5, fp
1000293c:	bfa8      	it	ge
1000293e:	465c      	movge	r4, fp
10002940:	da02      	bge.n	10002948 <_ZN10BasicEnemy22resolveVerticalTerrainERK5Levell+0x180>
10002942:	e01b      	b.n	1000297c <_ZN10BasicEnemy22resolveVerticalTerrainERK5Levell+0x1b4>
10002944:	42ac      	cmp	r4, r5
10002946:	dc19      	bgt.n	1000297c <_ZN10BasicEnemy22resolveVerticalTerrainERK5Levell+0x1b4>
10002948:	4621      	mov	r1, r4
1000294a:	463a      	mov	r2, r7
1000294c:	4630      	mov	r0, r6
1000294e:	f001 f9bd 	bl	10003ccc <_ZNK5Level7isSolidEii>
10002952:	3401      	adds	r4, #1
10002954:	2800      	cmp	r0, #0
10002956:	d0f5      	beq.n	10002944 <_ZN10BasicEnemy22resolveVerticalTerrainERK5Levell+0x17c>
10002958:	3701      	adds	r7, #1
1000295a:	013f      	lsls	r7, r7, #4
1000295c:	ee07 7a90 	vmov	s15, r7
10002960:	eef8 7ae7 	vcvt.f32.s32	s15, s15
10002964:	2300      	movs	r3, #0
10002966:	eefe 7ac8 	vcvt.s32.f32	s15, s15, #16
1000296a:	f8c8 300c 	str.w	r3, [r8, #12]
1000296e:	edc8 7a01 	vstr	s15, [r8, #4]
10002972:	b003      	add	sp, #12
10002974:	ecbd 8b02 	vpop	{d8}
10002978:	e8bd 8ff0 	ldmia.w	sp!, {r4, r5, r6, r7, r8, r9, sl, fp, pc}
1000297c:	3f01      	subs	r7, #1
1000297e:	45ba      	cmp	sl, r7
10002980:	dddb      	ble.n	1000293a <_ZN10BasicEnemy22resolveVerticalTerrainERK5Levell+0x172>
10002982:	e782      	b.n	1000288a <_ZN10BasicEnemy22resolveVerticalTerrainERK5Levell+0xc2>
10002984:	2200      	movs	r2, #0
10002986:	f5a3 1380 	sub.w	r3, r3, #1048576	@ 0x100000
1000298a:	f8c8 3004 	str.w	r3, [r8, #4]
1000298e:	f8c8 200c 	str.w	r2, [r8, #12]
10002992:	e77a      	b.n	1000288a <_ZN10BasicEnemy22resolveVerticalTerrainERK5Levell+0xc2>

10002994 <_ZN10BasicEnemy6updateEfRK5Level>:
10002994:	e92d 41f0 	stmdb	sp!, {r4, r5, r6, r7, r8, lr}
10002998:	ed2d 8b02 	vpush	{d8}
1000299c:	ee08 1a10 	vmov	s16, r1
100029a0:	eef0 7a48 	vmov.f32	s15, s16
100029a4:	eefe 7ac8 	vcvt.s32.f32	s15, s15, #16
100029a8:	f04f 7375 	mov.w	r3, #64225280	@ 0x3d40000
100029ac:	ee17 5a90 	vmov	r5, s15
100029b0:	fb85 3603 	smull	r3, r6, r5, r3
100029b4:	4617      	mov	r7, r2
100029b6:	0c1b      	lsrs	r3, r3, #16
100029b8:	68c2      	ldr	r2, [r0, #12]
100029ba:	4604      	mov	r4, r0
100029bc:	ea43 4306 	orr.w	r3, r3, r6, lsl #16
100029c0:	441a      	add	r2, r3
100029c2:	f1b2 7ffa 	cmp.w	r2, #32768000	@ 0x1f40000
100029c6:	bfa8      	it	ge
100029c8:	f04f 72fa 	movge.w	r2, #32768000	@ 0x1f40000
100029cc:	7f00      	ldrb	r0, [r0, #28]
100029ce:	6821      	ldr	r1, [r4, #0]
100029d0:	07c0      	lsls	r0, r0, #31
100029d2:	bf4c      	ite	mi
100029d4:	f501 1180 	addmi.w	r1, r1, #1048576	@ 0x100000
100029d8:	f5a1 3180 	subpl.w	r1, r1, #65536	@ 0x10000
100029dc:	2900      	cmp	r1, #0
100029de:	60e2      	str	r2, [r4, #12]
100029e0:	6862      	ldr	r2, [r4, #4]
100029e2:	bfbc      	itt	lt
100029e4:	f501 217f 	addlt.w	r1, r1, #1044480	@ 0xff000
100029e8:	f601 71ff 	addwlt	r1, r1, #4095	@ 0xfff
100029ec:	f512 1288 	adds.w	r2, r2, #1114112	@ 0x110000
100029f0:	bf44      	itt	mi
100029f2:	f502 227f 	addmi.w	r2, r2, #1044480	@ 0xff000
100029f6:	f602 72ff 	addwmi	r2, r2, #4095	@ 0xfff
100029fa:	150e      	asrs	r6, r1, #20
100029fc:	ea4f 5822 	mov.w	r8, r2, asr #20
10002a00:	4642      	mov	r2, r8
10002a02:	4631      	mov	r1, r6
10002a04:	4638      	mov	r0, r7
10002a06:	f001 f961 	bl	10003ccc <_ZNK5Level7isSolidEii>
10002a0a:	2800      	cmp	r0, #0
10002a0c:	d039      	beq.n	10002a82 <_ZN10BasicEnemy6updateEfRK5Level+0xee>
10002a0e:	68a3      	ldr	r3, [r4, #8]
10002a10:	fb83 3205 	smull	r3, r2, r3, r5
10002a14:	0c1b      	lsrs	r3, r3, #16
10002a16:	ea43 4302 	orr.w	r3, r3, r2, lsl #16
10002a1a:	6822      	ldr	r2, [r4, #0]
10002a1c:	4639      	mov	r1, r7
10002a1e:	441a      	add	r2, r3
10002a20:	4620      	mov	r0, r4
10002a22:	6022      	str	r2, [r4, #0]
10002a24:	f7ff fe5c 	bl	100026e0 <_ZN10BasicEnemy18checkWallCollisionERK5Level>
10002a28:	68e3      	ldr	r3, [r4, #12]
10002a2a:	6862      	ldr	r2, [r4, #4]
10002a2c:	fb85 5303 	smull	r5, r3, r5, r3
10002a30:	0c2d      	lsrs	r5, r5, #16
10002a32:	ea45 4503 	orr.w	r5, r5, r3, lsl #16
10002a36:	4415      	add	r5, r2
10002a38:	4639      	mov	r1, r7
10002a3a:	4620      	mov	r0, r4
10002a3c:	6065      	str	r5, [r4, #4]
10002a3e:	f7ff fec3 	bl	100027c8 <_ZN10BasicEnemy22resolveVerticalTerrainERK5Levell>
10002a42:	ed94 7a06 	vldr	s14, [r4, #24]
10002a46:	eddf 7a18 	vldr	s15, [pc, #96]	@ 10002aa8 <_ZN10BasicEnemy6updateEfRK5Level+0x114>
10002a4a:	ee38 8a07 	vadd.f32	s16, s16, s14
10002a4e:	eeb4 8ae7 	vcmpe.f32	s16, s15
10002a52:	eef1 fa10 	vmrs	APSR_nzcv, fpscr
10002a56:	db0e      	blt.n	10002a76 <_ZN10BasicEnemy6updateEfRK5Level+0xe2>
10002a58:	ee38 8a67 	vsub.f32	s16, s16, s15
10002a5c:	6963      	ldr	r3, [r4, #20]
10002a5e:	4913      	ldr	r1, [pc, #76]	@ (10002aac <_ZN10BasicEnemy6updateEfRK5Level+0x118>)
10002a60:	3301      	adds	r3, #1
10002a62:	fb81 2103 	smull	r2, r1, r1, r3
10002a66:	17da      	asrs	r2, r3, #31
10002a68:	ebc2 0261 	rsb	r2, r2, r1, asr #1
10002a6c:	eb02 0242 	add.w	r2, r2, r2, lsl #1
10002a70:	eba3 0382 	sub.w	r3, r3, r2, lsl #2
10002a74:	6163      	str	r3, [r4, #20]
10002a76:	ed84 8a06 	vstr	s16, [r4, #24]
10002a7a:	ecbd 8b02 	vpop	{d8}
10002a7e:	e8bd 81f0 	ldmia.w	sp!, {r4, r5, r6, r7, r8, pc}
10002a82:	4642      	mov	r2, r8
10002a84:	4631      	mov	r1, r6
10002a86:	4638      	mov	r0, r7
10002a88:	f001 f948 	bl	10003d1c <_ZNK5Level10isPlatformEii>
10002a8c:	68a3      	ldr	r3, [r4, #8]
10002a8e:	2800      	cmp	r0, #0
10002a90:	d1be      	bne.n	10002a10 <_ZN10BasicEnemy6updateEfRK5Level+0x7c>
10002a92:	7f22      	ldrb	r2, [r4, #28]
10002a94:	425b      	negs	r3, r3
10002a96:	07d1      	lsls	r1, r2, #31
10002a98:	bf54      	ite	pl
10002a9a:	f042 0201 	orrpl.w	r2, r2, #1
10002a9e:	f002 02fe 	andmi.w	r2, r2, #254	@ 0xfe
10002aa2:	7722      	strb	r2, [r4, #28]
10002aa4:	60a3      	str	r3, [r4, #8]
10002aa6:	e7b3      	b.n	10002a10 <_ZN10BasicEnemy6updateEfRK5Level+0x7c>
10002aa8:	3daa9931 	.word	0x3daa9931
10002aac:	2aaaaaab 	.word	0x2aaaaaab

10002ab0 <_ZN11RangedEnemyC1E4Vec2b>:
10002ab0:	4684      	mov	ip, r0
10002ab2:	b082      	sub	sp, #8
10002ab4:	e9cd 1200 	strd	r1, r2, [sp]
10002ab8:	e9dd 0100 	ldrd	r0, r1, [sp]
10002abc:	4661      	mov	r1, ip
10002abe:	e9cc 0200 	strd	r0, r2, [ip]
10002ac2:	b1a3      	cbz	r3, 10002aee <_ZN11RangedEnemyC1E4Vec2b+0x3e>
10002ac4:	f44f 1248 	mov.w	r2, #3276800	@ 0x320000
10002ac8:	2300      	movs	r3, #0
10002aca:	2001      	movs	r0, #1
10002acc:	e9cc 2302 	strd	r2, r3, [ip, #8]
10002ad0:	2300      	movs	r3, #0
10002ad2:	f04f 0c05 	mov.w	ip, #5
10002ad6:	2200      	movs	r2, #0
10002ad8:	f881 0024 	strb.w	r0, [r1, #36]	@ 0x24
10002adc:	4608      	mov	r0, r1
10002ade:	618b      	str	r3, [r1, #24]
10002ae0:	f881 c010 	strb.w	ip, [r1, #16]
10002ae4:	614a      	str	r2, [r1, #20]
10002ae6:	61cb      	str	r3, [r1, #28]
10002ae8:	620b      	str	r3, [r1, #32]
10002aea:	b002      	add	sp, #8
10002aec:	4770      	bx	lr
10002aee:	4a02      	ldr	r2, [pc, #8]	@ (10002af8 <_ZN11RangedEnemyC1E4Vec2b+0x48>)
10002af0:	4618      	mov	r0, r3
10002af2:	e9cc 2302 	strd	r2, r3, [ip, #8]
10002af6:	e7eb      	b.n	10002ad0 <_ZN11RangedEnemyC1E4Vec2b+0x20>
10002af8:	ffce0000 	.word	0xffce0000

10002afc <_ZN11RangedEnemy10takeDamageEi>:
10002afc:	7c03      	ldrb	r3, [r0, #16]
10002afe:	4602      	mov	r2, r0
10002b00:	1a59      	subs	r1, r3, r1
10002b02:	b2c9      	uxtb	r1, r1
10002b04:	fab1 f081 	clz	r0, r1
10002b08:	7411      	strb	r1, [r2, #16]
10002b0a:	0940      	lsrs	r0, r0, #5
10002b0c:	4770      	bx	lr
10002b0e:	bf00      	nop

10002b10 <_ZNK11RangedEnemy11getColliderEv>:
10002b10:	f44f 1280 	mov.w	r2, #1048576	@ 0x100000
10002b14:	b410      	push	{r4}
10002b16:	680c      	ldr	r4, [r1, #0]
10002b18:	6849      	ldr	r1, [r1, #4]
10002b1a:	6004      	str	r4, [r0, #0]
10002b1c:	e9c0 1201 	strd	r1, r2, [r0, #4]
10002b20:	f85d 4b04 	ldr.w	r4, [sp], #4
10002b24:	60c2      	str	r2, [r0, #12]
10002b26:	4770      	bx	lr

10002b28 <_ZN11RangedEnemy18checkWallCollisionERK5Level>:
10002b28:	e92d 41f0 	stmdb	sp!, {r4, r5, r6, r7, r8, lr}
10002b2c:	e9d0 6500 	ldrd	r6, r5, [r0]
10002b30:	2d00      	cmp	r5, #0
10002b32:	bfae      	itee	ge
10002b34:	462c      	movge	r4, r5
10002b36:	f505 247f 	addlt.w	r4, r5, #1044480	@ 0xff000
10002b3a:	f604 74ff 	addwlt	r4, r4, #4095	@ 0xfff
10002b3e:	6883      	ldr	r3, [r0, #8]
10002b40:	f515 2570 	adds.w	r5, r5, #983040	@ 0xf0000
10002b44:	bf44      	itt	mi
10002b46:	f505 257f 	addmi.w	r5, r5, #1044480	@ 0xff000
10002b4a:	f605 75ff 	addwmi	r5, r5, #4095	@ 0xfff
10002b4e:	2b00      	cmp	r3, #0
10002b50:	4680      	mov	r8, r0
10002b52:	460f      	mov	r7, r1
10002b54:	ea4f 5424 	mov.w	r4, r4, asr #20
10002b58:	ea4f 5525 	mov.w	r5, r5, asr #20
10002b5c:	dd29      	ble.n	10002bb2 <_ZN11RangedEnemy18checkWallCollisionERK5Level+0x8a>
10002b5e:	42a5      	cmp	r5, r4
10002b60:	db25      	blt.n	10002bae <_ZN11RangedEnemy18checkWallCollisionERK5Level+0x86>
10002b62:	f516 2670 	adds.w	r6, r6, #983040	@ 0xf0000
10002b66:	bf44      	itt	mi
10002b68:	f506 267f 	addmi.w	r6, r6, #1044480	@ 0xff000
10002b6c:	f606 76ff 	addwmi	r6, r6, #4095	@ 0xfff
10002b70:	1536      	asrs	r6, r6, #20
10002b72:	e001      	b.n	10002b78 <_ZN11RangedEnemy18checkWallCollisionERK5Level+0x50>
10002b74:	42a5      	cmp	r5, r4
10002b76:	db1a      	blt.n	10002bae <_ZN11RangedEnemy18checkWallCollisionERK5Level+0x86>
10002b78:	4622      	mov	r2, r4
10002b7a:	4631      	mov	r1, r6
10002b7c:	4638      	mov	r0, r7
10002b7e:	f001 f8a5 	bl	10003ccc <_ZNK5Level7isSolidEii>
10002b82:	3401      	adds	r4, #1
10002b84:	2800      	cmp	r0, #0
10002b86:	d0f5      	beq.n	10002b74 <_ZN11RangedEnemy18checkWallCollisionERK5Level+0x4c>
10002b88:	0136      	lsls	r6, r6, #4
10002b8a:	ee07 6a90 	vmov	s15, r6
10002b8e:	eef8 7ae7 	vcvt.f32.s32	s15, s15
10002b92:	eefe 7ac8 	vcvt.s32.f32	s15, s15, #16
10002b96:	f898 3024 	ldrb.w	r3, [r8, #36]	@ 0x24
10002b9a:	f023 0301 	bic.w	r3, r3, #1
10002b9e:	f888 3024 	strb.w	r3, [r8, #36]	@ 0x24
10002ba2:	ee17 3a90 	vmov	r3, s15
10002ba6:	f5a3 1380 	sub.w	r3, r3, #1048576	@ 0x100000
10002baa:	f8c8 3000 	str.w	r3, [r8]
10002bae:	e8bd 81f0 	ldmia.w	sp!, {r4, r5, r6, r7, r8, pc}
10002bb2:	d0fc      	beq.n	10002bae <_ZN11RangedEnemy18checkWallCollisionERK5Level+0x86>
10002bb4:	42a5      	cmp	r5, r4
10002bb6:	dbfa      	blt.n	10002bae <_ZN11RangedEnemy18checkWallCollisionERK5Level+0x86>
10002bb8:	2e00      	cmp	r6, #0
10002bba:	bfbc      	itt	lt
10002bbc:	f506 267f 	addlt.w	r6, r6, #1044480	@ 0xff000
10002bc0:	f606 76ff 	addwlt	r6, r6, #4095	@ 0xfff
10002bc4:	1536      	asrs	r6, r6, #20
10002bc6:	e001      	b.n	10002bcc <_ZN11RangedEnemy18checkWallCollisionERK5Level+0xa4>
10002bc8:	42a5      	cmp	r5, r4
10002bca:	dbf0      	blt.n	10002bae <_ZN11RangedEnemy18checkWallCollisionERK5Level+0x86>
10002bcc:	4622      	mov	r2, r4
10002bce:	4631      	mov	r1, r6
10002bd0:	4638      	mov	r0, r7
10002bd2:	f001 f87b 	bl	10003ccc <_ZNK5Level7isSolidEii>
10002bd6:	3401      	adds	r4, #1
10002bd8:	2800      	cmp	r0, #0
10002bda:	d0f5      	beq.n	10002bc8 <_ZN11RangedEnemy18checkWallCollisionERK5Level+0xa0>
10002bdc:	3601      	adds	r6, #1
10002bde:	0136      	lsls	r6, r6, #4
10002be0:	ee07 6a90 	vmov	s15, r6
10002be4:	eef8 7ae7 	vcvt.f32.s32	s15, s15
10002be8:	eefe 7ac8 	vcvt.s32.f32	s15, s15, #16
10002bec:	f898 3024 	ldrb.w	r3, [r8, #36]	@ 0x24
10002bf0:	edc8 7a00 	vstr	s15, [r8]
10002bf4:	f043 0301 	orr.w	r3, r3, #1
10002bf8:	f888 3024 	strb.w	r3, [r8, #36]	@ 0x24
10002bfc:	e7d7      	b.n	10002bae <_ZN11RangedEnemy18checkWallCollisionERK5Level+0x86>
10002bfe:	bf00      	nop

10002c00 <_ZN11RangedEnemy22resolveVerticalTerrainERK5Levell>:
10002c00:	e92d 4ff0 	stmdb	sp!, {r4, r5, r6, r7, r8, r9, sl, fp, lr}
10002c04:	e9d0 5900 	ldrd	r5, r9, [r0]
10002c08:	2d00      	cmp	r5, #0
10002c0a:	bfa8      	it	ge
10002c0c:	46ab      	movge	fp, r5
10002c0e:	ed2d 8b02 	vpush	{d8}
10002c12:	bfbc      	itt	lt
10002c14:	f505 2b7f 	addlt.w	fp, r5, #1044480	@ 0xff000
10002c18:	f60b 7bff 	addwlt	fp, fp, #4095	@ 0xfff
10002c1c:	68c3      	ldr	r3, [r0, #12]
10002c1e:	f515 2570 	adds.w	r5, r5, #983040	@ 0xf0000
10002c22:	bf44      	itt	mi
10002c24:	f505 257f 	addmi.w	r5, r5, #1044480	@ 0xff000
10002c28:	f605 75ff 	addwmi	r5, r5, #4095	@ 0xfff
10002c2c:	2b00      	cmp	r3, #0
10002c2e:	4680      	mov	r8, r0
10002c30:	460e      	mov	r6, r1
10002c32:	b083      	sub	sp, #12
10002c34:	ea4f 5b2b 	mov.w	fp, fp, asr #20
10002c38:	ea4f 5525 	mov.w	r5, r5, asr #20
10002c3c:	dd7e      	ble.n	10002d3c <_ZN11RangedEnemy22resolveVerticalTerrainERK5Levell+0x13c>
10002c3e:	f519 2370 	adds.w	r3, r9, #983040	@ 0xf0000
10002c42:	bf44      	itt	mi
10002c44:	f503 237f 	addmi.w	r3, r3, #1044480	@ 0xff000
10002c48:	f603 73ff 	addwmi	r3, r3, #4095	@ 0xfff
10002c4c:	f512 2c70 	adds.w	ip, r2, #983040	@ 0xf0000
10002c50:	bf44      	itt	mi
10002c52:	f50c 2c7f 	addmi.w	ip, ip, #1044480	@ 0xff000
10002c56:	f60c 7cff 	addwmi	ip, ip, #4095	@ 0xfff
10002c5a:	ea4f 5c2c 	mov.w	ip, ip, asr #20
10002c5e:	151b      	asrs	r3, r3, #20
10002c60:	459c      	cmp	ip, r3
10002c62:	46e2      	mov	sl, ip
10002c64:	bfa8      	it	ge
10002c66:	469a      	movge	sl, r3
10002c68:	459c      	cmp	ip, r3
10002c6a:	bfb8      	it	lt
10002c6c:	469c      	movlt	ip, r3
10002c6e:	45e2      	cmp	sl, ip
10002c70:	dc27      	bgt.n	10002cc2 <_ZN11RangedEnemy22resolveVerticalTerrainERK5Levell+0xc2>
10002c72:	4657      	mov	r7, sl
10002c74:	f8cd a000 	str.w	sl, [sp]
10002c78:	f8cd 9004 	str.w	r9, [sp, #4]
10002c7c:	46da      	mov	sl, fp
10002c7e:	46a9      	mov	r9, r5
10002c80:	4693      	mov	fp, r2
10002c82:	4665      	mov	r5, ip
10002c84:	45d1      	cmp	r9, sl
10002c86:	bfa8      	it	ge
10002c88:	4654      	movge	r4, sl
10002c8a:	da02      	bge.n	10002c92 <_ZN11RangedEnemy22resolveVerticalTerrainERK5Levell+0x92>
10002c8c:	e01e      	b.n	10002ccc <_ZN11RangedEnemy22resolveVerticalTerrainERK5Levell+0xcc>
10002c8e:	454c      	cmp	r4, r9
10002c90:	dc1c      	bgt.n	10002ccc <_ZN11RangedEnemy22resolveVerticalTerrainERK5Levell+0xcc>
10002c92:	4621      	mov	r1, r4
10002c94:	463a      	mov	r2, r7
10002c96:	4630      	mov	r0, r6
10002c98:	f001 f818 	bl	10003ccc <_ZNK5Level7isSolidEii>
10002c9c:	3401      	adds	r4, #1
10002c9e:	2800      	cmp	r0, #0
10002ca0:	d0f5      	beq.n	10002c8e <_ZN11RangedEnemy22resolveVerticalTerrainERK5Levell+0x8e>
10002ca2:	013f      	lsls	r7, r7, #4
10002ca4:	ee07 7a90 	vmov	s15, r7
10002ca8:	eef8 7ae7 	vcvt.f32.s32	s15, s15
10002cac:	2300      	movs	r3, #0
10002cae:	eefe 7ac8 	vcvt.s32.f32	s15, s15, #16
10002cb2:	f8c8 300c 	str.w	r3, [r8, #12]
10002cb6:	ee17 3a90 	vmov	r3, s15
10002cba:	f5a3 1380 	sub.w	r3, r3, #1048576	@ 0x100000
10002cbe:	f8c8 3004 	str.w	r3, [r8, #4]
10002cc2:	b003      	add	sp, #12
10002cc4:	ecbd 8b02 	vpop	{d8}
10002cc8:	e8bd 8ff0 	ldmia.w	sp!, {r4, r5, r6, r7, r8, r9, sl, fp, pc}
10002ccc:	3701      	adds	r7, #1
10002cce:	42af      	cmp	r7, r5
10002cd0:	ddd8      	ble.n	10002c84 <_ZN11RangedEnemy22resolveVerticalTerrainERK5Levell+0x84>
10002cd2:	46ac      	mov	ip, r5
10002cd4:	465a      	mov	r2, fp
10002cd6:	464d      	mov	r5, r9
10002cd8:	f8dd 9004 	ldr.w	r9, [sp, #4]
10002cdc:	46d3      	mov	fp, sl
10002cde:	f509 1780 	add.w	r7, r9, #1048576	@ 0x100000
10002ce2:	f8dd a000 	ldr.w	sl, [sp]
10002ce6:	f502 1980 	add.w	r9, r2, #1048576	@ 0x100000
10002cea:	f8cd c000 	str.w	ip, [sp]
10002cee:	455d      	cmp	r5, fp
10002cf0:	db1e      	blt.n	10002d30 <_ZN11RangedEnemy22resolveVerticalTerrainERK5Levell+0x130>
10002cf2:	ea4f 130a 	mov.w	r3, sl, lsl #4
10002cf6:	3308      	adds	r3, #8
10002cf8:	465c      	mov	r4, fp
10002cfa:	ee08 3a10 	vmov	s16, r3
10002cfe:	4621      	mov	r1, r4
10002d00:	4652      	mov	r2, sl
10002d02:	4630      	mov	r0, r6
10002d04:	f001 f80a 	bl	10003d1c <_ZNK5Level10isPlatformEii>
10002d08:	3401      	adds	r4, #1
10002d0a:	b178      	cbz	r0, 10002d2c <_ZN11RangedEnemy22resolveVerticalTerrainERK5Levell+0x12c>
10002d0c:	eef8 7ac8 	vcvt.f32.s32	s15, s16
10002d10:	eeb0 7a67 	vmov.f32	s14, s15
10002d14:	eebe 7ac8 	vcvt.s32.f32	s14, s14, #16
10002d18:	ee17 3a10 	vmov	r3, s14
10002d1c:	4599      	cmp	r9, r3
10002d1e:	dc05      	bgt.n	10002d2c <_ZN11RangedEnemy22resolveVerticalTerrainERK5Levell+0x12c>
10002d20:	429f      	cmp	r7, r3
10002d22:	db03      	blt.n	10002d2c <_ZN11RangedEnemy22resolveVerticalTerrainERK5Levell+0x12c>
10002d24:	f8d8 200c 	ldr.w	r2, [r8, #12]
10002d28:	2a00      	cmp	r2, #0
10002d2a:	da47      	bge.n	10002dbc <_ZN11RangedEnemy22resolveVerticalTerrainERK5Levell+0x1bc>
10002d2c:	42ac      	cmp	r4, r5
10002d2e:	dde6      	ble.n	10002cfe <_ZN11RangedEnemy22resolveVerticalTerrainERK5Levell+0xfe>
10002d30:	9b00      	ldr	r3, [sp, #0]
10002d32:	f10a 0a01 	add.w	sl, sl, #1
10002d36:	459a      	cmp	sl, r3
10002d38:	ddd9      	ble.n	10002cee <_ZN11RangedEnemy22resolveVerticalTerrainERK5Levell+0xee>
10002d3a:	e7c2      	b.n	10002cc2 <_ZN11RangedEnemy22resolveVerticalTerrainERK5Levell+0xc2>
10002d3c:	d0c1      	beq.n	10002cc2 <_ZN11RangedEnemy22resolveVerticalTerrainERK5Levell+0xc2>
10002d3e:	f1b9 0700 	subs.w	r7, r9, #0
10002d42:	bfbc      	itt	lt
10002d44:	f507 277f 	addlt.w	r7, r7, #1044480	@ 0xff000
10002d48:	f607 77ff 	addwlt	r7, r7, #4095	@ 0xfff
10002d4c:	f1b2 0900 	subs.w	r9, r2, #0
10002d50:	bfbc      	itt	lt
10002d52:	f509 297f 	addlt.w	r9, r9, #1044480	@ 0xff000
10002d56:	f609 79ff 	addwlt	r9, r9, #4095	@ 0xfff
10002d5a:	153f      	asrs	r7, r7, #20
10002d5c:	ea4f 5929 	mov.w	r9, r9, asr #20
10002d60:	454f      	cmp	r7, r9
10002d62:	46ba      	mov	sl, r7
10002d64:	bfa8      	it	ge
10002d66:	46ca      	movge	sl, r9
10002d68:	454f      	cmp	r7, r9
10002d6a:	bfb8      	it	lt
10002d6c:	464f      	movlt	r7, r9
10002d6e:	45ba      	cmp	sl, r7
10002d70:	dca7      	bgt.n	10002cc2 <_ZN11RangedEnemy22resolveVerticalTerrainERK5Levell+0xc2>
10002d72:	455d      	cmp	r5, fp
10002d74:	bfa8      	it	ge
10002d76:	465c      	movge	r4, fp
10002d78:	da02      	bge.n	10002d80 <_ZN11RangedEnemy22resolveVerticalTerrainERK5Levell+0x180>
10002d7a:	e01b      	b.n	10002db4 <_ZN11RangedEnemy22resolveVerticalTerrainERK5Levell+0x1b4>
10002d7c:	42ac      	cmp	r4, r5
10002d7e:	dc19      	bgt.n	10002db4 <_ZN11RangedEnemy22resolveVerticalTerrainERK5Levell+0x1b4>
10002d80:	4621      	mov	r1, r4
10002d82:	463a      	mov	r2, r7
10002d84:	4630      	mov	r0, r6
10002d86:	f000 ffa1 	bl	10003ccc <_ZNK5Level7isSolidEii>
10002d8a:	3401      	adds	r4, #1
10002d8c:	2800      	cmp	r0, #0
10002d8e:	d0f5      	beq.n	10002d7c <_ZN11RangedEnemy22resolveVerticalTerrainERK5Levell+0x17c>
10002d90:	3701      	adds	r7, #1
10002d92:	013f      	lsls	r7, r7, #4
10002d94:	ee07 7a90 	vmov	s15, r7
10002d98:	eef8 7ae7 	vcvt.f32.s32	s15, s15
10002d9c:	2300      	movs	r3, #0
10002d9e:	eefe 7ac8 	vcvt.s32.f32	s15, s15, #16
10002da2:	f8c8 300c 	str.w	r3, [r8, #12]
10002da6:	edc8 7a01 	vstr	s15, [r8, #4]
10002daa:	b003      	add	sp, #12
10002dac:	ecbd 8b02 	vpop	{d8}
10002db0:	e8bd 8ff0 	ldmia.w	sp!, {r4, r5, r6, r7, r8, r9, sl, fp, pc}
10002db4:	3f01      	subs	r7, #1
10002db6:	45ba      	cmp	sl, r7
10002db8:	dddb      	ble.n	10002d72 <_ZN11RangedEnemy22resolveVerticalTerrainERK5Levell+0x172>
10002dba:	e782      	b.n	10002cc2 <_ZN11RangedEnemy22resolveVerticalTerrainERK5Levell+0xc2>
10002dbc:	2200      	movs	r2, #0
10002dbe:	f5a3 1380 	sub.w	r3, r3, #1048576	@ 0x100000
10002dc2:	f8c8 3004 	str.w	r3, [r8, #4]
10002dc6:	f8c8 200c 	str.w	r2, [r8, #12]
10002dca:	e77a      	b.n	10002cc2 <_ZN11RangedEnemy22resolveVerticalTerrainERK5Levell+0xc2>

10002dcc <_ZNK11RangedEnemy14hasLineOfSightE4Vec2RK5Level>:
10002dcc:	e92d 4ff0 	stmdb	sp!, {r4, r5, r6, r7, r8, r9, sl, fp, lr}
10002dd0:	b087      	sub	sp, #28
10002dd2:	ac06      	add	r4, sp, #24
10002dd4:	e904 0006 	stmdb	r4, {r1, r2}
10002dd8:	6801      	ldr	r1, [r0, #0]
10002dda:	6842      	ldr	r2, [r0, #4]
10002ddc:	f511 2100 	adds.w	r1, r1, #524288	@ 0x80000
10002de0:	bf48      	it	mi
10002de2:	f501 217f 	addmi.w	r1, r1, #1044480	@ 0xff000
10002de6:	9d04      	ldr	r5, [sp, #16]
10002de8:	bf48      	it	mi
10002dea:	f601 71ff 	addwmi	r1, r1, #4095	@ 0xfff
10002dee:	f512 2200 	adds.w	r2, r2, #524288	@ 0x80000
10002df2:	bf44      	itt	mi
10002df4:	f502 227f 	addmi.w	r2, r2, #1044480	@ 0xff000
10002df8:	f602 72ff 	addwmi	r2, r2, #4095	@ 0xfff
10002dfc:	461e      	mov	r6, r3
10002dfe:	2d00      	cmp	r5, #0
10002e00:	9b05      	ldr	r3, [sp, #20]
10002e02:	bfbc      	itt	lt
10002e04:	f505 257f 	addlt.w	r5, r5, #1044480	@ 0xff000
10002e08:	f605 75ff 	addwlt	r5, r5, #4095	@ 0xfff
10002e0c:	2b00      	cmp	r3, #0
10002e0e:	bfb8      	it	lt
10002e10:	f503 237f 	addlt.w	r3, r3, #1044480	@ 0xff000
10002e14:	ea4f 5b21 	mov.w	fp, r1, asr #20
10002e18:	ea4f 5525 	mov.w	r5, r5, asr #20
10002e1c:	bfb8      	it	lt
10002e1e:	f603 73ff 	addwlt	r3, r3, #4095	@ 0xfff
10002e22:	ea4f 5a22 	mov.w	sl, r2, asr #20
10002e26:	eba5 040b 	sub.w	r4, r5, fp
10002e2a:	ebca 5923 	rsb	r9, sl, r3, asr #20
10002e2e:	2c00      	cmp	r4, #0
10002e30:	bfb8      	it	lt
10002e32:	4264      	neglt	r4, r4
10002e34:	f1b9 0f00 	cmp.w	r9, #0
10002e38:	bfb8      	it	lt
10002e3a:	f1c9 0900 	rsblt	r9, r9, #0
10002e3e:	455d      	cmp	r5, fp
10002e40:	bfd4      	ite	le
10002e42:	f04f 32ff 	movle.w	r2, #4294967295
10002e46:	2201      	movgt	r2, #1
10002e48:	ebba 5f23 	cmp.w	sl, r3, asr #20
10002e4c:	ea4f 5323 	mov.w	r3, r3, asr #20
10002e50:	9303      	str	r3, [sp, #12]
10002e52:	bfac      	ite	ge
10002e54:	f04f 33ff 	movge.w	r3, #4294967295
10002e58:	2301      	movlt	r3, #1
10002e5a:	9201      	str	r2, [sp, #4]
10002e5c:	9302      	str	r3, [sp, #8]
10002e5e:	eba4 0809 	sub.w	r8, r4, r9
10002e62:	f1c9 0700 	rsb	r7, r9, #0
10002e66:	4652      	mov	r2, sl
10002e68:	4659      	mov	r1, fp
10002e6a:	4630      	mov	r0, r6
10002e6c:	f000 ff2e 	bl	10003ccc <_ZNK5Level7isSolidEii>
10002e70:	ea4f 0348 	mov.w	r3, r8, lsl #1
10002e74:	b9b0      	cbnz	r0, 10002ea4 <_ZNK11RangedEnemy14hasLineOfSightE4Vec2RK5Level+0xd8>
10002e76:	45ab      	cmp	fp, r5
10002e78:	d018      	beq.n	10002eac <_ZNK11RangedEnemy14hasLineOfSightE4Vec2RK5Level+0xe0>
10002e7a:	ebb7 0f48 	cmp.w	r7, r8, lsl #1
10002e7e:	da03      	bge.n	10002e88 <_ZNK11RangedEnemy14hasLineOfSightE4Vec2RK5Level+0xbc>
10002e80:	9a01      	ldr	r2, [sp, #4]
10002e82:	eba8 0809 	sub.w	r8, r8, r9
10002e86:	4493      	add	fp, r2
10002e88:	429c      	cmp	r4, r3
10002e8a:	ddec      	ble.n	10002e66 <_ZNK11RangedEnemy14hasLineOfSightE4Vec2RK5Level+0x9a>
10002e8c:	9b02      	ldr	r3, [sp, #8]
10002e8e:	4659      	mov	r1, fp
10002e90:	449a      	add	sl, r3
10002e92:	4652      	mov	r2, sl
10002e94:	4630      	mov	r0, r6
10002e96:	f000 ff19 	bl	10003ccc <_ZNK5Level7isSolidEii>
10002e9a:	44a0      	add	r8, r4
10002e9c:	ea4f 0348 	mov.w	r3, r8, lsl #1
10002ea0:	2800      	cmp	r0, #0
10002ea2:	d0e8      	beq.n	10002e76 <_ZNK11RangedEnemy14hasLineOfSightE4Vec2RK5Level+0xaa>
10002ea4:	2000      	movs	r0, #0
10002ea6:	b007      	add	sp, #28
10002ea8:	e8bd 8ff0 	ldmia.w	sp!, {r4, r5, r6, r7, r8, r9, sl, fp, pc}
10002eac:	9a03      	ldr	r2, [sp, #12]
10002eae:	4592      	cmp	sl, r2
10002eb0:	d1e3      	bne.n	10002e7a <_ZNK11RangedEnemy14hasLineOfSightE4Vec2RK5Level+0xae>
10002eb2:	2001      	movs	r0, #1
10002eb4:	b007      	add	sp, #28
10002eb6:	e8bd 8ff0 	ldmia.w	sp!, {r4, r5, r6, r7, r8, r9, sl, fp, pc}
10002eba:	bf00      	nop

10002ebc <_ZN11RangedEnemy6updateEfRK5LevelRK6PlayerR10EntityPoolI15EnemyProjectileLj30EE>:
10002ebc:	e92d 43f0 	stmdb	sp!, {r4, r5, r6, r7, r8, r9, lr}
10002ec0:	ed2d 8b02 	vpush	{d8}
10002ec4:	ee08 1a10 	vmov	s16, r1
10002ec8:	eeb0 7a48 	vmov.f32	s14, s16
10002ecc:	eebe 7ac8 	vcvt.s32.f32	s14, s14, #16
10002ed0:	f04f 7c75 	mov.w	ip, #64225280	@ 0x3d40000
10002ed4:	ee17 5a10 	vmov	r5, s14
10002ed8:	edd0 7a07 	vldr	s15, [r0, #28]
10002edc:	fb85 c10c 	smull	ip, r1, r5, ip
10002ee0:	461f      	mov	r7, r3
10002ee2:	ea4f 4c1c 	mov.w	ip, ip, lsr #16
10002ee6:	68c3      	ldr	r3, [r0, #12]
10002ee8:	ea4c 4c01 	orr.w	ip, ip, r1, lsl #16
10002eec:	4463      	add	r3, ip
10002eee:	f1b3 7ffa 	cmp.w	r3, #32768000	@ 0x1f40000
10002ef2:	bfa8      	it	ge
10002ef4:	f04f 73fa 	movge.w	r3, #32768000	@ 0x1f40000
10002ef8:	ee77 7a88 	vadd.f32	s15, s15, s16
10002efc:	b091      	sub	sp, #68	@ 0x44
10002efe:	60c3      	str	r3, [r0, #12]
10002f00:	e9d7 8100 	ldrd	r8, r1, [r7]
10002f04:	4616      	mov	r6, r2
10002f06:	e9d0 e200 	ldrd	lr, r2, [r0]
10002f0a:	eba8 030e 	sub.w	r3, r8, lr
10002f0e:	fb83 3903 	smull	r3, r9, r3, r3
10002f12:	eba1 0c02 	sub.w	ip, r1, r2
10002f16:	0c1b      	lsrs	r3, r3, #16
10002f18:	ea43 4309 	orr.w	r3, r3, r9, lsl #16
10002f1c:	fb8c c90c 	smull	ip, r9, ip, ip
10002f20:	ea4f 4c1c 	mov.w	ip, ip, lsr #16
10002f24:	ea4c 4c09 	orr.w	ip, ip, r9, lsl #16
10002f28:	4463      	add	r3, ip
10002f2a:	f1b3 4fc8 	cmp.w	r3, #1677721600	@ 0x64000000
10002f2e:	4604      	mov	r4, r0
10002f30:	edc0 7a07 	vstr	s15, [r0, #28]
10002f34:	dd49      	ble.n	10002fca <_ZN11RangedEnemy6updateEfRK5LevelRK6PlayerR10EntityPoolI15EnemyProjectileLj30EE+0x10e>
10002f36:	f890 3024 	ldrb.w	r3, [r0, #36]	@ 0x24
10002f3a:	0798      	lsls	r0, r3, #30
10002f3c:	f140 80bb 	bpl.w	100030b6 <_ZN11RangedEnemy6updateEfRK5LevelRK6PlayerR10EntityPoolI15EnemyProjectileLj30EE+0x1fa>
10002f40:	edd4 7a08 	vldr	s15, [r4, #32]
10002f44:	ee77 7ac8 	vsub.f32	s15, s15, s16
10002f48:	eef5 7ac0 	vcmpe.f32	s15, #0.0
10002f4c:	eef1 fa10 	vmrs	APSR_nzcv, fpscr
10002f50:	bf9c      	itt	ls
10002f52:	f023 0302 	bicls.w	r3, r3, #2
10002f56:	f884 3024 	strbls.w	r3, [r4, #36]	@ 0x24
10002f5a:	2300      	movs	r3, #0
10002f5c:	edc4 7a08 	vstr	s15, [r4, #32]
10002f60:	60a3      	str	r3, [r4, #8]
10002f62:	4631      	mov	r1, r6
10002f64:	4620      	mov	r0, r4
10002f66:	f8c4 e000 	str.w	lr, [r4]
10002f6a:	f7ff fddd 	bl	10002b28 <_ZN11RangedEnemy18checkWallCollisionERK5Level>
10002f6e:	68e3      	ldr	r3, [r4, #12]
10002f70:	6862      	ldr	r2, [r4, #4]
10002f72:	fb85 5303 	smull	r5, r3, r5, r3
10002f76:	0c2d      	lsrs	r5, r5, #16
10002f78:	ea45 4503 	orr.w	r5, r5, r3, lsl #16
10002f7c:	4415      	add	r5, r2
10002f7e:	4631      	mov	r1, r6
10002f80:	4620      	mov	r0, r4
10002f82:	6065      	str	r5, [r4, #4]
10002f84:	f7ff fe3c 	bl	10002c00 <_ZN11RangedEnemy22resolveVerticalTerrainERK5Levell>
10002f88:	ed94 7a06 	vldr	s14, [r4, #24]
10002f8c:	eddf 7a6e 	vldr	s15, [pc, #440]	@ 10003148 <_ZN11RangedEnemy6updateEfRK5LevelRK6PlayerR10EntityPoolI15EnemyProjectileLj30EE+0x28c>
10002f90:	ee38 8a07 	vadd.f32	s16, s16, s14
10002f94:	eeb4 8ae7 	vcmpe.f32	s16, s15
10002f98:	eef1 fa10 	vmrs	APSR_nzcv, fpscr
10002f9c:	db0e      	blt.n	10002fbc <_ZN11RangedEnemy6updateEfRK5LevelRK6PlayerR10EntityPoolI15EnemyProjectileLj30EE+0x100>
10002f9e:	ee38 8a67 	vsub.f32	s16, s16, s15
10002fa2:	6963      	ldr	r3, [r4, #20]
10002fa4:	4969      	ldr	r1, [pc, #420]	@ (1000314c <_ZN11RangedEnemy6updateEfRK5LevelRK6PlayerR10EntityPoolI15EnemyProjectileLj30EE+0x290>)
10002fa6:	3301      	adds	r3, #1
10002fa8:	fb81 2103 	smull	r2, r1, r1, r3
10002fac:	17da      	asrs	r2, r3, #31
10002fae:	ebc2 0261 	rsb	r2, r2, r1, asr #1
10002fb2:	eb02 0242 	add.w	r2, r2, r2, lsl #1
10002fb6:	eba3 0382 	sub.w	r3, r3, r2, lsl #2
10002fba:	6163      	str	r3, [r4, #20]
10002fbc:	ed84 8a06 	vstr	s16, [r4, #24]
10002fc0:	b011      	add	sp, #68	@ 0x44
10002fc2:	ecbd 8b02 	vpop	{d8}
10002fc6:	e8bd 83f0 	ldmia.w	sp!, {r4, r5, r6, r7, r8, r9, pc}
10002fca:	f508 2300 	add.w	r3, r8, #524288	@ 0x80000
10002fce:	f501 2100 	add.w	r1, r1, #524288	@ 0x80000
10002fd2:	9306      	str	r3, [sp, #24]
10002fd4:	9107      	str	r1, [sp, #28]
10002fd6:	aa06      	add	r2, sp, #24
10002fd8:	4633      	mov	r3, r6
10002fda:	ca06      	ldmia	r2, {r1, r2}
10002fdc:	f7ff fef6 	bl	10002dcc <_ZNK11RangedEnemy14hasLineOfSightE4Vec2RK5Level>
10002fe0:	f894 3024 	ldrb.w	r3, [r4, #36]	@ 0x24
10002fe4:	f8d4 e000 	ldr.w	lr, [r4]
10002fe8:	f013 0102 	ands.w	r1, r3, #2
10002fec:	d1a8      	bne.n	10002f40 <_ZN11RangedEnemy6updateEfRK5LevelRK6PlayerR10EntityPoolI15EnemyProjectileLj30EE+0x84>
10002fee:	6862      	ldr	r2, [r4, #4]
10002ff0:	2800      	cmp	r0, #0
10002ff2:	d060      	beq.n	100030b6 <_ZN11RangedEnemy6updateEfRK5LevelRK6PlayerR10EntityPoolI15EnemyProjectileLj30EE+0x1fa>
10002ff4:	ed94 7a07 	vldr	s14, [r4, #28]
10002ff8:	eef7 7a00 	vmov.f32	s15, #112	@ 0x3f800000  1.0
10002ffc:	eeb4 7ae7 	vcmpe.f32	s14, s15
10003000:	60a1      	str	r1, [r4, #8]
10003002:	e9d7 1000 	ldrd	r1, r0, [r7]
10003006:	4571      	cmp	r1, lr
10003008:	bfcc      	ite	gt
1000300a:	f043 0301 	orrgt.w	r3, r3, #1
1000300e:	f003 03fe 	andle.w	r3, r3, #254	@ 0xfe
10003012:	eef1 fa10 	vmrs	APSR_nzcv, fpscr
10003016:	f884 3024 	strb.w	r3, [r4, #36]	@ 0x24
1000301a:	dba2      	blt.n	10002f62 <_ZN11RangedEnemy6updateEfRK5LevelRK6PlayerR10EntityPoolI15EnemyProjectileLj30EE+0xa6>
1000301c:	1a80      	subs	r0, r0, r2
1000301e:	f502 2280 	add.w	r2, r2, #262144	@ 0x40000
10003022:	9203      	str	r2, [sp, #12]
10003024:	f50e 2280 	add.w	r2, lr, #262144	@ 0x40000
10003028:	9202      	str	r2, [sp, #8]
1000302a:	9a1a      	ldr	r2, [sp, #104]	@ 0x68
1000302c:	eba1 010e 	sub.w	r1, r1, lr
10003030:	2700      	movs	r7, #0
10003032:	9104      	str	r1, [sp, #16]
10003034:	9005      	str	r0, [sp, #20]
10003036:	f202 32bf 	addw	r2, r2, #959	@ 0x3bf
1000303a:	e002      	b.n	10003042 <_ZN11RangedEnemy6updateEfRK5LevelRK6PlayerR10EntityPoolI15EnemyProjectileLj30EE+0x186>
1000303c:	3701      	adds	r7, #1
1000303e:	2f1e      	cmp	r7, #30
10003040:	d030      	beq.n	100030a4 <_ZN11RangedEnemy6updateEfRK5LevelRK6PlayerR10EntityPoolI15EnemyProjectileLj30EE+0x1e8>
10003042:	f812 1f01 	ldrb.w	r1, [r2, #1]!
10003046:	2900      	cmp	r1, #0
10003048:	d1f8      	bne.n	1000303c <_ZN11RangedEnemy6updateEfRK5LevelRK6PlayerR10EntityPoolI15EnemyProjectileLj30EE+0x180>
1000304a:	2201      	movs	r2, #1
1000304c:	9b1a      	ldr	r3, [sp, #104]	@ 0x68
1000304e:	443b      	add	r3, r7
10003050:	f883 23c0 	strb.w	r2, [r3, #960]	@ 0x3c0
10003054:	9b1a      	ldr	r3, [sp, #104]	@ 0x68
10003056:	f8d3 33e0 	ldr.w	r3, [r3, #992]	@ 0x3e0
1000305a:	42bb      	cmp	r3, r7
1000305c:	d803      	bhi.n	10003066 <_ZN11RangedEnemy6updateEfRK5LevelRK6PlayerR10EntityPoolI15EnemyProjectileLj30EE+0x1aa>
1000305e:	18bb      	adds	r3, r7, r2
10003060:	9a1a      	ldr	r2, [sp, #104]	@ 0x68
10003062:	f8c2 33e0 	str.w	r3, [r2, #992]	@ 0x3e0
10003066:	9b05      	ldr	r3, [sp, #20]
10003068:	aa02      	add	r2, sp, #8
1000306a:	9300      	str	r3, [sp, #0]
1000306c:	ca06      	ldmia	r2, {r1, r2}
1000306e:	9b04      	ldr	r3, [sp, #16]
10003070:	a808      	add	r0, sp, #32
10003072:	f000 f8d5 	bl	10003220 <_ZN15EnemyProjectileC1E4Vec2S0_>
10003076:	9b1a      	ldr	r3, [sp, #104]	@ 0x68
10003078:	6822      	ldr	r2, [r4, #0]
1000307a:	eb03 1747 	add.w	r7, r3, r7, lsl #5
1000307e:	68a3      	ldr	r3, [r4, #8]
10003080:	f10d 0c20 	add.w	ip, sp, #32
10003084:	fb85 3103 	smull	r3, r1, r5, r3
10003088:	0c1b      	lsrs	r3, r3, #16
1000308a:	ea43 4301 	orr.w	r3, r3, r1, lsl #16
1000308e:	eb02 0e03 	add.w	lr, r2, r3
10003092:	e8bc 000f 	ldmia.w	ip!, {r0, r1, r2, r3}
10003096:	c70f      	stmia	r7!, {r0, r1, r2, r3}
10003098:	e89c 000f 	ldmia.w	ip, {r0, r1, r2, r3}
1000309c:	e887 000f 	stmia.w	r7, {r0, r1, r2, r3}
100030a0:	f894 3024 	ldrb.w	r3, [r4, #36]	@ 0x24
100030a4:	f043 0302 	orr.w	r3, r3, #2
100030a8:	f884 3024 	strb.w	r3, [r4, #36]	@ 0x24
100030ac:	2300      	movs	r3, #0
100030ae:	4a28      	ldr	r2, [pc, #160]	@ (10003150 <_ZN11RangedEnemy6updateEfRK5LevelRK6PlayerR10EntityPoolI15EnemyProjectileLj30EE+0x294>)
100030b0:	61e3      	str	r3, [r4, #28]
100030b2:	6222      	str	r2, [r4, #32]
100030b4:	e755      	b.n	10002f62 <_ZN11RangedEnemy6updateEfRK5LevelRK6PlayerR10EntityPoolI15EnemyProjectileLj30EE+0xa6>
100030b6:	07d9      	lsls	r1, r3, #31
100030b8:	bf4c      	ite	mi
100030ba:	f50e 1180 	addmi.w	r1, lr, #1048576	@ 0x100000
100030be:	f5ae 3180 	subpl.w	r1, lr, #65536	@ 0x10000
100030c2:	2900      	cmp	r1, #0
100030c4:	bfbc      	itt	lt
100030c6:	f501 217f 	addlt.w	r1, r1, #1044480	@ 0xff000
100030ca:	f601 71ff 	addwlt	r1, r1, #4095	@ 0xfff
100030ce:	f512 1288 	adds.w	r2, r2, #1114112	@ 0x110000
100030d2:	bf44      	itt	mi
100030d4:	f502 227f 	addmi.w	r2, r2, #1044480	@ 0xff000
100030d8:	f602 72ff 	addwmi	r2, r2, #4095	@ 0xfff
100030dc:	ea4f 5821 	mov.w	r8, r1, asr #20
100030e0:	1517      	asrs	r7, r2, #20
100030e2:	463a      	mov	r2, r7
100030e4:	4641      	mov	r1, r8
100030e6:	4630      	mov	r0, r6
100030e8:	f000 fdf0 	bl	10003ccc <_ZNK5Level7isSolidEii>
100030ec:	b198      	cbz	r0, 10003116 <_ZN11RangedEnemy6updateEfRK5LevelRK6PlayerR10EntityPoolI15EnemyProjectileLj30EE+0x25a>
100030ee:	f894 3024 	ldrb.w	r3, [r4, #36]	@ 0x24
100030f2:	07db      	lsls	r3, r3, #31
100030f4:	d41e      	bmi.n	10003134 <_ZN11RangedEnemy6updateEfRK5LevelRK6PlayerR10EntityPoolI15EnemyProjectileLj30EE+0x278>
100030f6:	4b17      	ldr	r3, [pc, #92]	@ (10003154 <_ZN11RangedEnemy6updateEfRK5LevelRK6PlayerR10EntityPoolI15EnemyProjectileLj30EE+0x298>)
100030f8:	f04f 31ff 	mov.w	r1, #4294967295
100030fc:	461a      	mov	r2, r3
100030fe:	60a2      	str	r2, [r4, #8]
10003100:	fba5 3203 	umull	r3, r2, r5, r3
10003104:	fb05 2201 	mla	r2, r5, r1, r2
10003108:	0c1b      	lsrs	r3, r3, #16
1000310a:	ea43 4302 	orr.w	r3, r3, r2, lsl #16
1000310e:	6822      	ldr	r2, [r4, #0]
10003110:	eb02 0e03 	add.w	lr, r2, r3
10003114:	e725      	b.n	10002f62 <_ZN11RangedEnemy6updateEfRK5LevelRK6PlayerR10EntityPoolI15EnemyProjectileLj30EE+0xa6>
10003116:	463a      	mov	r2, r7
10003118:	4641      	mov	r1, r8
1000311a:	4630      	mov	r0, r6
1000311c:	f000 fdfe 	bl	10003d1c <_ZNK5Level10isPlatformEii>
10003120:	f894 3024 	ldrb.w	r3, [r4, #36]	@ 0x24
10003124:	2800      	cmp	r0, #0
10003126:	d1e4      	bne.n	100030f2 <_ZN11RangedEnemy6updateEfRK5LevelRK6PlayerR10EntityPoolI15EnemyProjectileLj30EE+0x236>
10003128:	07da      	lsls	r2, r3, #31
1000312a:	d408      	bmi.n	1000313e <_ZN11RangedEnemy6updateEfRK5LevelRK6PlayerR10EntityPoolI15EnemyProjectileLj30EE+0x282>
1000312c:	f043 0301 	orr.w	r3, r3, #1
10003130:	f884 3024 	strb.w	r3, [r4, #36]	@ 0x24
10003134:	f44f 1348 	mov.w	r3, #3276800	@ 0x320000
10003138:	2100      	movs	r1, #0
1000313a:	461a      	mov	r2, r3
1000313c:	e7df      	b.n	100030fe <_ZN11RangedEnemy6updateEfRK5LevelRK6PlayerR10EntityPoolI15EnemyProjectileLj30EE+0x242>
1000313e:	f023 0301 	bic.w	r3, r3, #1
10003142:	f884 3024 	strb.w	r3, [r4, #36]	@ 0x24
10003146:	e7d6      	b.n	100030f6 <_ZN11RangedEnemy6updateEfRK5LevelRK6PlayerR10EntityPoolI15EnemyProjectileLj30EE+0x23a>
10003148:	3daa9931 	.word	0x3daa9931
1000314c:	2aaaaaab 	.word	0x2aaaaaab
10003150:	3e99999a 	.word	0x3e99999a
10003154:	ffce0000 	.word	0xffce0000

10003158 <_ZN9BossEnemyC1Ev>:
10003158:	b410      	push	{r4}
1000315a:	2200      	movs	r2, #0
1000315c:	2414      	movs	r4, #20
1000315e:	2101      	movs	r1, #1
10003160:	e9c0 2200 	strd	r2, r2, [r0]
10003164:	e9c0 4102 	strd	r4, r1, [r0, #8]
10003168:	6102      	str	r2, [r0, #16]
1000316a:	f85d 4b04 	ldr.w	r4, [sp], #4
1000316e:	4770      	bx	lr

10003170 <_ZN9BossEnemyC1E4Vec28BossType>:
10003170:	4684      	mov	ip, r0
10003172:	b510      	push	{r4, lr}
10003174:	b082      	sub	sp, #8
10003176:	e9cd 1200 	strd	r1, r2, [sp]
1000317a:	2414      	movs	r4, #20
1000317c:	e9dd 0100 	ldrd	r0, r1, [sp]
10003180:	f04f 0e01 	mov.w	lr, #1
10003184:	e88c 0005 	stmia.w	ip, {r0, r2}
10003188:	4660      	mov	r0, ip
1000318a:	f8ac e00c 	strh.w	lr, [ip, #12]
1000318e:	f8cc 4008 	str.w	r4, [ip, #8]
10003192:	f8cc 3010 	str.w	r3, [ip, #16]
10003196:	b002      	add	sp, #8
10003198:	bd10      	pop	{r4, pc}
1000319a:	bf00      	nop

1000319c <_ZN9BossEnemy6updateEfRK5LevelRK6Player>:
1000319c:	4770      	bx	lr
1000319e:	bf00      	nop

100031a0 <_ZN9BossEnemy10takeDamageEi>:
100031a0:	6882      	ldr	r2, [r0, #8]
100031a2:	4603      	mov	r3, r0
100031a4:	1a51      	subs	r1, r2, r1
100031a6:	2900      	cmp	r1, #0
100031a8:	dd02      	ble.n	100031b0 <_ZN9BossEnemy10takeDamageEi+0x10>
100031aa:	2000      	movs	r0, #0
100031ac:	6099      	str	r1, [r3, #8]
100031ae:	4770      	bx	lr
100031b0:	2200      	movs	r2, #0
100031b2:	2001      	movs	r0, #1
100031b4:	609a      	str	r2, [r3, #8]
100031b6:	731a      	strb	r2, [r3, #12]
100031b8:	4770      	bx	lr
100031ba:	bf00      	nop

100031bc <_ZNK9BossEnemy11getColliderEv>:
100031bc:	f44f 1200 	mov.w	r2, #2097152	@ 0x200000
100031c0:	b410      	push	{r4}
100031c2:	680c      	ldr	r4, [r1, #0]
100031c4:	6849      	ldr	r1, [r1, #4]
100031c6:	6004      	str	r4, [r0, #0]
100031c8:	e9c0 1201 	strd	r1, r2, [r0, #4]
100031cc:	f85d 4b04 	ldr.w	r4, [sp], #4
100031d0:	60c2      	str	r2, [r0, #12]
100031d2:	4770      	bx	lr

100031d4 <_ZNK9BossEnemy17computeArenaWallsEP4Rect>:
100031d4:	b430      	push	{r4, r5}
100031d6:	e9d0 2300 	ldrd	r2, r3, [r0]
100031da:	f44f 1480 	mov.w	r4, #1048576	@ 0x100000
100031de:	f04f 6587 	mov.w	r5, #70778880	@ 0x4380000
100031e2:	f1a3 7003 	sub.w	r0, r3, #34340864	@ 0x20c0000
100031e6:	e9c1 4502 	strd	r4, r5, [r1, #8]
100031ea:	e9c1 4506 	strd	r4, r5, [r1, #24]
100031ee:	62cc      	str	r4, [r1, #44]	@ 0x2c
100031f0:	63cc      	str	r4, [r1, #60]	@ 0x3c
100031f2:	f1a2 7407 	sub.w	r4, r2, #35389440	@ 0x21c0000
100031f6:	e9c1 4000 	strd	r4, r0, [r1]
100031fa:	6148      	str	r0, [r1, #20]
100031fc:	f1a3 7407 	sub.w	r4, r3, #35389440	@ 0x21c0000
10003200:	f1a2 7003 	sub.w	r0, r2, #34340864	@ 0x20c0000
10003204:	f103 730b 	add.w	r3, r3, #36438016	@ 0x22c0000
10003208:	f102 720b 	add.w	r2, r2, #36438016	@ 0x22c0000
1000320c:	e9c1 0408 	strd	r0, r4, [r1, #32]
10003210:	628d      	str	r5, [r1, #40]	@ 0x28
10003212:	638d      	str	r5, [r1, #56]	@ 0x38
10003214:	e9c1 030c 	strd	r0, r3, [r1, #48]	@ 0x30
10003218:	bc30      	pop	{r4, r5}
1000321a:	610a      	str	r2, [r1, #16]
1000321c:	4770      	bx	lr
1000321e:	bf00      	nop

10003220 <_ZN15EnemyProjectileC1E4Vec2S0_>:
10003220:	b082      	sub	sp, #8
10003222:	e92d 4ff0 	stmdb	sp!, {r4, r5, r6, r7, r8, r9, sl, fp, lr}
10003226:	4605      	mov	r5, r0
10003228:	b085      	sub	sp, #20
1000322a:	a802      	add	r0, sp, #8
1000322c:	e880 0006 	stmia.w	r0, {r1, r2}
10003230:	c803      	ldmia	r0, {r0, r1}
10003232:	2100      	movs	r1, #0
10003234:	2400      	movs	r4, #0
10003236:	e885 0005 	stmia.w	r5, {r0, r2}
1000323a:	461e      	mov	r6, r3
1000323c:	ea4f 7be3 	mov.w	fp, r3, asr #31
10003240:	fb83 2303 	smull	r2, r3, r3, r3
10003244:	9f10      	ldr	r7, [sp, #64]	@ 0x40
10003246:	0c12      	lsrs	r2, r2, #16
10003248:	ea42 4203 	orr.w	r2, r2, r3, lsl #16
1000324c:	fb87 3007 	smull	r3, r0, r7, r7
10003250:	0c1b      	lsrs	r3, r3, #16
10003252:	ea43 4300 	orr.w	r3, r3, r0, lsl #16
10003256:	441a      	add	r2, r3
10003258:	428a      	cmp	r2, r1
1000325a:	612c      	str	r4, [r5, #16]
1000325c:	61ec      	str	r4, [r5, #28]
1000325e:	7529      	strb	r1, [r5, #20]
10003260:	61a9      	str	r1, [r5, #24]
10003262:	f340 80b4 	ble.w	100033ce <_ZN15EnemyProjectileC1E4Vec2S0_+0x1ae>
10003266:	ea4f 4822 	mov.w	r8, r2, asr #16
1000326a:	ea4f 4902 	mov.w	r9, r2, lsl #16
1000326e:	17d3      	asrs	r3, r2, #31
10003270:	4648      	mov	r0, r9
10003272:	4641      	mov	r1, r8
10003274:	9201      	str	r2, [sp, #4]
10003276:	f00a f953 	bl	1000d520 <____aeabi_ldivmod_veneer>
1000327a:	9a01      	ldr	r2, [sp, #4]
1000327c:	ea4f 7ae7 	mov.w	sl, r7, asr #31
10003280:	4410      	add	r0, r2
10003282:	ebb2 0f60 	cmp.w	r2, r0, asr #1
10003286:	ea4f 0460 	mov.w	r4, r0, asr #1
1000328a:	d06d      	beq.n	10003368 <_ZN15EnemyProjectileC1E4Vec2S0_+0x148>
1000328c:	4622      	mov	r2, r4
1000328e:	17c3      	asrs	r3, r0, #31
10003290:	4641      	mov	r1, r8
10003292:	4648      	mov	r0, r9
10003294:	f00a f944 	bl	1000d520 <____aeabi_ldivmod_veneer>
10003298:	4420      	add	r0, r4
1000329a:	ebb4 0f60 	cmp.w	r4, r0, asr #1
1000329e:	ea4f 0260 	mov.w	r2, r0, asr #1
100032a2:	d05f      	beq.n	10003364 <_ZN15EnemyProjectileC1E4Vec2S0_+0x144>
100032a4:	17c3      	asrs	r3, r0, #31
100032a6:	4641      	mov	r1, r8
100032a8:	4648      	mov	r0, r9
100032aa:	9201      	str	r2, [sp, #4]
100032ac:	f00a f938 	bl	1000d520 <____aeabi_ldivmod_veneer>
100032b0:	9a01      	ldr	r2, [sp, #4]
100032b2:	4410      	add	r0, r2
100032b4:	ebb2 0f60 	cmp.w	r2, r0, asr #1
100032b8:	ea4f 0460 	mov.w	r4, r0, asr #1
100032bc:	d052      	beq.n	10003364 <_ZN15EnemyProjectileC1E4Vec2S0_+0x144>
100032be:	4622      	mov	r2, r4
100032c0:	17c3      	asrs	r3, r0, #31
100032c2:	4641      	mov	r1, r8
100032c4:	4648      	mov	r0, r9
100032c6:	f00a f92b 	bl	1000d520 <____aeabi_ldivmod_veneer>
100032ca:	4420      	add	r0, r4
100032cc:	ebb4 0f60 	cmp.w	r4, r0, asr #1
100032d0:	ea4f 0260 	mov.w	r2, r0, asr #1
100032d4:	d046      	beq.n	10003364 <_ZN15EnemyProjectileC1E4Vec2S0_+0x144>
100032d6:	17c3      	asrs	r3, r0, #31
100032d8:	4641      	mov	r1, r8
100032da:	4648      	mov	r0, r9
100032dc:	9201      	str	r2, [sp, #4]
100032de:	f00a f91f 	bl	1000d520 <____aeabi_ldivmod_veneer>
100032e2:	9a01      	ldr	r2, [sp, #4]
100032e4:	1813      	adds	r3, r2, r0
100032e6:	ebb2 0f63 	cmp.w	r2, r3, asr #1
100032ea:	ea4f 0463 	mov.w	r4, r3, asr #1
100032ee:	d039      	beq.n	10003364 <_ZN15EnemyProjectileC1E4Vec2S0_+0x144>
100032f0:	4622      	mov	r2, r4
100032f2:	4648      	mov	r0, r9
100032f4:	4641      	mov	r1, r8
100032f6:	17db      	asrs	r3, r3, #31
100032f8:	f00a f912 	bl	1000d520 <____aeabi_ldivmod_veneer>
100032fc:	4420      	add	r0, r4
100032fe:	ebb4 0f60 	cmp.w	r4, r0, asr #1
10003302:	ea4f 0260 	mov.w	r2, r0, asr #1
10003306:	d02d      	beq.n	10003364 <_ZN15EnemyProjectileC1E4Vec2S0_+0x144>
10003308:	17c3      	asrs	r3, r0, #31
1000330a:	4641      	mov	r1, r8
1000330c:	4648      	mov	r0, r9
1000330e:	9201      	str	r2, [sp, #4]
10003310:	f00a f906 	bl	1000d520 <____aeabi_ldivmod_veneer>
10003314:	9a01      	ldr	r2, [sp, #4]
10003316:	4410      	add	r0, r2
10003318:	ebb2 0f60 	cmp.w	r2, r0, asr #1
1000331c:	ea4f 0460 	mov.w	r4, r0, asr #1
10003320:	d020      	beq.n	10003364 <_ZN15EnemyProjectileC1E4Vec2S0_+0x144>
10003322:	4622      	mov	r2, r4
10003324:	17c3      	asrs	r3, r0, #31
10003326:	4641      	mov	r1, r8
10003328:	4648      	mov	r0, r9
1000332a:	f00a f8f9 	bl	1000d520 <____aeabi_ldivmod_veneer>
1000332e:	4420      	add	r0, r4
10003330:	ebb4 0f60 	cmp.w	r4, r0, asr #1
10003334:	ea4f 0260 	mov.w	r2, r0, asr #1
10003338:	d014      	beq.n	10003364 <_ZN15EnemyProjectileC1E4Vec2S0_+0x144>
1000333a:	17c3      	asrs	r3, r0, #31
1000333c:	4641      	mov	r1, r8
1000333e:	4648      	mov	r0, r9
10003340:	9201      	str	r2, [sp, #4]
10003342:	f00a f8ed 	bl	1000d520 <____aeabi_ldivmod_veneer>
10003346:	9a01      	ldr	r2, [sp, #4]
10003348:	4410      	add	r0, r2
1000334a:	ebb2 0f60 	cmp.w	r2, r0, asr #1
1000334e:	ea4f 0460 	mov.w	r4, r0, asr #1
10003352:	d007      	beq.n	10003364 <_ZN15EnemyProjectileC1E4Vec2S0_+0x144>
10003354:	4622      	mov	r2, r4
10003356:	17e3      	asrs	r3, r4, #31
10003358:	4648      	mov	r0, r9
1000335a:	4641      	mov	r1, r8
1000335c:	f00a f8e0 	bl	1000d520 <____aeabi_ldivmod_veneer>
10003360:	4420      	add	r0, r4
10003362:	1044      	asrs	r4, r0, #1
10003364:	2c00      	cmp	r4, #0
10003366:	dd2d      	ble.n	100033c4 <_ZN15EnemyProjectileC1E4Vec2S0_+0x1a4>
10003368:	ea4f 78e4 	mov.w	r8, r4, asr #31
1000336c:	ea4f 410b 	mov.w	r1, fp, lsl #16
10003370:	4622      	mov	r2, r4
10003372:	4643      	mov	r3, r8
10003374:	ea41 4116 	orr.w	r1, r1, r6, lsr #16
10003378:	0430      	lsls	r0, r6, #16
1000337a:	f00a f8d1 	bl	1000d520 <____aeabi_ldivmod_veneer>
1000337e:	f44f 06f0 	mov.w	r6, #7864320	@ 0x780000
10003382:	4684      	mov	ip, r0
10003384:	ea4f 410a 	mov.w	r1, sl, lsl #16
10003388:	4643      	mov	r3, r8
1000338a:	4622      	mov	r2, r4
1000338c:	ea41 4117 	orr.w	r1, r1, r7, lsr #16
10003390:	0438      	lsls	r0, r7, #16
10003392:	fb8c 4706 	smull	r4, r7, ip, r6
10003396:	f00a f8c3 	bl	1000d520 <____aeabi_ldivmod_veneer>
1000339a:	0c24      	lsrs	r4, r4, #16
1000339c:	ea44 4407 	orr.w	r4, r4, r7, lsl #16
100033a0:	2c00      	cmp	r4, #0
100033a2:	bfd4      	ite	le
100033a4:	2300      	movle	r3, #0
100033a6:	2301      	movgt	r3, #1
100033a8:	fb80 1606 	smull	r1, r6, r0, r6
100033ac:	0c09      	lsrs	r1, r1, #16
100033ae:	ea41 4106 	orr.w	r1, r1, r6, lsl #16
100033b2:	4628      	mov	r0, r5
100033b4:	e9c5 4102 	strd	r4, r1, [r5, #8]
100033b8:	756b      	strb	r3, [r5, #21]
100033ba:	b005      	add	sp, #20
100033bc:	e8bd 4ff0 	ldmia.w	sp!, {r4, r5, r6, r7, r8, r9, sl, fp, lr}
100033c0:	b002      	add	sp, #8
100033c2:	4770      	bx	lr
100033c4:	2301      	movs	r3, #1
100033c6:	2100      	movs	r1, #0
100033c8:	f44f 04f0 	mov.w	r4, #7864320	@ 0x780000
100033cc:	e7f1      	b.n	100033b2 <_ZN15EnemyProjectileC1E4Vec2S0_+0x192>
100033ce:	2301      	movs	r3, #1
100033d0:	f44f 04f0 	mov.w	r4, #7864320	@ 0x780000
100033d4:	e7ed      	b.n	100033b2 <_ZN15EnemyProjectileC1E4Vec2S0_+0x192>
100033d6:	bf00      	nop

100033d8 <_ZN15EnemyProjectile6updateEf>:
100033d8:	ee07 1a90 	vmov	s15, r1
100033dc:	e9d0 1201 	ldrd	r1, r2, [r0, #4]
100033e0:	ed90 7a04 	vldr	s14, [r0, #16]
100033e4:	eeb0 6a67 	vmov.f32	s12, s15
100033e8:	ee37 7a87 	vadd.f32	s14, s15, s14
100033ec:	eddf 6a1f 	vldr	s13, [pc, #124]	@ 1000346c <_ZN15EnemyProjectile6updateEf+0x94>
100033f0:	eebe 6ac8 	vcvt.s32.f32	s12, s12, #16
100033f4:	eeb4 7ae6 	vcmpe.f32	s14, s13
100033f8:	edd0 6a07 	vldr	s13, [r0, #28]
100033fc:	ee16 3a10 	vmov	r3, s12
10003400:	b510      	push	{r4, lr}
10003402:	eef1 fa10 	vmrs	APSR_nzcv, fpscr
10003406:	ed80 7a04 	vstr	s14, [r0, #16]
1000340a:	ee77 7aa6 	vadd.f32	s15, s15, s13
1000340e:	ed9f 7a18 	vldr	s14, [pc, #96]	@ 10003470 <_ZN15EnemyProjectile6updateEf+0x98>
10003412:	68c4      	ldr	r4, [r0, #12]
10003414:	fb83 2e02 	smull	r2, lr, r3, r2
10003418:	fb83 3c04 	smull	r3, ip, r3, r4
1000341c:	ea4f 4313 	mov.w	r3, r3, lsr #16
10003420:	ea43 430c 	orr.w	r3, r3, ip, lsl #16
10003424:	4419      	add	r1, r3
10003426:	eef4 7ac7 	vcmpe.f32	s15, s14
1000342a:	bfa4      	itt	ge
1000342c:	2301      	movge	r3, #1
1000342e:	7503      	strbge	r3, [r0, #20]
10003430:	eef1 fa10 	vmrs	APSR_nzcv, fpscr
10003434:	6804      	ldr	r4, [r0, #0]
10003436:	ea4f 4212 	mov.w	r2, r2, lsr #16
1000343a:	ea42 420e 	orr.w	r2, r2, lr, lsl #16
1000343e:	4422      	add	r2, r4
10003440:	e9c0 2100 	strd	r2, r1, [r0]
10003444:	db0e      	blt.n	10003464 <_ZN15EnemyProjectile6updateEf+0x8c>
10003446:	ee77 7ac7 	vsub.f32	s15, s15, s14
1000344a:	6983      	ldr	r3, [r0, #24]
1000344c:	4909      	ldr	r1, [pc, #36]	@ (10003474 <_ZN15EnemyProjectile6updateEf+0x9c>)
1000344e:	3301      	adds	r3, #1
10003450:	fb81 2103 	smull	r2, r1, r1, r3
10003454:	17da      	asrs	r2, r3, #31
10003456:	ebc2 0261 	rsb	r2, r2, r1, asr #1
1000345a:	eb02 0242 	add.w	r2, r2, r2, lsl #1
1000345e:	eba3 0382 	sub.w	r3, r3, r2, lsl #2
10003462:	6183      	str	r3, [r0, #24]
10003464:	edc0 7a07 	vstr	s15, [r0, #28]
10003468:	bd10      	pop	{r4, pc}
1000346a:	bf00      	nop
1000346c:	48400000 	.word	0x48400000
10003470:	3d2acd9f 	.word	0x3d2acd9f
10003474:	2aaaaaab 	.word	0x2aaaaaab

10003478 <_ZNK15EnemyProjectile11getColliderEv>:
10003478:	f44f 2200 	mov.w	r2, #524288	@ 0x80000
1000347c:	b410      	push	{r4}
1000347e:	680c      	ldr	r4, [r1, #0]
10003480:	6849      	ldr	r1, [r1, #4]
10003482:	6004      	str	r4, [r0, #0]
10003484:	e9c0 1201 	strd	r1, r2, [r0, #4]
10003488:	f85d 4b04 	ldr.w	r4, [sp], #4
1000348c:	60c2      	str	r2, [r0, #12]
1000348e:	4770      	bx	lr

10003490 <_ZN10HealthPackC1E4Vec2>:
10003490:	4603      	mov	r3, r0
10003492:	b410      	push	{r4}
10003494:	b083      	sub	sp, #12
10003496:	e9cd 1200 	strd	r1, r2, [sp]
1000349a:	f04f 0c01 	mov.w	ip, #1
1000349e:	e9dd 0100 	ldrd	r0, r1, [sp]
100034a2:	2400      	movs	r4, #0
100034a4:	2100      	movs	r1, #0
100034a6:	e883 0005 	stmia.w	r3, {r0, r2}
100034aa:	4618      	mov	r0, r3
100034ac:	f883 c008 	strb.w	ip, [r3, #8]
100034b0:	60dc      	str	r4, [r3, #12]
100034b2:	6119      	str	r1, [r3, #16]
100034b4:	b003      	add	sp, #12
100034b6:	f85d 4b04 	ldr.w	r4, [sp], #4
100034ba:	4770      	bx	lr

100034bc <_ZN10HealthPack6updateEf>:
100034bc:	7a03      	ldrb	r3, [r0, #8]
100034be:	ee07 1a90 	vmov	s15, r1
100034c2:	b163      	cbz	r3, 100034de <_ZN10HealthPack6updateEf+0x22>
100034c4:	edd0 6a04 	vldr	s13, [r0, #16]
100034c8:	ed9f 7a0d 	vldr	s14, [pc, #52]	@ 10003500 <_ZN10HealthPack6updateEf+0x44>
100034cc:	ee77 7aa6 	vadd.f32	s15, s15, s13
100034d0:	eef4 7ac7 	vcmpe.f32	s15, s14
100034d4:	eef1 fa10 	vmrs	APSR_nzcv, fpscr
100034d8:	da02      	bge.n	100034e0 <_ZN10HealthPack6updateEf+0x24>
100034da:	edc0 7a04 	vstr	s15, [r0, #16]
100034de:	4770      	bx	lr
100034e0:	68c3      	ldr	r3, [r0, #12]
100034e2:	4908      	ldr	r1, [pc, #32]	@ (10003504 <_ZN10HealthPack6updateEf+0x48>)
100034e4:	3301      	adds	r3, #1
100034e6:	fb81 2103 	smull	r2, r1, r1, r3
100034ea:	17da      	asrs	r2, r3, #31
100034ec:	ebc2 0261 	rsb	r2, r2, r1, asr #1
100034f0:	eb02 0242 	add.w	r2, r2, r2, lsl #1
100034f4:	eba3 0382 	sub.w	r3, r3, r2, lsl #2
100034f8:	ee77 7ac7 	vsub.f32	s15, s15, s14
100034fc:	60c3      	str	r3, [r0, #12]
100034fe:	e7ec      	b.n	100034da <_ZN10HealthPack6updateEf+0x1e>
10003500:	3e2ab368 	.word	0x3e2ab368
10003504:	2aaaaaab 	.word	0x2aaaaaab

10003508 <_ZNK10HealthPack6renderEP9IRendereriii>:
10003508:	b570      	push	{r4, r5, r6, lr}
1000350a:	b08c      	sub	sp, #48	@ 0x30
1000350c:	9305      	str	r3, [sp, #20]
1000350e:	7a03      	ldrb	r3, [r0, #8]
10003510:	4684      	mov	ip, r0
10003512:	b34b      	cbz	r3, 10003568 <_ZNK10HealthPack6renderEP9IRendereriii+0x60>
10003514:	eddd 7a05 	vldr	s15, [sp, #20]
10003518:	eeb8 7ae7 	vcvt.f32.s32	s14, s15
1000351c:	eddd 7a10 	vldr	s15, [sp, #64]	@ 0x40
10003520:	f44f 1580 	mov.w	r5, #1048576	@ 0x100000
10003524:	eebe 7ac8 	vcvt.s32.f32	s14, s14, #16
10003528:	eef8 7ae7 	vcvt.f32.s32	s15, s15
1000352c:	e9cd 550a 	strd	r5, r5, [sp, #40]	@ 0x28
10003530:	ee17 5a10 	vmov	r5, s14
10003534:	eefe 7ac8 	vcvt.s32.f32	s15, s15, #16
10003538:	4608      	mov	r0, r1
1000353a:	4611      	mov	r1, r2
1000353c:	e9dc 2300 	ldrd	r2, r3, [ip]
10003540:	1b52      	subs	r2, r2, r5
10003542:	9208      	str	r2, [sp, #32]
10003544:	ee17 2a90 	vmov	r2, s15
10003548:	2900      	cmp	r1, #0
1000354a:	eba3 0302 	sub.w	r3, r3, r2
1000354e:	6804      	ldr	r4, [r0, #0]
10003550:	9309      	str	r3, [sp, #36]	@ 0x24
10003552:	db0b      	blt.n	1000356c <_ZNK10HealthPack6renderEP9IRendereriii+0x64>
10003554:	2500      	movs	r5, #0
10003556:	2310      	movs	r3, #16
10003558:	ae08      	add	r6, sp, #32
1000355a:	f8dc 200c 	ldr.w	r2, [ip, #12]
1000355e:	e9cd 6501 	strd	r6, r5, [sp, #4]
10003562:	9300      	str	r3, [sp, #0]
10003564:	6a64      	ldr	r4, [r4, #36]	@ 0x24
10003566:	47a0      	blx	r4
10003568:	b00c      	add	sp, #48	@ 0x30
1000356a:	bd70      	pop	{r4, r5, r6, pc}
1000356c:	2301      	movs	r3, #1
1000356e:	f04f 22ff 	mov.w	r2, #4278255360	@ 0xff00ff00
10003572:	6964      	ldr	r4, [r4, #20]
10003574:	a908      	add	r1, sp, #32
10003576:	47a0      	blx	r4
10003578:	b00c      	add	sp, #48	@ 0x30
1000357a:	bd70      	pop	{r4, r5, r6, pc}

1000357c <_ZNK10HealthPack11getColliderEv>:
1000357c:	f44f 1280 	mov.w	r2, #1048576	@ 0x100000
10003580:	b410      	push	{r4}
10003582:	680c      	ldr	r4, [r1, #0]
10003584:	6849      	ldr	r1, [r1, #4]
10003586:	6004      	str	r4, [r0, #0]
10003588:	e9c0 1201 	strd	r1, r2, [r0, #4]
1000358c:	f85d 4b04 	ldr.w	r4, [sp], #4
10003590:	60c2      	str	r2, [r0, #12]
10003592:	4770      	bx	lr

10003594 <_ZN9ObjectiveC1E4Vec213ObjectiveType>:
10003594:	4684      	mov	ip, r0
10003596:	b500      	push	{lr}
10003598:	b083      	sub	sp, #12
1000359a:	e9cd 1200 	strd	r1, r2, [sp]
1000359e:	f04f 0e00 	mov.w	lr, #0
100035a2:	e9dd 0100 	ldrd	r0, r1, [sp]
100035a6:	e88c 0005 	stmia.w	ip, {r0, r2}
100035aa:	4660      	mov	r0, ip
100035ac:	f8cc 3008 	str.w	r3, [ip, #8]
100035b0:	f88c e00c 	strb.w	lr, [ip, #12]
100035b4:	b003      	add	sp, #12
100035b6:	f85d fb04 	ldr.w	pc, [sp], #4
100035ba:	bf00      	nop

100035bc <_ZNK9Objective6renderEP9IRendereriii>:
100035bc:	4684      	mov	ip, r0
100035be:	b570      	push	{r4, r5, r6, lr}
100035c0:	4608      	mov	r0, r1
100035c2:	4611      	mov	r1, r2
100035c4:	f89c 200c 	ldrb.w	r2, [ip, #12]
100035c8:	b08c      	sub	sp, #48	@ 0x30
100035ca:	9305      	str	r3, [sp, #20]
100035cc:	bb22      	cbnz	r2, 10003618 <_ZNK9Objective6renderEP9IRendereriii+0x5c>
100035ce:	ee07 3a90 	vmov	s15, r3
100035d2:	e9dc 4300 	ldrd	r4, r3, [ip]
100035d6:	eeb8 7ae7 	vcvt.f32.s32	s14, s15
100035da:	eddd 7a10 	vldr	s15, [sp, #64]	@ 0x40
100035de:	f44f 1680 	mov.w	r6, #1048576	@ 0x100000
100035e2:	eebe 7ac8 	vcvt.s32.f32	s14, s14, #16
100035e6:	eef8 7ae7 	vcvt.f32.s32	s15, s15
100035ea:	e9cd 660a 	strd	r6, r6, [sp, #40]	@ 0x28
100035ee:	ee17 6a10 	vmov	r6, s14
100035f2:	eefe 7ac8 	vcvt.s32.f32	s15, s15, #16
100035f6:	1ba4      	subs	r4, r4, r6
100035f8:	9408      	str	r4, [sp, #32]
100035fa:	ee17 4a90 	vmov	r4, s15
100035fe:	2900      	cmp	r1, #0
10003600:	eba3 0304 	sub.w	r3, r3, r4
10003604:	6805      	ldr	r5, [r0, #0]
10003606:	9309      	str	r3, [sp, #36]	@ 0x24
10003608:	db08      	blt.n	1000361c <_ZNK9Objective6renderEP9IRendereriii+0x60>
1000360a:	ab08      	add	r3, sp, #32
1000360c:	e9cd 3201 	strd	r3, r2, [sp, #4]
10003610:	2310      	movs	r3, #16
10003612:	9300      	str	r3, [sp, #0]
10003614:	6a6c      	ldr	r4, [r5, #36]	@ 0x24
10003616:	47a0      	blx	r4
10003618:	b00c      	add	sp, #48	@ 0x30
1000361a:	bd70      	pop	{r4, r5, r6, pc}
1000361c:	2301      	movs	r3, #1
1000361e:	f46f 027f 	mvn.w	r2, #16711680	@ 0xff0000
10003622:	696c      	ldr	r4, [r5, #20]
10003624:	a908      	add	r1, sp, #32
10003626:	47a0      	blx	r4
10003628:	b00c      	add	sp, #48	@ 0x30
1000362a:	bd70      	pop	{r4, r5, r6, pc}

1000362c <_ZNK9Objective11getColliderEv>:
1000362c:	f44f 1280 	mov.w	r2, #1048576	@ 0x100000
10003630:	b410      	push	{r4}
10003632:	680c      	ldr	r4, [r1, #0]
10003634:	6849      	ldr	r1, [r1, #4]
10003636:	6004      	str	r4, [r0, #0]
10003638:	e9c0 1201 	strd	r1, r2, [r0, #4]
1000363c:	f85d 4b04 	ldr.w	r4, [sp], #4
10003640:	60c2      	str	r2, [r0, #12]
10003642:	4770      	bx	lr

10003644 <_ZN7Physics12applyGravityER6Playerf>:
10003644:	f891 3020 	ldrb.w	r3, [r1, #32]
10003648:	ee07 2a90 	vmov	s15, r2
1000364c:	07db      	lsls	r3, r3, #31
1000364e:	d40d      	bmi.n	1000366c <_ZN7Physics12applyGravityER6Playerf+0x28>
10003650:	eefe 7ac8 	vcvt.s32.f32	s15, s15, #16
10003654:	f04f 6396 	mov.w	r3, #78643200	@ 0x4b00000
10003658:	ee17 2a90 	vmov	r2, s15
1000365c:	fb82 3203 	smull	r3, r2, r2, r3
10003660:	68c8      	ldr	r0, [r1, #12]
10003662:	0c1b      	lsrs	r3, r3, #16
10003664:	ea43 4302 	orr.w	r3, r3, r2, lsl #16
10003668:	4418      	add	r0, r3
1000366a:	60c8      	str	r0, [r1, #12]
1000366c:	4770      	bx	lr
1000366e:	bf00      	nop

10003670 <_ZN7Physics13clampVelocityER6Player>:
10003670:	688b      	ldr	r3, [r1, #8]
10003672:	f5b3 0f48 	cmp.w	r3, #13107200	@ 0xc80000
10003676:	dd0a      	ble.n	1000368e <_ZN7Physics13clampVelocityER6Player+0x1e>
10003678:	f44f 0348 	mov.w	r3, #13107200	@ 0xc80000
1000367c:	608b      	str	r3, [r1, #8]
1000367e:	68cb      	ldr	r3, [r1, #12]
10003680:	f1b3 7f16 	cmp.w	r3, #39321600	@ 0x2580000
10003684:	bfc4      	itt	gt
10003686:	f04f 7316 	movgt.w	r3, #39321600	@ 0x2580000
1000368a:	60cb      	strgt	r3, [r1, #12]
1000368c:	4770      	bx	lr
1000368e:	f513 0f48 	cmn.w	r3, #13107200	@ 0xc80000
10003692:	bfbc      	itt	lt
10003694:	4b01      	ldrlt	r3, [pc, #4]	@ (1000369c <_ZN7Physics13clampVelocityER6Player+0x2c>)
10003696:	608b      	strlt	r3, [r1, #8]
10003698:	e7f1      	b.n	1000367e <_ZN7Physics13clampVelocityER6Player+0xe>
1000369a:	bf00      	nop
1000369c:	ff380000 	.word	0xff380000

100036a0 <_ZN9Collision15resolveVerticalER6PlayerRK5Levell>:
100036a0:	e92d 4ff0 	stmdb	sp!, {r4, r5, r6, r7, r8, r9, sl, fp, lr}
100036a4:	ed2d 8b02 	vpush	{d8}
100036a8:	b089      	sub	sp, #36	@ 0x24
100036aa:	a804      	add	r0, sp, #16
100036ac:	4689      	mov	r9, r1
100036ae:	4616      	mov	r6, r2
100036b0:	461f      	mov	r7, r3
100036b2:	f7fe fe4d 	bl	10002350 <_ZNK6Player11getColliderEv>
100036b6:	9b04      	ldr	r3, [sp, #16]
100036b8:	9a06      	ldr	r2, [sp, #24]
100036ba:	2b00      	cmp	r3, #0
100036bc:	bfac      	ite	ge
100036be:	469a      	movge	sl, r3
100036c0:	f503 2a7f 	addlt.w	sl, r3, #1044480	@ 0xff000
100036c4:	4413      	add	r3, r2
100036c6:	bfb8      	it	lt
100036c8:	f60a 7aff 	addwlt	sl, sl, #4095	@ 0xfff
100036cc:	f5b3 3580 	subs.w	r5, r3, #65536	@ 0x10000
100036d0:	bf48      	it	mi
100036d2:	f503 256f 	addmi.w	r5, r3, #978944	@ 0xef000
100036d6:	f8d9 300c 	ldr.w	r3, [r9, #12]
100036da:	bf48      	it	mi
100036dc:	f605 75ff 	addwmi	r5, r5, #4095	@ 0xfff
100036e0:	2b00      	cmp	r3, #0
100036e2:	ea4f 5a2a 	mov.w	sl, sl, asr #20
100036e6:	ea4f 5525 	mov.w	r5, r5, asr #20
100036ea:	f340 8093 	ble.w	10003814 <_ZN9Collision15resolveVerticalER6PlayerRK5Levell+0x174>
100036ee:	9807      	ldr	r0, [sp, #28]
100036f0:	9905      	ldr	r1, [sp, #20]
100036f2:	4407      	add	r7, r0
100036f4:	4401      	add	r1, r0
100036f6:	f5b1 3b80 	subs.w	fp, r1, #65536	@ 0x10000
100036fa:	bf44      	itt	mi
100036fc:	f501 2b6f 	addmi.w	fp, r1, #978944	@ 0xef000
10003700:	f60b 7bff 	addwmi	fp, fp, #4095	@ 0xfff
10003704:	f5b7 3380 	subs.w	r3, r7, #65536	@ 0x10000
10003708:	bf44      	itt	mi
1000370a:	f507 236f 	addmi.w	r3, r7, #978944	@ 0xef000
1000370e:	f603 73ff 	addwmi	r3, r3, #4095	@ 0xfff
10003712:	ea4f 5b2b 	mov.w	fp, fp, asr #20
10003716:	151b      	asrs	r3, r3, #20
10003718:	459b      	cmp	fp, r3
1000371a:	46d8      	mov	r8, fp
1000371c:	bfa8      	it	ge
1000371e:	4698      	movge	r8, r3
10003720:	459b      	cmp	fp, r3
10003722:	465a      	mov	r2, fp
10003724:	bfb8      	it	lt
10003726:	461a      	movlt	r2, r3
10003728:	4542      	cmp	r2, r8
1000372a:	9201      	str	r2, [sp, #4]
1000372c:	db2d      	blt.n	1000378a <_ZN9Collision15resolveVerticalER6PlayerRK5Levell+0xea>
1000372e:	46c3      	mov	fp, r8
10003730:	e9cd 1702 	strd	r1, r7, [sp, #8]
10003734:	4657      	mov	r7, sl
10003736:	46c2      	mov	sl, r8
10003738:	4680      	mov	r8, r0
1000373a:	42bd      	cmp	r5, r7
1000373c:	bfa8      	it	ge
1000373e:	463c      	movge	r4, r7
10003740:	da02      	bge.n	10003748 <_ZN9Collision15resolveVerticalER6PlayerRK5Levell+0xa8>
10003742:	e027      	b.n	10003794 <_ZN9Collision15resolveVerticalER6PlayerRK5Levell+0xf4>
10003744:	42ac      	cmp	r4, r5
10003746:	dc25      	bgt.n	10003794 <_ZN9Collision15resolveVerticalER6PlayerRK5Levell+0xf4>
10003748:	4621      	mov	r1, r4
1000374a:	465a      	mov	r2, fp
1000374c:	4630      	mov	r0, r6
1000374e:	f000 fabd 	bl	10003ccc <_ZNK5Level7isSolidEii>
10003752:	3401      	adds	r4, #1
10003754:	2800      	cmp	r0, #0
10003756:	d0f5      	beq.n	10003744 <_ZN9Collision15resolveVerticalER6PlayerRK5Levell+0xa4>
10003758:	ea4f 130b 	mov.w	r3, fp, lsl #4
1000375c:	ee07 3a90 	vmov	s15, r3
10003760:	eef8 7ae7 	vcvt.f32.s32	s15, s15
10003764:	eefe 7ac8 	vcvt.s32.f32	s15, s15, #16
10003768:	f899 3020 	ldrb.w	r3, [r9, #32]
1000376c:	4640      	mov	r0, r8
1000376e:	f023 0302 	bic.w	r3, r3, #2
10003772:	f043 0301 	orr.w	r3, r3, #1
10003776:	f889 3020 	strb.w	r3, [r9, #32]
1000377a:	ee17 3a90 	vmov	r3, s15
1000377e:	2200      	movs	r2, #0
10003780:	1a18      	subs	r0, r3, r0
10003782:	f8c9 200c 	str.w	r2, [r9, #12]
10003786:	f8c9 0004 	str.w	r0, [r9, #4]
1000378a:	b009      	add	sp, #36	@ 0x24
1000378c:	ecbd 8b02 	vpop	{d8}
10003790:	e8bd 8ff0 	ldmia.w	sp!, {r4, r5, r6, r7, r8, r9, sl, fp, pc}
10003794:	9b01      	ldr	r3, [sp, #4]
10003796:	f10b 0b01 	add.w	fp, fp, #1
1000379a:	455b      	cmp	r3, fp
1000379c:	dacd      	bge.n	1000373a <_ZN9Collision15resolveVerticalER6PlayerRK5Levell+0x9a>
1000379e:	4640      	mov	r0, r8
100037a0:	46d0      	mov	r8, sl
100037a2:	46ba      	mov	sl, r7
100037a4:	4653      	mov	r3, sl
100037a6:	9902      	ldr	r1, [sp, #8]
100037a8:	46c2      	mov	sl, r8
100037aa:	468b      	mov	fp, r1
100037ac:	4698      	mov	r8, r3
100037ae:	9f03      	ldr	r7, [sp, #12]
100037b0:	9002      	str	r0, [sp, #8]
100037b2:	4545      	cmp	r5, r8
100037b4:	db24      	blt.n	10003800 <_ZN9Collision15resolveVerticalER6PlayerRK5Levell+0x160>
100037b6:	ea4f 130a 	mov.w	r3, sl, lsl #4
100037ba:	3308      	adds	r3, #8
100037bc:	4644      	mov	r4, r8
100037be:	ee08 3a10 	vmov	s16, r3
100037c2:	4621      	mov	r1, r4
100037c4:	4652      	mov	r2, sl
100037c6:	4630      	mov	r0, r6
100037c8:	f000 faa8 	bl	10003d1c <_ZNK5Level10isPlatformEii>
100037cc:	3401      	adds	r4, #1
100037ce:	b1a8      	cbz	r0, 100037fc <_ZN9Collision15resolveVerticalER6PlayerRK5Levell+0x15c>
100037d0:	f899 3020 	ldrb.w	r3, [r9, #32]
100037d4:	f013 0c02 	ands.w	ip, r3, #2
100037d8:	d110      	bne.n	100037fc <_ZN9Collision15resolveVerticalER6PlayerRK5Levell+0x15c>
100037da:	eef8 7ac8 	vcvt.f32.s32	s15, s16
100037de:	eeb0 7a67 	vmov.f32	s14, s15
100037e2:	eebe 7ac8 	vcvt.s32.f32	s14, s14, #16
100037e6:	ee17 2a10 	vmov	r2, s14
100037ea:	4297      	cmp	r7, r2
100037ec:	dc06      	bgt.n	100037fc <_ZN9Collision15resolveVerticalER6PlayerRK5Levell+0x15c>
100037ee:	4593      	cmp	fp, r2
100037f0:	db04      	blt.n	100037fc <_ZN9Collision15resolveVerticalER6PlayerRK5Levell+0x15c>
100037f2:	f8d9 100c 	ldr.w	r1, [r9, #12]
100037f6:	2900      	cmp	r1, #0
100037f8:	f280 80bc 	bge.w	10003974 <_ZN9Collision15resolveVerticalER6PlayerRK5Levell+0x2d4>
100037fc:	42ac      	cmp	r4, r5
100037fe:	dde0      	ble.n	100037c2 <_ZN9Collision15resolveVerticalER6PlayerRK5Levell+0x122>
10003800:	9b01      	ldr	r3, [sp, #4]
10003802:	f10a 0a01 	add.w	sl, sl, #1
10003806:	4553      	cmp	r3, sl
10003808:	dad3      	bge.n	100037b2 <_ZN9Collision15resolveVerticalER6PlayerRK5Levell+0x112>
1000380a:	f8d9 300c 	ldr.w	r3, [r9, #12]
1000380e:	2b00      	cmp	r3, #0
10003810:	d1bb      	bne.n	1000378a <_ZN9Collision15resolveVerticalER6PlayerRK5Levell+0xea>
10003812:	e000      	b.n	10003816 <_ZN9Collision15resolveVerticalER6PlayerRK5Levell+0x176>
10003814:	d140      	bne.n	10003898 <_ZN9Collision15resolveVerticalER6PlayerRK5Levell+0x1f8>
10003816:	4649      	mov	r1, r9
10003818:	a804      	add	r0, sp, #16
1000381a:	f7fe fd99 	bl	10002350 <_ZNK6Player11getColliderEv>
1000381e:	9b04      	ldr	r3, [sp, #16]
10003820:	9a06      	ldr	r2, [sp, #24]
10003822:	461c      	mov	r4, r3
10003824:	2b00      	cmp	r3, #0
10003826:	bfb8      	it	lt
10003828:	f503 247f 	addlt.w	r4, r3, #1044480	@ 0xff000
1000382c:	4413      	add	r3, r2
1000382e:	bfb8      	it	lt
10003830:	f604 74ff 	addwlt	r4, r4, #4095	@ 0xfff
10003834:	f5b3 3280 	subs.w	r2, r3, #65536	@ 0x10000
10003838:	bf44      	itt	mi
1000383a:	f503 226f 	addmi.w	r2, r3, #978944	@ 0xef000
1000383e:	f602 72ff 	addwmi	r2, r2, #4095	@ 0xfff
10003842:	1524      	asrs	r4, r4, #20
10003844:	ebb4 5f22 	cmp.w	r4, r2, asr #20
10003848:	ea4f 5722 	mov.w	r7, r2, asr #20
1000384c:	dc9d      	bgt.n	1000378a <_ZN9Collision15resolveVerticalER6PlayerRK5Levell+0xea>
1000384e:	9b07      	ldr	r3, [sp, #28]
10003850:	9905      	ldr	r1, [sp, #20]
10003852:	4625      	mov	r5, r4
10003854:	eb03 0b01 	add.w	fp, r3, r1
10003858:	f5bb 3880 	subs.w	r8, fp, #65536	@ 0x10000
1000385c:	bf44      	itt	mi
1000385e:	f50b 286f 	addmi.w	r8, fp, #978944	@ 0xef000
10003862:	f608 78ff 	addwmi	r8, r8, #4095	@ 0xfff
10003866:	ea4f 5828 	mov.w	r8, r8, asr #20
1000386a:	9301      	str	r3, [sp, #4]
1000386c:	f108 0a01 	add.w	sl, r8, #1
10003870:	e001      	b.n	10003876 <_ZN9Collision15resolveVerticalER6PlayerRK5Levell+0x1d6>
10003872:	42bd      	cmp	r5, r7
10003874:	dc4f      	bgt.n	10003916 <_ZN9Collision15resolveVerticalER6PlayerRK5Levell+0x276>
10003876:	4629      	mov	r1, r5
10003878:	4652      	mov	r2, sl
1000387a:	4630      	mov	r0, r6
1000387c:	f000 fa26 	bl	10003ccc <_ZNK5Level7isSolidEii>
10003880:	3501      	adds	r5, #1
10003882:	2800      	cmp	r0, #0
10003884:	d0f5      	beq.n	10003872 <_ZN9Collision15resolveVerticalER6PlayerRK5Levell+0x1d2>
10003886:	f899 3020 	ldrb.w	r3, [r9, #32]
1000388a:	f023 0302 	bic.w	r3, r3, #2
1000388e:	f043 0301 	orr.w	r3, r3, #1
10003892:	f889 3020 	strb.w	r3, [r9, #32]
10003896:	e778      	b.n	1000378a <_ZN9Collision15resolveVerticalER6PlayerRK5Levell+0xea>
10003898:	f8d9 3004 	ldr.w	r3, [r9, #4]
1000389c:	2f00      	cmp	r7, #0
1000389e:	bfbc      	itt	lt
100038a0:	f507 277f 	addlt.w	r7, r7, #1044480	@ 0xff000
100038a4:	f607 77ff 	addwlt	r7, r7, #4095	@ 0xfff
100038a8:	2b00      	cmp	r3, #0
100038aa:	bfbc      	itt	lt
100038ac:	f503 237f 	addlt.w	r3, r3, #1044480	@ 0xff000
100038b0:	f603 73ff 	addwlt	r3, r3, #4095	@ 0xfff
100038b4:	153f      	asrs	r7, r7, #20
100038b6:	151b      	asrs	r3, r3, #20
100038b8:	429f      	cmp	r7, r3
100038ba:	46b8      	mov	r8, r7
100038bc:	bfa8      	it	ge
100038be:	4698      	movge	r8, r3
100038c0:	429f      	cmp	r7, r3
100038c2:	bfb8      	it	lt
100038c4:	461f      	movlt	r7, r3
100038c6:	45b8      	cmp	r8, r7
100038c8:	f73f af5f 	bgt.w	1000378a <_ZN9Collision15resolveVerticalER6PlayerRK5Levell+0xea>
100038cc:	4555      	cmp	r5, sl
100038ce:	bfa8      	it	ge
100038d0:	4654      	movge	r4, sl
100038d2:	da02      	bge.n	100038da <_ZN9Collision15resolveVerticalER6PlayerRK5Levell+0x23a>
100038d4:	e01b      	b.n	1000390e <_ZN9Collision15resolveVerticalER6PlayerRK5Levell+0x26e>
100038d6:	42ac      	cmp	r4, r5
100038d8:	dc19      	bgt.n	1000390e <_ZN9Collision15resolveVerticalER6PlayerRK5Levell+0x26e>
100038da:	4621      	mov	r1, r4
100038dc:	463a      	mov	r2, r7
100038de:	4630      	mov	r0, r6
100038e0:	f000 f9f4 	bl	10003ccc <_ZNK5Level7isSolidEii>
100038e4:	3401      	adds	r4, #1
100038e6:	2800      	cmp	r0, #0
100038e8:	d0f5      	beq.n	100038d6 <_ZN9Collision15resolveVerticalER6PlayerRK5Levell+0x236>
100038ea:	3701      	adds	r7, #1
100038ec:	013f      	lsls	r7, r7, #4
100038ee:	ee07 7a90 	vmov	s15, r7
100038f2:	eef8 7ae7 	vcvt.f32.s32	s15, s15
100038f6:	2300      	movs	r3, #0
100038f8:	eefe 7ac8 	vcvt.s32.f32	s15, s15, #16
100038fc:	f8c9 300c 	str.w	r3, [r9, #12]
10003900:	edc9 7a01 	vstr	s15, [r9, #4]
10003904:	b009      	add	sp, #36	@ 0x24
10003906:	ecbd 8b02 	vpop	{d8}
1000390a:	e8bd 8ff0 	ldmia.w	sp!, {r4, r5, r6, r7, r8, r9, sl, fp, pc}
1000390e:	3f01      	subs	r7, #1
10003910:	45b8      	cmp	r8, r7
10003912:	dddb      	ble.n	100038cc <_ZN9Collision15resolveVerticalER6PlayerRK5Levell+0x22c>
10003914:	e779      	b.n	1000380a <_ZN9Collision15resolveVerticalER6PlayerRK5Levell+0x16a>
10003916:	ea4f 1308 	mov.w	r3, r8, lsl #4
1000391a:	3308      	adds	r3, #8
1000391c:	ee08 3a10 	vmov	s16, r3
10003920:	e003      	b.n	1000392a <_ZN9Collision15resolveVerticalER6PlayerRK5Levell+0x28a>
10003922:	3401      	adds	r4, #1
10003924:	42bc      	cmp	r4, r7
10003926:	f73f af30 	bgt.w	1000378a <_ZN9Collision15resolveVerticalER6PlayerRK5Levell+0xea>
1000392a:	4642      	mov	r2, r8
1000392c:	4621      	mov	r1, r4
1000392e:	4630      	mov	r0, r6
10003930:	f000 f9f4 	bl	10003d1c <_ZNK5Level10isPlatformEii>
10003934:	2800      	cmp	r0, #0
10003936:	d0f4      	beq.n	10003922 <_ZN9Collision15resolveVerticalER6PlayerRK5Levell+0x282>
10003938:	f899 2020 	ldrb.w	r2, [r9, #32]
1000393c:	0793      	lsls	r3, r2, #30
1000393e:	d4f0      	bmi.n	10003922 <_ZN9Collision15resolveVerticalER6PlayerRK5Levell+0x282>
10003940:	eef8 7ac8 	vcvt.f32.s32	s15, s16
10003944:	eeb0 7a67 	vmov.f32	s14, s15
10003948:	eebe 7ac8 	vcvt.s32.f32	s14, s14, #16
1000394c:	ee17 1a10 	vmov	r1, s14
10003950:	f5a1 3380 	sub.w	r3, r1, #65536	@ 0x10000
10003954:	459b      	cmp	fp, r3
10003956:	dbe4      	blt.n	10003922 <_ZN9Collision15resolveVerticalER6PlayerRK5Levell+0x282>
10003958:	f501 2380 	add.w	r3, r1, #262144	@ 0x40000
1000395c:	459b      	cmp	fp, r3
1000395e:	dce0      	bgt.n	10003922 <_ZN9Collision15resolveVerticalER6PlayerRK5Levell+0x282>
10003960:	460b      	mov	r3, r1
10003962:	9901      	ldr	r1, [sp, #4]
10003964:	f042 0201 	orr.w	r2, r2, #1
10003968:	1a5b      	subs	r3, r3, r1
1000396a:	f8c9 3004 	str.w	r3, [r9, #4]
1000396e:	f889 2020 	strb.w	r2, [r9, #32]
10003972:	e70a      	b.n	1000378a <_ZN9Collision15resolveVerticalER6PlayerRK5Levell+0xea>
10003974:	9802      	ldr	r0, [sp, #8]
10003976:	4696      	mov	lr, r2
10003978:	1a10      	subs	r0, r2, r0
1000397a:	f043 0201 	orr.w	r2, r3, #1
1000397e:	f8c9 0004 	str.w	r0, [r9, #4]
10003982:	f8c9 c00c 	str.w	ip, [r9, #12]
10003986:	f889 2020 	strb.w	r2, [r9, #32]
1000398a:	e6fe      	b.n	1000378a <_ZN9Collision15resolveVerticalER6PlayerRK5Levell+0xea>

1000398c <_ZN9Collision17resolveHorizontalER6PlayerRK5Level>:
1000398c:	e92d 43f0 	stmdb	sp!, {r4, r5, r6, r7, r8, r9, lr}
10003990:	460f      	mov	r7, r1
10003992:	b085      	sub	sp, #20
10003994:	4668      	mov	r0, sp
10003996:	4691      	mov	r9, r2
10003998:	f7fe fcda 	bl	10002350 <_ZNK6Player11getColliderEv>
1000399c:	e9dd 6300 	ldrd	r6, r3, [sp]
100039a0:	2b00      	cmp	r3, #0
100039a2:	bfa8      	it	ge
100039a4:	461c      	movge	r4, r3
100039a6:	9a03      	ldr	r2, [sp, #12]
100039a8:	bfb8      	it	lt
100039aa:	f503 247f 	addlt.w	r4, r3, #1044480	@ 0xff000
100039ae:	4413      	add	r3, r2
100039b0:	bfb8      	it	lt
100039b2:	f604 74ff 	addwlt	r4, r4, #4095	@ 0xfff
100039b6:	f5b3 3580 	subs.w	r5, r3, #65536	@ 0x10000
100039ba:	bf48      	it	mi
100039bc:	f503 256f 	addmi.w	r5, r3, #978944	@ 0xef000
100039c0:	68bb      	ldr	r3, [r7, #8]
100039c2:	bf48      	it	mi
100039c4:	f605 75ff 	addwmi	r5, r5, #4095	@ 0xfff
100039c8:	2b00      	cmp	r3, #0
100039ca:	ea4f 5424 	mov.w	r4, r4, asr #20
100039ce:	ea4f 5525 	mov.w	r5, r5, asr #20
100039d2:	dd29      	ble.n	10003a28 <_ZN9Collision17resolveHorizontalER6PlayerRK5Level+0x9c>
100039d4:	42a5      	cmp	r5, r4
100039d6:	db24      	blt.n	10003a22 <_ZN9Collision17resolveHorizontalER6PlayerRK5Level+0x96>
100039d8:	f8dd 8008 	ldr.w	r8, [sp, #8]
100039dc:	eb08 0306 	add.w	r3, r8, r6
100039e0:	f5b3 3680 	subs.w	r6, r3, #65536	@ 0x10000
100039e4:	bf44      	itt	mi
100039e6:	f503 266f 	addmi.w	r6, r3, #978944	@ 0xef000
100039ea:	f606 76ff 	addwmi	r6, r6, #4095	@ 0xfff
100039ee:	1536      	asrs	r6, r6, #20
100039f0:	e001      	b.n	100039f6 <_ZN9Collision17resolveHorizontalER6PlayerRK5Level+0x6a>
100039f2:	42a5      	cmp	r5, r4
100039f4:	db15      	blt.n	10003a22 <_ZN9Collision17resolveHorizontalER6PlayerRK5Level+0x96>
100039f6:	4622      	mov	r2, r4
100039f8:	4631      	mov	r1, r6
100039fa:	4648      	mov	r0, r9
100039fc:	f000 f966 	bl	10003ccc <_ZNK5Level7isSolidEii>
10003a00:	3401      	adds	r4, #1
10003a02:	2800      	cmp	r0, #0
10003a04:	d0f5      	beq.n	100039f2 <_ZN9Collision17resolveHorizontalER6PlayerRK5Level+0x66>
10003a06:	0136      	lsls	r6, r6, #4
10003a08:	ee07 6a90 	vmov	s15, r6
10003a0c:	eef8 7ae7 	vcvt.f32.s32	s15, s15
10003a10:	2300      	movs	r3, #0
10003a12:	eefe 7ac8 	vcvt.s32.f32	s15, s15, #16
10003a16:	60bb      	str	r3, [r7, #8]
10003a18:	ee17 3a90 	vmov	r3, s15
10003a1c:	eba3 0308 	sub.w	r3, r3, r8
10003a20:	603b      	str	r3, [r7, #0]
10003a22:	b005      	add	sp, #20
10003a24:	e8bd 83f0 	ldmia.w	sp!, {r4, r5, r6, r7, r8, r9, pc}
10003a28:	d0fb      	beq.n	10003a22 <_ZN9Collision17resolveHorizontalER6PlayerRK5Level+0x96>
10003a2a:	42a5      	cmp	r5, r4
10003a2c:	dbf9      	blt.n	10003a22 <_ZN9Collision17resolveHorizontalER6PlayerRK5Level+0x96>
10003a2e:	2e00      	cmp	r6, #0
10003a30:	bfbc      	itt	lt
10003a32:	f506 267f 	addlt.w	r6, r6, #1044480	@ 0xff000
10003a36:	f606 76ff 	addwlt	r6, r6, #4095	@ 0xfff
10003a3a:	1536      	asrs	r6, r6, #20
10003a3c:	e001      	b.n	10003a42 <_ZN9Collision17resolveHorizontalER6PlayerRK5Level+0xb6>
10003a3e:	42a5      	cmp	r5, r4
10003a40:	dbef      	blt.n	10003a22 <_ZN9Collision17resolveHorizontalER6PlayerRK5Level+0x96>
10003a42:	4622      	mov	r2, r4
10003a44:	4631      	mov	r1, r6
10003a46:	4648      	mov	r0, r9
10003a48:	f000 f940 	bl	10003ccc <_ZNK5Level7isSolidEii>
10003a4c:	3401      	adds	r4, #1
10003a4e:	2800      	cmp	r0, #0
10003a50:	d0f5      	beq.n	10003a3e <_ZN9Collision17resolveHorizontalER6PlayerRK5Level+0xb2>
10003a52:	3601      	adds	r6, #1
10003a54:	0136      	lsls	r6, r6, #4
10003a56:	ee07 6a90 	vmov	s15, r6
10003a5a:	eef8 7ae7 	vcvt.f32.s32	s15, s15
10003a5e:	2300      	movs	r3, #0
10003a60:	eefe 7ac8 	vcvt.s32.f32	s15, s15, #16
10003a64:	60bb      	str	r3, [r7, #8]
10003a66:	edc7 7a00 	vstr	s15, [r7]
10003a6a:	e7da      	b.n	10003a22 <_ZN9Collision17resolveHorizontalER6PlayerRK5Level+0x96>

10003a6c <_ZN9Collision17resolveArenaWallsER6PlayerPK4Rectj>:
10003a6c:	2a00      	cmp	r2, #0
10003a6e:	d06d      	beq.n	10003b4c <_ZN9Collision17resolveArenaWallsER6PlayerPK4Rectj+0xe0>
10003a70:	e92d 4ff0 	stmdb	sp!, {r4, r5, r6, r7, r8, r9, sl, fp, lr}
10003a74:	4698      	mov	r8, r3
10003a76:	b085      	sub	sp, #20
10003a78:	2b00      	cmp	r3, #0
10003a7a:	d03d      	beq.n	10003af8 <_ZN9Collision17resolveArenaWallsER6PlayerPK4Rectj+0x8c>
10003a7c:	460f      	mov	r7, r1
10003a7e:	4691      	mov	r9, r2
10003a80:	f04f 0a02 	mov.w	sl, #2
10003a84:	464c      	mov	r4, r9
10003a86:	2500      	movs	r5, #0
10003a88:	4668      	mov	r0, sp
10003a8a:	4639      	mov	r1, r7
10003a8c:	f7fe fc60 	bl	10002350 <_ZNK6Player11getColliderEv>
10003a90:	f8d4 c000 	ldr.w	ip, [r4]
10003a94:	68a0      	ldr	r0, [r4, #8]
10003a96:	9e00      	ldr	r6, [sp, #0]
10003a98:	4460      	add	r0, ip
10003a9a:	42b0      	cmp	r0, r6
10003a9c:	dd21      	ble.n	10003ae2 <_ZN9Collision17resolveArenaWallsER6PlayerPK4Rectj+0x76>
10003a9e:	9b02      	ldr	r3, [sp, #8]
10003aa0:	4433      	add	r3, r6
10003aa2:	459c      	cmp	ip, r3
10003aa4:	da1d      	bge.n	10003ae2 <_ZN9Collision17resolveArenaWallsER6PlayerPK4Rectj+0x76>
10003aa6:	f8d4 e004 	ldr.w	lr, [r4, #4]
10003aaa:	68e2      	ldr	r2, [r4, #12]
10003aac:	f8dd b004 	ldr.w	fp, [sp, #4]
10003ab0:	4472      	add	r2, lr
10003ab2:	4593      	cmp	fp, r2
10003ab4:	da15      	bge.n	10003ae2 <_ZN9Collision17resolveArenaWallsER6PlayerPK4Rectj+0x76>
10003ab6:	9903      	ldr	r1, [sp, #12]
10003ab8:	4459      	add	r1, fp
10003aba:	458e      	cmp	lr, r1
10003abc:	da11      	bge.n	10003ae2 <_ZN9Collision17resolveArenaWallsER6PlayerPK4Rectj+0x76>
10003abe:	eba3 030c 	sub.w	r3, r3, ip
10003ac2:	1b80      	subs	r0, r0, r6
10003ac4:	4283      	cmp	r3, r0
10003ac6:	eba1 010e 	sub.w	r1, r1, lr
10003aca:	eba2 020b 	sub.w	r2, r2, fp
10003ace:	dd16      	ble.n	10003afe <_ZN9Collision17resolveArenaWallsER6PlayerPK4Rectj+0x92>
10003ad0:	4288      	cmp	r0, r1
10003ad2:	dc23      	bgt.n	10003b1c <_ZN9Collision17resolveArenaWallsER6PlayerPK4Rectj+0xb0>
10003ad4:	4290      	cmp	r0, r2
10003ad6:	dc23      	bgt.n	10003b20 <_ZN9Collision17resolveArenaWallsER6PlayerPK4Rectj+0xb4>
10003ad8:	2300      	movs	r3, #0
10003ada:	60bb      	str	r3, [r7, #8]
10003adc:	683b      	ldr	r3, [r7, #0]
10003ade:	4403      	add	r3, r0
10003ae0:	603b      	str	r3, [r7, #0]
10003ae2:	3501      	adds	r5, #1
10003ae4:	45a8      	cmp	r8, r5
10003ae6:	f104 0410 	add.w	r4, r4, #16
10003aea:	d1cd      	bne.n	10003a88 <_ZN9Collision17resolveArenaWallsER6PlayerPK4Rectj+0x1c>
10003aec:	f1ba 0f01 	cmp.w	sl, #1
10003af0:	d002      	beq.n	10003af8 <_ZN9Collision17resolveArenaWallsER6PlayerPK4Rectj+0x8c>
10003af2:	f04f 0a01 	mov.w	sl, #1
10003af6:	e7c5      	b.n	10003a84 <_ZN9Collision17resolveArenaWallsER6PlayerPK4Rectj+0x18>
10003af8:	b005      	add	sp, #20
10003afa:	e8bd 8ff0 	ldmia.w	sp!, {r4, r5, r6, r7, r8, r9, sl, fp, pc}
10003afe:	428b      	cmp	r3, r1
10003b00:	dc0c      	bgt.n	10003b1c <_ZN9Collision17resolveArenaWallsER6PlayerPK4Rectj+0xb0>
10003b02:	4293      	cmp	r3, r2
10003b04:	dc0c      	bgt.n	10003b20 <_ZN9Collision17resolveArenaWallsER6PlayerPK4Rectj+0xb4>
10003b06:	2200      	movs	r2, #0
10003b08:	60ba      	str	r2, [r7, #8]
10003b0a:	683a      	ldr	r2, [r7, #0]
10003b0c:	3501      	adds	r5, #1
10003b0e:	1ad2      	subs	r2, r2, r3
10003b10:	45a8      	cmp	r8, r5
10003b12:	603a      	str	r2, [r7, #0]
10003b14:	f104 0410 	add.w	r4, r4, #16
10003b18:	d1b6      	bne.n	10003a88 <_ZN9Collision17resolveArenaWallsER6PlayerPK4Rectj+0x1c>
10003b1a:	e7e7      	b.n	10003aec <_ZN9Collision17resolveArenaWallsER6PlayerPK4Rectj+0x80>
10003b1c:	4291      	cmp	r1, r2
10003b1e:	dd0a      	ble.n	10003b36 <_ZN9Collision17resolveArenaWallsER6PlayerPK4Rectj+0xca>
10003b20:	2300      	movs	r3, #0
10003b22:	60fb      	str	r3, [r7, #12]
10003b24:	687b      	ldr	r3, [r7, #4]
10003b26:	3501      	adds	r5, #1
10003b28:	4413      	add	r3, r2
10003b2a:	45a8      	cmp	r8, r5
10003b2c:	607b      	str	r3, [r7, #4]
10003b2e:	f104 0410 	add.w	r4, r4, #16
10003b32:	d1a9      	bne.n	10003a88 <_ZN9Collision17resolveArenaWallsER6PlayerPK4Rectj+0x1c>
10003b34:	e7da      	b.n	10003aec <_ZN9Collision17resolveArenaWallsER6PlayerPK4Rectj+0x80>
10003b36:	2300      	movs	r3, #0
10003b38:	60fb      	str	r3, [r7, #12]
10003b3a:	687b      	ldr	r3, [r7, #4]
10003b3c:	3501      	adds	r5, #1
10003b3e:	1a5b      	subs	r3, r3, r1
10003b40:	45a8      	cmp	r8, r5
10003b42:	607b      	str	r3, [r7, #4]
10003b44:	f104 0410 	add.w	r4, r4, #16
10003b48:	d19e      	bne.n	10003a88 <_ZN9Collision17resolveArenaWallsER6PlayerPK4Rectj+0x1c>
10003b4a:	e7cf      	b.n	10003aec <_ZN9Collision17resolveArenaWallsER6PlayerPK4Rectj+0x80>
10003b4c:	4770      	bx	lr
10003b4e:	bf00      	nop

10003b50 <_ZN9Collision28checkProjectileTileCollisionERK10ProjectileRK5Level>:
10003b50:	e92d 43f0 	stmdb	sp!, {r4, r5, r6, r7, r8, r9, lr}
10003b54:	b085      	sub	sp, #20
10003b56:	4668      	mov	r0, sp
10003b58:	4616      	mov	r6, r2
10003b5a:	f7fe fd7b 	bl	10002654 <_ZNK10Projectile11getColliderEv>
10003b5e:	e9dd 2300 	ldrd	r2, r3, [sp]
10003b62:	461c      	mov	r4, r3
10003b64:	2a00      	cmp	r2, #0
10003b66:	bfa8      	it	ge
10003b68:	4617      	movge	r7, r2
10003b6a:	9902      	ldr	r1, [sp, #8]
10003b6c:	bfb8      	it	lt
10003b6e:	f502 277f 	addlt.w	r7, r2, #1044480	@ 0xff000
10003b72:	440a      	add	r2, r1
10003b74:	bfb8      	it	lt
10003b76:	f607 77ff 	addwlt	r7, r7, #4095	@ 0xfff
10003b7a:	f5b2 3580 	subs.w	r5, r2, #65536	@ 0x10000
10003b7e:	bf48      	it	mi
10003b80:	f502 256f 	addmi.w	r5, r2, #978944	@ 0xef000
10003b84:	9a03      	ldr	r2, [sp, #12]
10003b86:	bf48      	it	mi
10003b88:	f605 75ff 	addwmi	r5, r5, #4095	@ 0xfff
10003b8c:	2b00      	cmp	r3, #0
10003b8e:	bfb8      	it	lt
10003b90:	f503 247f 	addlt.w	r4, r3, #1044480	@ 0xff000
10003b94:	4413      	add	r3, r2
10003b96:	bfb8      	it	lt
10003b98:	f604 74ff 	addwlt	r4, r4, #4095	@ 0xfff
10003b9c:	f5b3 3280 	subs.w	r2, r3, #65536	@ 0x10000
10003ba0:	bf44      	itt	mi
10003ba2:	f503 226f 	addmi.w	r2, r3, #978944	@ 0xef000
10003ba6:	f602 72ff 	addwmi	r2, r2, #4095	@ 0xfff
10003baa:	1524      	asrs	r4, r4, #20
10003bac:	ebb4 5f22 	cmp.w	r4, r2, asr #20
10003bb0:	ea4f 5727 	mov.w	r7, r7, asr #20
10003bb4:	ea4f 5525 	mov.w	r5, r5, asr #20
10003bb8:	ea4f 5822 	mov.w	r8, r2, asr #20
10003bbc:	dc15      	bgt.n	10003bea <_ZN9Collision28checkProjectileTileCollisionERK10ProjectileRK5Level+0x9a>
10003bbe:	42bd      	cmp	r5, r7
10003bc0:	bfa8      	it	ge
10003bc2:	46b9      	movge	r9, r7
10003bc4:	da02      	bge.n	10003bcc <_ZN9Collision28checkProjectileTileCollisionERK10ProjectileRK5Level+0x7c>
10003bc6:	e00d      	b.n	10003be4 <_ZN9Collision28checkProjectileTileCollisionERK10ProjectileRK5Level+0x94>
10003bc8:	45a9      	cmp	r9, r5
10003bca:	dc0b      	bgt.n	10003be4 <_ZN9Collision28checkProjectileTileCollisionERK10ProjectileRK5Level+0x94>
10003bcc:	4649      	mov	r1, r9
10003bce:	4622      	mov	r2, r4
10003bd0:	4630      	mov	r0, r6
10003bd2:	f000 f87b 	bl	10003ccc <_ZNK5Level7isSolidEii>
10003bd6:	f109 0901 	add.w	r9, r9, #1
10003bda:	2800      	cmp	r0, #0
10003bdc:	d0f4      	beq.n	10003bc8 <_ZN9Collision28checkProjectileTileCollisionERK10ProjectileRK5Level+0x78>
10003bde:	b005      	add	sp, #20
10003be0:	e8bd 83f0 	ldmia.w	sp!, {r4, r5, r6, r7, r8, r9, pc}
10003be4:	3401      	adds	r4, #1
10003be6:	45a0      	cmp	r8, r4
10003be8:	dae9      	bge.n	10003bbe <_ZN9Collision28checkProjectileTileCollisionERK10ProjectileRK5Level+0x6e>
10003bea:	2000      	movs	r0, #0
10003bec:	b005      	add	sp, #20
10003bee:	e8bd 83f0 	ldmia.w	sp!, {r4, r5, r6, r7, r8, r9, pc}
10003bf2:	bf00      	nop

10003bf4 <_ZN9Collision33checkEnemyProjectileTileCollisionERK15EnemyProjectileRK5Level>:
10003bf4:	e92d 43f0 	stmdb	sp!, {r4, r5, r6, r7, r8, r9, lr}
10003bf8:	b085      	sub	sp, #20
10003bfa:	4668      	mov	r0, sp
10003bfc:	4616      	mov	r6, r2
10003bfe:	f7ff fc3b 	bl	10003478 <_ZNK15EnemyProjectile11getColliderEv>
10003c02:	e9dd 2300 	ldrd	r2, r3, [sp]
10003c06:	461c      	mov	r4, r3
10003c08:	2a00      	cmp	r2, #0
10003c0a:	bfa8      	it	ge
10003c0c:	4617      	movge	r7, r2
10003c0e:	9902      	ldr	r1, [sp, #8]
10003c10:	bfb8      	it	lt
10003c12:	f502 277f 	addlt.w	r7, r2, #1044480	@ 0xff000
10003c16:	440a      	add	r2, r1
10003c18:	bfb8      	it	lt
10003c1a:	f607 77ff 	addwlt	r7, r7, #4095	@ 0xfff
10003c1e:	f5b2 3580 	subs.w	r5, r2, #65536	@ 0x10000
10003c22:	bf48      	it	mi
10003c24:	f502 256f 	addmi.w	r5, r2, #978944	@ 0xef000
10003c28:	9a03      	ldr	r2, [sp, #12]
10003c2a:	bf48      	it	mi
10003c2c:	f605 75ff 	addwmi	r5, r5, #4095	@ 0xfff
10003c30:	2b00      	cmp	r3, #0
10003c32:	bfb8      	it	lt
10003c34:	f503 247f 	addlt.w	r4, r3, #1044480	@ 0xff000
10003c38:	4413      	add	r3, r2
10003c3a:	bfb8      	it	lt
10003c3c:	f604 74ff 	addwlt	r4, r4, #4095	@ 0xfff
10003c40:	f5b3 3280 	subs.w	r2, r3, #65536	@ 0x10000
10003c44:	bf44      	itt	mi
10003c46:	f503 226f 	addmi.w	r2, r3, #978944	@ 0xef000
10003c4a:	f602 72ff 	addwmi	r2, r2, #4095	@ 0xfff
10003c4e:	1524      	asrs	r4, r4, #20
10003c50:	ebb4 5f22 	cmp.w	r4, r2, asr #20
10003c54:	ea4f 5727 	mov.w	r7, r7, asr #20
10003c58:	ea4f 5525 	mov.w	r5, r5, asr #20
10003c5c:	ea4f 5822 	mov.w	r8, r2, asr #20
10003c60:	dc15      	bgt.n	10003c8e <_ZN9Collision33checkEnemyProjectileTileCollisionERK15EnemyProjectileRK5Level+0x9a>
10003c62:	42bd      	cmp	r5, r7
10003c64:	bfa8      	it	ge
10003c66:	46b9      	movge	r9, r7
10003c68:	da02      	bge.n	10003c70 <_ZN9Collision33checkEnemyProjectileTileCollisionERK15EnemyProjectileRK5Level+0x7c>
10003c6a:	e00d      	b.n	10003c88 <_ZN9Collision33checkEnemyProjectileTileCollisionERK15EnemyProjectileRK5Level+0x94>
10003c6c:	45a9      	cmp	r9, r5
10003c6e:	dc0b      	bgt.n	10003c88 <_ZN9Collision33checkEnemyProjectileTileCollisionERK15EnemyProjectileRK5Level+0x94>
10003c70:	4649      	mov	r1, r9
10003c72:	4622      	mov	r2, r4
10003c74:	4630      	mov	r0, r6
10003c76:	f000 f829 	bl	10003ccc <_ZNK5Level7isSolidEii>
10003c7a:	f109 0901 	add.w	r9, r9, #1
10003c7e:	2800      	cmp	r0, #0
10003c80:	d0f4      	beq.n	10003c6c <_ZN9Collision33checkEnemyProjectileTileCollisionERK15EnemyProjectileRK5Level+0x78>
10003c82:	b005      	add	sp, #20
10003c84:	e8bd 83f0 	ldmia.w	sp!, {r4, r5, r6, r7, r8, r9, pc}
10003c88:	3401      	adds	r4, #1
10003c8a:	45a0      	cmp	r8, r4
10003c8c:	dae9      	bge.n	10003c62 <_ZN9Collision33checkEnemyProjectileTileCollisionERK15EnemyProjectileRK5Level+0x6e>
10003c8e:	2000      	movs	r0, #0
10003c90:	b005      	add	sp, #20
10003c92:	e8bd 83f0 	ldmia.w	sp!, {r4, r5, r6, r7, r8, r9, pc}
10003c96:	bf00      	nop

10003c98 <_ZNK5Level9getTileIdEii>:
10003c98:	2900      	cmp	r1, #0
10003c9a:	db10      	blt.n	10003cbe <_ZNK5Level9getTileIdEii+0x26>
10003c9c:	6803      	ldr	r3, [r0, #0]
10003c9e:	428b      	cmp	r3, r1
10003ca0:	dd0d      	ble.n	10003cbe <_ZNK5Level9getTileIdEii+0x26>
10003ca2:	2a00      	cmp	r2, #0
10003ca4:	db0b      	blt.n	10003cbe <_ZNK5Level9getTileIdEii+0x26>
10003ca6:	b410      	push	{r4}
10003ca8:	6844      	ldr	r4, [r0, #4]
10003caa:	4294      	cmp	r4, r2
10003cac:	dd09      	ble.n	10003cc2 <_ZNK5Level9getTileIdEii+0x2a>
10003cae:	4408      	add	r0, r1
10003cb0:	fb02 0203 	mla	r2, r2, r3, r0
10003cb4:	f85d 4b04 	ldr.w	r4, [sp], #4
10003cb8:	f992 0010 	ldrsb.w	r0, [r2, #16]
10003cbc:	4770      	bx	lr
10003cbe:	2000      	movs	r0, #0
10003cc0:	4770      	bx	lr
10003cc2:	2000      	movs	r0, #0
10003cc4:	f85d 4b04 	ldr.w	r4, [sp], #4
10003cc8:	4770      	bx	lr
10003cca:	bf00      	nop

10003ccc <_ZNK5Level7isSolidEii>:
10003ccc:	f1b1 0c00 	subs.w	ip, r1, #0
10003cd0:	db1a      	blt.n	10003d08 <_ZNK5Level7isSolidEii+0x3c>
10003cd2:	b508      	push	{r3, lr}
10003cd4:	6803      	ldr	r3, [r0, #0]
10003cd6:	459c      	cmp	ip, r3
10003cd8:	da14      	bge.n	10003d04 <_ZNK5Level7isSolidEii+0x38>
10003cda:	2a00      	cmp	r2, #0
10003cdc:	db12      	blt.n	10003d04 <_ZNK5Level7isSolidEii+0x38>
10003cde:	6841      	ldr	r1, [r0, #4]
10003ce0:	428a      	cmp	r2, r1
10003ce2:	da0f      	bge.n	10003d04 <_ZNK5Level7isSolidEii+0x38>
10003ce4:	4460      	add	r0, ip
10003ce6:	fb03 0002 	mla	r0, r3, r2, r0
10003cea:	f990 1010 	ldrsb.w	r1, [r0, #16]
10003cee:	2900      	cmp	r1, #0
10003cf0:	db06      	blt.n	10003d00 <_ZNK5Level7isSolidEii+0x34>
10003cf2:	290e      	cmp	r1, #14
10003cf4:	dd0a      	ble.n	10003d0c <_ZNK5Level7isSolidEii+0x40>
10003cf6:	4613      	mov	r3, r2
10003cf8:	4807      	ldr	r0, [pc, #28]	@ (10003d18 <_ZNK5Level7isSolidEii+0x4c>)
10003cfa:	4662      	mov	r2, ip
10003cfc:	f004 ff62 	bl	10008bc4 <__wrap_printf>
10003d00:	2000      	movs	r0, #0
10003d02:	bd08      	pop	{r3, pc}
10003d04:	2001      	movs	r0, #1
10003d06:	bd08      	pop	{r3, pc}
10003d08:	2001      	movs	r0, #1
10003d0a:	4770      	bx	lr
10003d0c:	290b      	cmp	r1, #11
10003d0e:	bfcc      	ite	gt
10003d10:	2000      	movgt	r0, #0
10003d12:	2001      	movle	r0, #1
10003d14:	bd08      	pop	{r3, pc}
10003d16:	bf00      	nop
10003d18:	1000d7bc 	.word	0x1000d7bc

10003d1c <_ZNK5Level10isPlatformEii>:
10003d1c:	2900      	cmp	r1, #0
10003d1e:	db14      	blt.n	10003d4a <_ZNK5Level10isPlatformEii+0x2e>
10003d20:	6803      	ldr	r3, [r0, #0]
10003d22:	4299      	cmp	r1, r3
10003d24:	da11      	bge.n	10003d4a <_ZNK5Level10isPlatformEii+0x2e>
10003d26:	2a00      	cmp	r2, #0
10003d28:	db0f      	blt.n	10003d4a <_ZNK5Level10isPlatformEii+0x2e>
10003d2a:	b410      	push	{r4}
10003d2c:	6844      	ldr	r4, [r0, #4]
10003d2e:	42a2      	cmp	r2, r4
10003d30:	da0d      	bge.n	10003d4e <_ZNK5Level10isPlatformEii+0x32>
10003d32:	4408      	add	r0, r1
10003d34:	fb03 0202 	mla	r2, r3, r2, r0
10003d38:	7c10      	ldrb	r0, [r2, #16]
10003d3a:	f85d 4b04 	ldr.w	r4, [sp], #4
10003d3e:	380c      	subs	r0, #12
10003d40:	2802      	cmp	r0, #2
10003d42:	bf8c      	ite	hi
10003d44:	2000      	movhi	r0, #0
10003d46:	2001      	movls	r0, #1
10003d48:	4770      	bx	lr
10003d4a:	2000      	movs	r0, #0
10003d4c:	4770      	bx	lr
10003d4e:	2000      	movs	r0, #0
10003d50:	f85d 4b04 	ldr.w	r4, [sp], #4
10003d54:	4770      	bx	lr
10003d56:	bf00      	nop

10003d58 <_ZN5Level18loadFromBinaryDataEPKaiiPK13LevelMetadata>:
10003d58:	e92d 43f0 	stmdb	sp!, {r4, r5, r6, r7, r8, r9, lr}
10003d5c:	ed2d 8b04 	vpush	{d8-d9}
10003d60:	b097      	sub	sp, #92	@ 0x5c
10003d62:	460f      	mov	r7, r1
10003d64:	9e22      	ldr	r6, [sp, #136]	@ 0x88
10003d66:	2900      	cmp	r1, #0
10003d68:	f000 8156 	beq.w	10004018 <_ZN5Level18loadFromBinaryDataEPKaiiPK13LevelMetadata+0x2c0>
10003d6c:	2e00      	cmp	r6, #0
10003d6e:	f000 8153 	beq.w	10004018 <_ZN5Level18loadFromBinaryDataEPKaiiPK13LevelMetadata+0x2c0>
10003d72:	2a00      	cmp	r2, #0
10003d74:	4694      	mov	ip, r2
10003d76:	f340 814f 	ble.w	10004018 <_ZN5Level18loadFromBinaryDataEPKaiiPK13LevelMetadata+0x2c0>
10003d7a:	2b00      	cmp	r3, #0
10003d7c:	f340 814c 	ble.w	10004018 <_ZN5Level18loadFromBinaryDataEPKaiiPK13LevelMetadata+0x2c0>
10003d80:	fb03 f902 	mul.w	r9, r3, r2
10003d84:	f5b9 5f00 	cmp.w	r9, #8192	@ 0x2000
10003d88:	f300 8146 	bgt.w	10004018 <_ZN5Level18loadFromBinaryDataEPKaiiPK13LevelMetadata+0x2c0>
10003d8c:	f04f 0e00 	mov.w	lr, #0
10003d90:	4604      	mov	r4, r0
10003d92:	f500 5500 	add.w	r5, r0, #8192	@ 0x2000
10003d96:	f100 0810 	add.w	r8, r0, #16
10003d9a:	f885 e068 	strb.w	lr, [r5, #104]	@ 0x68
10003d9e:	f885 e10c 	strb.w	lr, [r5, #268]	@ 0x10c
10003da2:	f885 e1b0 	strb.w	lr, [r5, #432]	@ 0x1b0
10003da6:	f885 e1c4 	strb.w	lr, [r5, #452]	@ 0x1c4
10003daa:	f885 e1d0 	strb.w	lr, [r5, #464]	@ 0x1d0
10003dae:	f885 e1e4 	strb.w	lr, [r5, #484]	@ 0x1e4
10003db2:	464a      	mov	r2, r9
10003db4:	e9c4 c300 	strd	ip, r3, [r4]
10003db8:	21ff      	movs	r1, #255	@ 0xff
10003dba:	4640      	mov	r0, r8
10003dbc:	f008 fd84 	bl	1000c8c8 <memset>
10003dc0:	f109 33ff 	add.w	r3, r9, #4294967295
10003dc4:	2b05      	cmp	r3, #5
10003dc6:	f240 8145 	bls.w	10004054 <_ZN5Level18loadFromBinaryDataEPKaiiPK13LevelMetadata+0x2fc>
10003dca:	1c7a      	adds	r2, r7, #1
10003dcc:	eba8 0202 	sub.w	r2, r8, r2
10003dd0:	2a02      	cmp	r2, #2
10003dd2:	f240 813f 	bls.w	10004054 <_ZN5Level18loadFromBinaryDataEPKaiiPK13LevelMetadata+0x2fc>
10003dd6:	463b      	mov	r3, r7
10003dd8:	f029 0203 	bic.w	r2, r9, #3
10003ddc:	3210      	adds	r2, #16
10003dde:	4422      	add	r2, r4
10003de0:	f853 1b04 	ldr.w	r1, [r3], #4
10003de4:	f848 1b04 	str.w	r1, [r8], #4
10003de8:	4542      	cmp	r2, r8
10003dea:	d1f9      	bne.n	10003de0 <_ZN5Level18loadFromBinaryDataEPKaiiPK13LevelMetadata+0x88>
10003dec:	f019 0f03 	tst.w	r9, #3
10003df0:	f029 0303 	bic.w	r3, r9, #3
10003df4:	d00e      	beq.n	10003e14 <_ZN5Level18loadFromBinaryDataEPKaiiPK13LevelMetadata+0xbc>
10003df6:	56f9      	ldrsb	r1, [r7, r3]
10003df8:	18e2      	adds	r2, r4, r3
10003dfa:	7411      	strb	r1, [r2, #16]
10003dfc:	1c5a      	adds	r2, r3, #1
10003dfe:	4591      	cmp	r9, r2
10003e00:	dd08      	ble.n	10003e14 <_ZN5Level18loadFromBinaryDataEPKaiiPK13LevelMetadata+0xbc>
10003e02:	56b9      	ldrsb	r1, [r7, r2]
10003e04:	3302      	adds	r3, #2
10003e06:	4422      	add	r2, r4
10003e08:	4599      	cmp	r9, r3
10003e0a:	7411      	strb	r1, [r2, #16]
10003e0c:	dd02      	ble.n	10003e14 <_ZN5Level18loadFromBinaryDataEPKaiiPK13LevelMetadata+0xbc>
10003e0e:	56fa      	ldrsb	r2, [r7, r3]
10003e10:	4423      	add	r3, r4
10003e12:	741a      	strb	r2, [r3, #16]
10003e14:	ed96 7a01 	vldr	s14, [r6, #4]
10003e18:	edd6 7a00 	vldr	s15, [r6]
10003e1c:	eebe 7ac8 	vcvt.s32.f32	s14, s14, #16
10003e20:	eefe 7ac8 	vcvt.s32.f32	s15, s15, #16
10003e24:	ed84 7a03 	vstr	s14, [r4, #12]
10003e28:	edc4 7a02 	vstr	s15, [r4, #8]
10003e2c:	7b37      	ldrb	r7, [r6, #12]
10003e2e:	2f00      	cmp	r7, #0
10003e30:	d049      	beq.n	10003ec6 <_ZN5Level18loadFromBinaryDataEPKaiiPK13LevelMetadata+0x16e>
10003e32:	2000      	movs	r0, #0
10003e34:	4603      	mov	r3, r0
10003e36:	e021      	b.n	10003e7c <_ZN5Level18loadFromBinaryDataEPKaiiPK13LevelMetadata+0x124>
10003e38:	f895 110c 	ldrb.w	r1, [r5, #268]	@ 0x10c
10003e3c:	f101 0c01 	add.w	ip, r1, #1
10003e40:	2913      	cmp	r1, #19
10003e42:	eb04 01c1 	add.w	r1, r4, r1, lsl #3
10003e46:	f501 5100 	add.w	r1, r1, #8192	@ 0x2000
10003e4a:	d80e      	bhi.n	10003e6a <_ZN5Level18loadFromBinaryDataEPKaiiPK13LevelMetadata+0x112>
10003e4c:	ed92 7a00 	vldr	s14, [r2]
10003e50:	edd2 7a01 	vldr	s15, [r2, #4]
10003e54:	eebe 7ac8 	vcvt.s32.f32	s14, s14, #16
10003e58:	eefe 7ac8 	vcvt.s32.f32	s15, s15, #16
10003e5c:	f885 c10c 	strb.w	ip, [r5, #268]	@ 0x10c
10003e60:	ed81 7a1b 	vstr	s14, [r1, #108]	@ 0x6c
10003e64:	edc1 7a1c 	vstr	s15, [r1, #112]	@ 0x70
10003e68:	7b37      	ldrb	r7, [r6, #12]
10003e6a:	3301      	adds	r3, #1
10003e6c:	b2db      	uxtb	r3, r3
10003e6e:	42bb      	cmp	r3, r7
10003e70:	f100 000c 	add.w	r0, r0, #12
10003e74:	d227      	bcs.n	10003ec6 <_ZN5Level18loadFromBinaryDataEPKaiiPK13LevelMetadata+0x16e>
10003e76:	f5b0 7ff0 	cmp.w	r0, #480	@ 0x1e0
10003e7a:	d024      	beq.n	10003ec6 <_ZN5Level18loadFromBinaryDataEPKaiiPK13LevelMetadata+0x16e>
10003e7c:	68b2      	ldr	r2, [r6, #8]
10003e7e:	4402      	add	r2, r0
10003e80:	7a11      	ldrb	r1, [r2, #8]
10003e82:	2900      	cmp	r1, #0
10003e84:	d0d8      	beq.n	10003e38 <_ZN5Level18loadFromBinaryDataEPKaiiPK13LevelMetadata+0xe0>
10003e86:	2901      	cmp	r1, #1
10003e88:	d1ef      	bne.n	10003e6a <_ZN5Level18loadFromBinaryDataEPKaiiPK13LevelMetadata+0x112>
10003e8a:	f895 11b0 	ldrb.w	r1, [r5, #432]	@ 0x1b0
10003e8e:	2913      	cmp	r1, #19
10003e90:	d8eb      	bhi.n	10003e6a <_ZN5Level18loadFromBinaryDataEPKaiiPK13LevelMetadata+0x112>
10003e92:	ed92 7a00 	vldr	s14, [r2]
10003e96:	edd2 7a01 	vldr	s15, [r2, #4]
10003e9a:	eebe 7ac8 	vcvt.s32.f32	s14, s14, #16
10003e9e:	eefe 7ac8 	vcvt.s32.f32	s15, s15, #16
10003ea2:	eb04 02c1 	add.w	r2, r4, r1, lsl #3
10003ea6:	f502 5200 	add.w	r2, r2, #8192	@ 0x2000
10003eaa:	3101      	adds	r1, #1
10003eac:	f885 11b0 	strb.w	r1, [r5, #432]	@ 0x1b0
10003eb0:	ed82 7a44 	vstr	s14, [r2, #272]	@ 0x110
10003eb4:	edc2 7a45 	vstr	s15, [r2, #276]	@ 0x114
10003eb8:	3301      	adds	r3, #1
10003eba:	7b37      	ldrb	r7, [r6, #12]
10003ebc:	b2db      	uxtb	r3, r3
10003ebe:	42bb      	cmp	r3, r7
10003ec0:	f100 000c 	add.w	r0, r0, #12
10003ec4:	d3d7      	bcc.n	10003e76 <_ZN5Level18loadFromBinaryDataEPKaiiPK13LevelMetadata+0x11e>
10003ec6:	7d33      	ldrb	r3, [r6, #20]
10003ec8:	b313      	cbz	r3, 10003f10 <_ZN5Level18loadFromBinaryDataEPKaiiPK13LevelMetadata+0x1b8>
10003eca:	6933      	ldr	r3, [r6, #16]
10003ecc:	ed93 7a00 	vldr	s14, [r3]
10003ed0:	edd3 7a01 	vldr	s15, [r3, #4]
10003ed4:	eebe 7ac8 	vcvt.s32.f32	s14, s14, #16
10003ed8:	eefe 7ac8 	vcvt.s32.f32	s15, s15, #16
10003edc:	2301      	movs	r3, #1
10003ede:	ed85 7a6d 	vstr	s14, [r5, #436]	@ 0x1b4
10003ee2:	edc5 7a6e 	vstr	s15, [r5, #440]	@ 0x1b8
10003ee6:	f885 31c4 	strb.w	r3, [r5, #452]	@ 0x1c4
10003eea:	7d33      	ldrb	r3, [r6, #20]
10003eec:	2b01      	cmp	r3, #1
10003eee:	d90f      	bls.n	10003f10 <_ZN5Level18loadFromBinaryDataEPKaiiPK13LevelMetadata+0x1b8>
10003ef0:	6933      	ldr	r3, [r6, #16]
10003ef2:	ed93 7a02 	vldr	s14, [r3, #8]
10003ef6:	edd3 7a03 	vldr	s15, [r3, #12]
10003efa:	eebe 7ac8 	vcvt.s32.f32	s14, s14, #16
10003efe:	eefe 7ac8 	vcvt.s32.f32	s15, s15, #16
10003f02:	2302      	movs	r3, #2
10003f04:	ed85 7a6f 	vstr	s14, [r5, #444]	@ 0x1bc
10003f08:	edc5 7a70 	vstr	s15, [r5, #448]	@ 0x1c0
10003f0c:	f885 31c4 	strb.w	r3, [r5, #452]	@ 0x1c4
10003f10:	7f33      	ldrb	r3, [r6, #28]
10003f12:	2b00      	cmp	r3, #0
10003f14:	d042      	beq.n	10003f9c <_ZN5Level18loadFromBinaryDataEPKaiiPK13LevelMetadata+0x244>
10003f16:	69b4      	ldr	r4, [r6, #24]
10003f18:	ed94 6a00 	vldr	s12, [r4]
10003f1c:	edd4 6a01 	vldr	s13, [r4, #4]
10003f20:	ed94 7a02 	vldr	s14, [r4, #8]
10003f24:	edd4 7a03 	vldr	s15, [r4, #12]
10003f28:	eef0 9a46 	vmov.f32	s19, s12
10003f2c:	eeb0 9a66 	vmov.f32	s18, s13
10003f30:	eef0 8a47 	vmov.f32	s17, s14
10003f34:	eeb0 8a67 	vmov.f32	s16, s15
10003f38:	7c23      	ldrb	r3, [r4, #16]
10003f3a:	eefe 9ac8 	vcvt.s32.f32	s19, s19, #16
10003f3e:	eebe 9ac8 	vcvt.s32.f32	s18, s18, #16
10003f42:	eefe 8ac8 	vcvt.s32.f32	s17, s17, #16
10003f46:	eebe 8ac8 	vcvt.s32.f32	s16, s16, #16
10003f4a:	2b00      	cmp	r3, #0
10003f4c:	d06a      	beq.n	10004024 <_ZN5Level18loadFromBinaryDataEPKaiiPK13LevelMetadata+0x2cc>
10003f4e:	2b01      	cmp	r3, #1
10003f50:	d070      	beq.n	10004034 <_ZN5Level18loadFromBinaryDataEPKaiiPK13LevelMetadata+0x2dc>
10003f52:	2b02      	cmp	r3, #2
10003f54:	d076      	beq.n	10004044 <_ZN5Level18loadFromBinaryDataEPKaiiPK13LevelMetadata+0x2ec>
10003f56:	2700      	movs	r7, #0
10003f58:	ed94 7a05 	vldr	s14, [r4, #20]
10003f5c:	edd4 7a06 	vldr	s15, [r4, #24]
10003f60:	2401      	movs	r4, #1
10003f62:	2300      	movs	r3, #0
10003f64:	eebe 7ac8 	vcvt.s32.f32	s14, s14, #16
10003f68:	eefe 7ac8 	vcvt.s32.f32	s15, s15, #16
10003f6c:	2258      	movs	r2, #88	@ 0x58
10003f6e:	4669      	mov	r1, sp
10003f70:	f105 0010 	add.w	r0, r5, #16
10003f74:	f885 4068 	strb.w	r4, [r5, #104]	@ 0x68
10003f78:	edcd 9a00 	vstr	s19, [sp]
10003f7c:	ed8d 9a01 	vstr	s18, [sp, #4]
10003f80:	edcd 8a02 	vstr	s17, [sp, #8]
10003f84:	ed8d 8a03 	vstr	s16, [sp, #12]
10003f88:	ed8d 7a14 	vstr	s14, [sp, #80]	@ 0x50
10003f8c:	edcd 7a15 	vstr	s15, [sp, #84]	@ 0x54
10003f90:	f88d 7010 	strb.w	r7, [sp, #16]
10003f94:	f88d 304f 	strb.w	r3, [sp, #79]	@ 0x4f
10003f98:	f009 f838 	bl	1000d00c <memcpy>
10003f9c:	f896 3024 	ldrb.w	r3, [r6, #36]	@ 0x24
10003fa0:	b1ab      	cbz	r3, 10003fce <_ZN5Level18loadFromBinaryDataEPKaiiPK13LevelMetadata+0x276>
10003fa2:	6a33      	ldr	r3, [r6, #32]
10003fa4:	2201      	movs	r2, #1
10003fa6:	ed93 7a01 	vldr	s14, [r3, #4]
10003faa:	edd3 7a00 	vldr	s15, [r3]
10003fae:	eebe 7ac8 	vcvt.s32.f32	s14, s14, #16
10003fb2:	eefe 7ac8 	vcvt.s32.f32	s15, s15, #16
10003fb6:	7a1b      	ldrb	r3, [r3, #8]
10003fb8:	ed85 7a73 	vstr	s14, [r5, #460]	@ 0x1cc
10003fbc:	2b05      	cmp	r3, #5
10003fbe:	bf28      	it	cs
10003fc0:	2305      	movcs	r3, #5
10003fc2:	edc5 7a72 	vstr	s15, [r5, #456]	@ 0x1c8
10003fc6:	f885 21d0 	strb.w	r2, [r5, #464]	@ 0x1d0
10003fca:	f8c5 31d4 	str.w	r3, [r5, #468]	@ 0x1d4
10003fce:	6ab3      	ldr	r3, [r6, #40]	@ 0x28
10003fd0:	b1e3      	cbz	r3, 1000400c <_ZN5Level18loadFromBinaryDataEPKaiiPK13LevelMetadata+0x2b4>
10003fd2:	f896 202c 	ldrb.w	r2, [r6, #44]	@ 0x2c
10003fd6:	b1ca      	cbz	r2, 1000400c <_ZN5Level18loadFromBinaryDataEPKaiiPK13LevelMetadata+0x2b4>
10003fd8:	ed93 7a01 	vldr	s14, [r3, #4]
10003fdc:	edd3 7a00 	vldr	s15, [r3]
10003fe0:	eebe 7ac8 	vcvt.s32.f32	s14, s14, #16
10003fe4:	eefe 7ac8 	vcvt.s32.f32	s15, s15, #16
10003fe8:	7a1b      	ldrb	r3, [r3, #8]
10003fea:	ed85 7a77 	vstr	s14, [r5, #476]	@ 0x1dc
10003fee:	2b01      	cmp	r3, #1
10003ff0:	edc5 7a76 	vstr	s15, [r5, #472]	@ 0x1d8
10003ff4:	d005      	beq.n	10004002 <_ZN5Level18loadFromBinaryDataEPKaiiPK13LevelMetadata+0x2aa>
10003ff6:	f1a3 0302 	sub.w	r3, r3, #2
10003ffa:	fab3 f383 	clz	r3, r3
10003ffe:	095b      	lsrs	r3, r3, #5
10004000:	005b      	lsls	r3, r3, #1
10004002:	2201      	movs	r2, #1
10004004:	f8c5 31e0 	str.w	r3, [r5, #480]	@ 0x1e0
10004008:	f885 21e4 	strb.w	r2, [r5, #484]	@ 0x1e4
1000400c:	2001      	movs	r0, #1
1000400e:	b017      	add	sp, #92	@ 0x5c
10004010:	ecbd 8b04 	vpop	{d8-d9}
10004014:	e8bd 83f0 	ldmia.w	sp!, {r4, r5, r6, r7, r8, r9, pc}
10004018:	2000      	movs	r0, #0
1000401a:	b017      	add	sp, #92	@ 0x5c
1000401c:	ecbd 8b04 	vpop	{d8-d9}
10004020:	e8bd 83f0 	ldmia.w	sp!, {r4, r5, r6, r7, r8, r9, pc}
10004024:	223f      	movs	r2, #63	@ 0x3f
10004026:	4911      	ldr	r1, [pc, #68]	@ (1000406c <_ZN5Level18loadFromBinaryDataEPKaiiPK13LevelMetadata+0x314>)
10004028:	a804      	add	r0, sp, #16
1000402a:	f008 fc9b 	bl	1000c964 <strncpy>
1000402e:	f89d 7010 	ldrb.w	r7, [sp, #16]
10004032:	e791      	b.n	10003f58 <_ZN5Level18loadFromBinaryDataEPKaiiPK13LevelMetadata+0x200>
10004034:	223f      	movs	r2, #63	@ 0x3f
10004036:	490e      	ldr	r1, [pc, #56]	@ (10004070 <_ZN5Level18loadFromBinaryDataEPKaiiPK13LevelMetadata+0x318>)
10004038:	a804      	add	r0, sp, #16
1000403a:	f008 fc93 	bl	1000c964 <strncpy>
1000403e:	f89d 7010 	ldrb.w	r7, [sp, #16]
10004042:	e789      	b.n	10003f58 <_ZN5Level18loadFromBinaryDataEPKaiiPK13LevelMetadata+0x200>
10004044:	223f      	movs	r2, #63	@ 0x3f
10004046:	490b      	ldr	r1, [pc, #44]	@ (10004074 <_ZN5Level18loadFromBinaryDataEPKaiiPK13LevelMetadata+0x31c>)
10004048:	a804      	add	r0, sp, #16
1000404a:	f008 fc8b 	bl	1000c964 <strncpy>
1000404e:	f89d 7010 	ldrb.w	r7, [sp, #16]
10004052:	e781      	b.n	10003f58 <_ZN5Level18loadFromBinaryDataEPKaiiPK13LevelMetadata+0x200>
10004054:	443b      	add	r3, r7
10004056:	f104 020f 	add.w	r2, r4, #15
1000405a:	3f01      	subs	r7, #1
1000405c:	f917 1f01 	ldrsb.w	r1, [r7, #1]!
10004060:	42bb      	cmp	r3, r7
10004062:	f802 1f01 	strb.w	r1, [r2, #1]!
10004066:	d1f9      	bne.n	1000405c <_ZN5Level18loadFromBinaryDataEPKaiiPK13LevelMetadata+0x304>
10004068:	e6d4      	b.n	10003e14 <_ZN5Level18loadFromBinaryDataEPKaiiPK13LevelMetadata+0xbc>
1000406a:	bf00      	nop
1000406c:	1000d7e8 	.word	0x1000d7e8
10004070:	1000d800 	.word	0x1000d800
10004074:	1000d818 	.word	0x1000d818

10004078 <_ZN5Level13loadTestLevelEv>:
10004078:	b570      	push	{r4, r5, r6, lr}
1000407a:	f04f 0c00 	mov.w	ip, #0
1000407e:	2640      	movs	r6, #64	@ 0x40
10004080:	2520      	movs	r5, #32
10004082:	4604      	mov	r4, r0
10004084:	f500 5300 	add.w	r3, r0, #8192	@ 0x2000
10004088:	f883 c068 	strb.w	ip, [r3, #104]	@ 0x68
1000408c:	f883 c10c 	strb.w	ip, [r3, #268]	@ 0x10c
10004090:	f883 c1b0 	strb.w	ip, [r3, #432]	@ 0x1b0
10004094:	f883 c1c4 	strb.w	ip, [r3, #452]	@ 0x1c4
10004098:	f883 c1d0 	strb.w	ip, [r3, #464]	@ 0x1d0
1000409c:	f883 c1e4 	strb.w	ip, [r3, #484]	@ 0x1e4
100040a0:	f44f 6200 	mov.w	r2, #2048	@ 0x800
100040a4:	21ff      	movs	r1, #255	@ 0xff
100040a6:	e9c0 6500 	strd	r6, r5, [r0]
100040aa:	3010      	adds	r0, #16
100040ac:	f008 fc0c 	bl	1000c8c8 <memset>
100040b0:	2280      	movs	r2, #128	@ 0x80
100040b2:	2104      	movs	r1, #4
100040b4:	f504 60f2 	add.w	r0, r4, #1936	@ 0x790
100040b8:	f008 fc06 	bl	1000c8c8 <memset>
100040bc:	f04f 0c04 	mov.w	ip, #4
100040c0:	4623      	mov	r3, r4
100040c2:	4622      	mov	r2, r4
100040c4:	f504 6100 	add.w	r1, r4, #2048	@ 0x800
100040c8:	f882 c010 	strb.w	ip, [r2, #16]
100040cc:	3240      	adds	r2, #64	@ 0x40
100040ce:	4291      	cmp	r1, r2
100040d0:	d1fa      	bne.n	100040c8 <_ZN5Level13loadTestLevelEv+0x50>
100040d2:	2204      	movs	r2, #4
100040d4:	f883 204f 	strb.w	r2, [r3, #79]	@ 0x4f
100040d8:	3340      	adds	r3, #64	@ 0x40
100040da:	4299      	cmp	r1, r3
100040dc:	d1fa      	bne.n	100040d4 <_ZN5Level13loadTestLevelEv+0x5c>
100040de:	f04f 330d 	mov.w	r3, #218959117	@ 0xd0d0d0d
100040e2:	220d      	movs	r2, #13
100040e4:	f44f 01c8 	mov.w	r1, #6553600	@ 0x640000
100040e8:	f8c4 369a 	str.w	r3, [r4, #1690]	@ 0x69a
100040ec:	f8c4 369e 	str.w	r3, [r4, #1694]	@ 0x69e
100040f0:	f8a4 36a2 	strh.w	r3, [r4, #1698]	@ 0x6a2
100040f4:	f8c4 35a9 	str.w	r3, [r4, #1449]	@ 0x5a9
100040f8:	f8c4 35ad 	str.w	r3, [r4, #1453]	@ 0x5ad
100040fc:	f8a4 35b1 	strh.w	r3, [r4, #1457]	@ 0x5b1
10004100:	f8c4 36c2 	str.w	r3, [r4, #1730]	@ 0x6c2
10004104:	f8c4 36c6 	str.w	r3, [r4, #1734]	@ 0x6c6
10004108:	f8a4 36ca 	strh.w	r3, [r4, #1738]	@ 0x6ca
1000410c:	f884 2778 	strb.w	r2, [r4, #1912]	@ 0x778
10004110:	f884 2739 	strb.w	r2, [r4, #1849]	@ 0x739
10004114:	f884 26fa 	strb.w	r2, [r4, #1786]	@ 0x6fa
10004118:	f884 26bb 	strb.w	r2, [r4, #1723]	@ 0x6bb
1000411c:	f884 267c 	strb.w	r2, [r4, #1660]	@ 0x67c
10004120:	e9c4 1102 	strd	r1, r1, [r4, #8]
10004124:	bd70      	pop	{r4, r5, r6, pc}
10004126:	bf00      	nop

10004128 <_ZN5LevelC1Ev>:
10004128:	b510      	push	{r4, lr}
1000412a:	f242 0360 	movw	r3, #8288	@ 0x2060
1000412e:	4604      	mov	r4, r0
10004130:	2200      	movs	r2, #0
10004132:	f500 5000 	add.w	r0, r0, #8192	@ 0x2000
10004136:	18e1      	adds	r1, r4, r3
10004138:	e9c0 2204 	strd	r2, r2, [r0, #16]
1000413c:	e9c0 2206 	strd	r2, r2, [r0, #24]
10004140:	50e2      	str	r2, [r4, r3]
10004142:	604a      	str	r2, [r1, #4]
10004144:	f504 5301 	add.w	r3, r4, #8256	@ 0x2040
10004148:	f504 5104 	add.w	r1, r4, #8448	@ 0x2100
1000414c:	332c      	adds	r3, #44	@ 0x2c
1000414e:	f880 2020 	strb.w	r2, [r0, #32]
10004152:	310c      	adds	r1, #12
10004154:	e9c3 2200 	strd	r2, r2, [r3]
10004158:	3308      	adds	r3, #8
1000415a:	428b      	cmp	r3, r1
1000415c:	d1fa      	bne.n	10004154 <_ZN5LevelC1Ev+0x2c>
1000415e:	2200      	movs	r2, #0
10004160:	f504 5304 	add.w	r3, r4, #8448	@ 0x2100
10004164:	f504 5106 	add.w	r1, r4, #8576	@ 0x2180
10004168:	3310      	adds	r3, #16
1000416a:	3130      	adds	r1, #48	@ 0x30
1000416c:	e9c3 2200 	strd	r2, r2, [r3]
10004170:	3308      	adds	r3, #8
10004172:	4299      	cmp	r1, r3
10004174:	d1fa      	bne.n	1000416c <_ZN5LevelC1Ev+0x44>
10004176:	f504 5107 	add.w	r1, r4, #8640	@ 0x21c0
1000417a:	e9c0 226d 	strd	r2, r2, [r0, #436]	@ 0x1b4
1000417e:	e9c0 226f 	strd	r2, r2, [r0, #444]	@ 0x1bc
10004182:	4620      	mov	r0, r4
10004184:	e9c1 2202 	strd	r2, r2, [r1, #8]
10004188:	e9c1 2206 	strd	r2, r2, [r1, #24]
1000418c:	f7ff ff74 	bl	10004078 <_ZN5Level13loadTestLevelEv>
10004190:	4620      	mov	r0, r4
10004192:	bd10      	pop	{r4, pc}

10004194 <_ZN6CameraC1Eii>:
10004194:	b410      	push	{r4}
10004196:	2400      	movs	r4, #0
10004198:	e9c0 1202 	strd	r1, r2, [r0, #8]
1000419c:	e9c0 4400 	strd	r4, r4, [r0]
100041a0:	f85d 4b04 	ldr.w	r4, [sp], #4
100041a4:	4770      	bx	lr
100041a6:	bf00      	nop

100041a8 <_ZN6Camera6followERK6PlayerRK5Level>:
100041a8:	e92d 43f0 	stmdb	sp!, {r4, r5, r6, r7, r8, r9, lr}
100041ac:	e9d0 3402 	ldrd	r3, r4, [r0, #8]
100041b0:	e9d1 7100 	ldrd	r7, r1, [r1]
100041b4:	ee07 3a90 	vmov	s15, r3
100041b8:	ee07 4a10 	vmov	s14, r4
100041bc:	eef6 6a00 	vmov.f32	s13, #96	@ 0x3f000000  0.5
100041c0:	eef8 7ae7 	vcvt.f32.s32	s15, s15
100041c4:	eeb8 7ac7 	vcvt.f32.s32	s14, s14
100041c8:	ee67 7aa6 	vmul.f32	s15, s15, s13
100041cc:	ee27 7a26 	vmul.f32	s14, s14, s13
100041d0:	eefe 7ac8 	vcvt.s32.f32	s15, s15, #16
100041d4:	eebe 7ac8 	vcvt.s32.f32	s14, s14, #16
100041d8:	ee17 ca90 	vmov	ip, s15
100041dc:	f501 2e00 	add.w	lr, r1, #524288	@ 0x80000
100041e0:	ee17 1a10 	vmov	r1, s14
100041e4:	6805      	ldr	r5, [r0, #0]
100041e6:	6846      	ldr	r6, [r0, #4]
100041e8:	44ac      	add	ip, r5
100041ea:	f507 2700 	add.w	r7, r7, #524288	@ 0x80000
100041ee:	f5ac 1920 	sub.w	r9, ip, #2621440	@ 0x280000
100041f2:	4431      	add	r1, r6
100041f4:	454f      	cmp	r7, r9
100041f6:	f5a1 18f0 	sub.w	r8, r1, #1966080	@ 0x1e0000
100041fa:	da2b      	bge.n	10004254 <_ZN6Camera6followERK6PlayerRK5Level+0xac>
100041fc:	eba7 0909 	sub.w	r9, r7, r9
10004200:	45c6      	cmp	lr, r8
10004202:	444d      	add	r5, r9
10004204:	da2f      	bge.n	10004266 <_ZN6Camera6followERK6PlayerRK5Level+0xbe>
10004206:	ebae 0808 	sub.w	r8, lr, r8
1000420a:	4446      	add	r6, r8
1000420c:	6851      	ldr	r1, [r2, #4]
1000420e:	6812      	ldr	r2, [r2, #0]
10004210:	ebc4 1401 	rsb	r4, r4, r1, lsl #4
10004214:	ee07 4a90 	vmov	s15, r4
10004218:	ebc3 1302 	rsb	r3, r3, r2, lsl #4
1000421c:	eeb8 7ae7 	vcvt.f32.s32	s14, s15
10004220:	ee07 3a90 	vmov	s15, r3
10004224:	eef8 7ae7 	vcvt.f32.s32	s15, s15
10004228:	eebe 7ac8 	vcvt.s32.f32	s14, s14, #16
1000422c:	eefe 7ac8 	vcvt.s32.f32	s15, s15, #16
10004230:	ee17 2a10 	vmov	r2, s14
10004234:	ee17 3a90 	vmov	r3, s15
10004238:	42b2      	cmp	r2, r6
1000423a:	bfa8      	it	ge
1000423c:	4632      	movge	r2, r6
1000423e:	42ab      	cmp	r3, r5
10004240:	bfa8      	it	ge
10004242:	462b      	movge	r3, r5
10004244:	ea22 72e2 	bic.w	r2, r2, r2, asr #31
10004248:	ea23 73e3 	bic.w	r3, r3, r3, asr #31
1000424c:	6042      	str	r2, [r0, #4]
1000424e:	6003      	str	r3, [r0, #0]
10004250:	e8bd 83f0 	ldmia.w	sp!, {r4, r5, r6, r7, r8, r9, pc}
10004254:	f50c 1c20 	add.w	ip, ip, #2621440	@ 0x280000
10004258:	4567      	cmp	r7, ip
1000425a:	bfc4      	itt	gt
1000425c:	eba7 070c 	subgt.w	r7, r7, ip
10004260:	19ed      	addgt	r5, r5, r7
10004262:	45c6      	cmp	lr, r8
10004264:	dbcf      	blt.n	10004206 <_ZN6Camera6followERK6PlayerRK5Level+0x5e>
10004266:	f501 11f0 	add.w	r1, r1, #1966080	@ 0x1e0000
1000426a:	458e      	cmp	lr, r1
1000426c:	bfc4      	itt	gt
1000426e:	ebae 0101 	subgt.w	r1, lr, r1
10004272:	1876      	addgt	r6, r6, r1
10004274:	e7ca      	b.n	1000420c <_ZN6Camera6followERK6PlayerRK5Level+0x64>
10004276:	bf00      	nop

10004278 <main>:
10004278:	b500      	push	{lr}
1000427a:	f5ad 5d48 	sub.w	sp, sp, #12800	@ 0x3200
1000427e:	b085      	sub	sp, #20
10004280:	f004 fbdc 	bl	10008a3c <stdio_init_all>
10004284:	ad04      	add	r5, sp, #16
10004286:	a80e      	add	r0, sp, #56	@ 0x38
10004288:	f000 fc36 	bl	10004af8 <_ZN12PicoRendererC1Ev>
1000428c:	4628      	mov	r0, r5
1000428e:	f001 f8c9 	bl	10005424 <_ZN9PicoInputC1Ev>
10004292:	ac06      	add	r4, sp, #24
10004294:	a803      	add	r0, sp, #12
10004296:	f001 f951 	bl	1000553c <_ZN11PicoHapticsC1Ev>
1000429a:	4620      	mov	r0, r4
1000429c:	f001 fa2c 	bl	100056f8 <_ZN9PicoTimerC1Ev>
100042a0:	462a      	mov	r2, r5
100042a2:	ab03      	add	r3, sp, #12
100042a4:	a90e      	add	r1, sp, #56	@ 0x38
100042a6:	9400      	str	r4, [sp, #0]
100042a8:	4d0c      	ldr	r5, [pc, #48]	@ (100042dc <main+0x64>)
100042aa:	a877      	add	r0, sp, #476	@ 0x1dc
100042ac:	f7fb ffc2 	bl	10000234 <_ZN4GameC1EP9IRendererP6IInputP8IHapticsP6ITimer>
100042b0:	ac84      	add	r4, sp, #528	@ 0x210
100042b2:	a877      	add	r0, sp, #476	@ 0x1dc
100042b4:	f7fc f928 	bl	10000508 <_ZN4Game4initEv>
100042b8:	4909      	ldr	r1, [pc, #36]	@ (100042e0 <main+0x68>)
100042ba:	2320      	movs	r3, #32
100042bc:	2240      	movs	r2, #64	@ 0x40
100042be:	4620      	mov	r0, r4
100042c0:	9500      	str	r5, [sp, #0]
100042c2:	f7ff fd49 	bl	10003d58 <_ZN5Level18loadFromBinaryDataEPKaiiPK13LevelMetadata>
100042c6:	4907      	ldr	r1, [pc, #28]	@ (100042e4 <main+0x6c>)
100042c8:	a877      	add	r0, sp, #476	@ 0x1dc
100042ca:	f7fc fb81 	bl	100009d0 <_ZN4Game28syncEntitiesFromCurrentLevelEPKc>
100042ce:	a877      	add	r0, sp, #476	@ 0x1dc
100042d0:	f7fc fc3a 	bl	10000b48 <_ZN4Game6updateEv>
100042d4:	a877      	add	r0, sp, #476	@ 0x1dc
100042d6:	f7fd fbd7 	bl	10001a88 <_ZN4Game6renderEv>
100042da:	e7f8      	b.n	100042ce <main+0x56>
100042dc:	10010d20 	.word	0x10010d20
100042e0:	10010da4 	.word	0x10010da4
100042e4:	1000d7e8 	.word	0x1000d7e8

100042e8 <_ZNK12PicoRenderer14getScreenWidthEv>:
100042e8:	f44f 70a0 	mov.w	r0, #320	@ 0x140
100042ec:	4770      	bx	lr
100042ee:	bf00      	nop

100042f0 <_ZNK12PicoRenderer15getScreenHeightEv>:
100042f0:	20f0      	movs	r0, #240	@ 0xf0
100042f2:	4770      	bx	lr

100042f4 <_ZN12PicoRenderer5clearE5Color>:
100042f4:	460b      	mov	r3, r1
100042f6:	468c      	mov	ip, r1
100042f8:	2200      	movs	r2, #0
100042fa:	ea4f 210c 	mov.w	r1, ip, lsl #8
100042fe:	ea4f 1c53 	mov.w	ip, r3, lsr #5
10004302:	f401 4178 	and.w	r1, r1, #63488	@ 0xf800
10004306:	f40c 6cfc 	and.w	ip, ip, #2016	@ 0x7e0
1000430a:	f3c3 43c4 	ubfx	r3, r3, #19, #5
1000430e:	ea41 010c 	orr.w	r1, r1, ip
10004312:	4319      	orrs	r1, r3
10004314:	6843      	ldr	r3, [r0, #4]
10004316:	f361 020f 	bfi	r2, r1, #0, #16
1000431a:	f361 421f 	bfi	r2, r1, #16, #16
1000431e:	b082      	sub	sp, #8
10004320:	f503 3116 	add.w	r1, r3, #153600	@ 0x25800
10004324:	f843 2b04 	str.w	r2, [r3], #4
10004328:	4299      	cmp	r1, r3
1000432a:	d1fb      	bne.n	10004324 <_ZN12PicoRenderer5clearE5Color+0x30>
1000432c:	b002      	add	sp, #8
1000432e:	4770      	bx	lr

10004330 <_ZN12PicoRenderer8drawRectERK4Rect5Colorb>:
10004330:	edd1 7a00 	vldr	s15, [r1]
10004334:	ed9f 7a9c 	vldr	s14, [pc, #624]	@ 100045a8 <_ZN12PicoRenderer8drawRectERK4Rect5Colorb+0x278>
10004338:	eef8 7ae7 	vcvt.f32.s32	s15, s15
1000433c:	ee67 7a87 	vmul.f32	s15, s15, s14
10004340:	eefd 7ae7 	vcvt.s32.f32	s15, s15
10004344:	e92d 4ff0 	stmdb	sp!, {r4, r5, r6, r7, r8, r9, sl, fp, lr}
10004348:	b083      	sub	sp, #12
1000434a:	9201      	str	r2, [sp, #4]
1000434c:	ee17 2a90 	vmov	r2, s15
10004350:	f8b0 7162 	ldrh.w	r7, [r0, #354]	@ 0x162
10004354:	42ba      	cmp	r2, r7
10004356:	f280 80c2 	bge.w	100044de <_ZN12PicoRenderer8drawRectERK4Rect5Colorb+0x1ae>
1000435a:	edd1 7a01 	vldr	s15, [r1, #4]
1000435e:	eef8 7ae7 	vcvt.f32.s32	s15, s15
10004362:	ee67 7a87 	vmul.f32	s15, s15, s14
10004366:	eefd 7ae7 	vcvt.s32.f32	s15, s15
1000436a:	ee17 ca90 	vmov	ip, s15
1000436e:	f8b0 e164 	ldrh.w	lr, [r0, #356]	@ 0x164
10004372:	45f4      	cmp	ip, lr
10004374:	f280 80b3 	bge.w	100044de <_ZN12PicoRenderer8drawRectERK4Rect5Colorb+0x1ae>
10004378:	edd1 7a02 	vldr	s15, [r1, #8]
1000437c:	eef8 7ae7 	vcvt.f32.s32	s15, s15
10004380:	ee67 7a87 	vmul.f32	s15, s15, s14
10004384:	eefd 7ae7 	vcvt.s32.f32	s15, s15
10004388:	ee17 6a90 	vmov	r6, s15
1000438c:	1995      	adds	r5, r2, r6
1000438e:	f100 80a6 	bmi.w	100044de <_ZN12PicoRenderer8drawRectERK4Rect5Colorb+0x1ae>
10004392:	edd1 7a03 	vldr	s15, [r1, #12]
10004396:	eef8 7ae7 	vcvt.f32.s32	s15, s15
1000439a:	ee67 7a87 	vmul.f32	s15, s15, s14
1000439e:	eefd 7ae7 	vcvt.s32.f32	s15, s15
100043a2:	ee17 1a90 	vmov	r1, s15
100043a6:	eb1c 0401 	adds.w	r4, ip, r1
100043aa:	f100 8098 	bmi.w	100044de <_ZN12PicoRenderer8drawRectERK4Rect5Colorb+0x1ae>
100043ae:	2e00      	cmp	r6, #0
100043b0:	f340 8095 	ble.w	100044de <_ZN12PicoRenderer8drawRectERK4Rect5Colorb+0x1ae>
100043b4:	2900      	cmp	r1, #0
100043b6:	f340 8092 	ble.w	100044de <_ZN12PicoRenderer8drawRectERK4Rect5Colorb+0x1ae>
100043ba:	2a00      	cmp	r2, #0
100043bc:	bfbc      	itt	lt
100043be:	462e      	movlt	r6, r5
100043c0:	2200      	movlt	r2, #0
100043c2:	f1bc 0f00 	cmp.w	ip, #0
100043c6:	bfbc      	itt	lt
100043c8:	f04f 0c00 	movlt.w	ip, #0
100043cc:	4621      	movlt	r1, r4
100043ce:	42bd      	cmp	r5, r7
100043d0:	bfc4      	itt	gt
100043d2:	463d      	movgt	r5, r7
100043d4:	1abe      	subgt	r6, r7, r2
100043d6:	f89d 8005 	ldrb.w	r8, [sp, #5]
100043da:	4574      	cmp	r4, lr
100043dc:	4f73      	ldr	r7, [pc, #460]	@ (100045ac <_ZN12PicoRenderer8drawRectERK4Rect5Colorb+0x27c>)
100043de:	bfc4      	itt	gt
100043e0:	4674      	movgt	r4, lr
100043e2:	ebae 010c 	subgt.w	r1, lr, ip
100043e6:	f89d e004 	ldrb.w	lr, [sp, #4]
100043ea:	ea4f 08c8 	mov.w	r8, r8, lsl #3
100043ee:	ea07 2e0e 	and.w	lr, r7, lr, lsl #8
100043f2:	f408 68fc 	and.w	r8, r8, #2016	@ 0x7e0
100043f6:	f89d 7006 	ldrb.w	r7, [sp, #6]
100043fa:	ea4e 0e08 	orr.w	lr, lr, r8
100043fe:	ea4e 0ed7 	orr.w	lr, lr, r7, lsr #3
10004402:	2b00      	cmp	r3, #0
10004404:	d16e      	bne.n	100044e4 <_ZN12PicoRenderer8drawRectERK4Rect5Colorb+0x1b4>
10004406:	42aa      	cmp	r2, r5
10004408:	f280 80bf 	bge.w	1000458a <_ZN12PicoRenderer8drawRectERK4Rect5Colorb+0x25a>
1000440c:	eb0c 068c 	add.w	r6, ip, ip, lsl #2
10004410:	ea4f 1b86 	mov.w	fp, r6, lsl #6
10004414:	1aae      	subs	r6, r5, r2
10004416:	2e01      	cmp	r6, #1
10004418:	f8d0 9004 	ldr.w	r9, [r0, #4]
1000441c:	4493      	add	fp, r2
1000441e:	f000 80b7 	beq.w	10004590 <_ZN12PicoRenderer8drawRectERK4Rect5Colorb+0x260>
10004422:	eb09 084b 	add.w	r8, r9, fp, lsl #1
10004426:	0877      	lsrs	r7, r6, #1
10004428:	f36e 030f 	bfi	r3, lr, #0, #16
1000442c:	eb08 0a87 	add.w	sl, r8, r7, lsl #2
10004430:	f36e 431f 	bfi	r3, lr, #16, #16
10004434:	f848 3b04 	str.w	r3, [r8], #4
10004438:	45c2      	cmp	sl, r8
1000443a:	d1fb      	bne.n	10004434 <_ZN12PicoRenderer8drawRectERK4Rect5Colorb+0x104>
1000443c:	f016 0a01 	ands.w	sl, r6, #1
10004440:	f000 809d 	beq.w	1000457e <_ZN12PicoRenderer8drawRectERK4Rect5Colorb+0x24e>
10004444:	f026 0301 	bic.w	r3, r6, #1
10004448:	449b      	add	fp, r3
1000444a:	2901      	cmp	r1, #1
1000444c:	f829 e01b 	strh.w	lr, [r9, fp, lsl #1]
10004450:	dd45      	ble.n	100044de <_ZN12PicoRenderer8drawRectERK4Rect5Colorb+0x1ae>
10004452:	f04f 0800 	mov.w	r8, #0
10004456:	1e63      	subs	r3, r4, #1
10004458:	eb03 0383 	add.w	r3, r3, r3, lsl #2
1000445c:	019b      	lsls	r3, r3, #6
1000445e:	9300      	str	r3, [sp, #0]
10004460:	f102 4300 	add.w	r3, r2, #2147483648	@ 0x80000000
10004464:	f5a3 73a0 	sub.w	r3, r3, #320	@ 0x140
10004468:	eb04 0b84 	add.w	fp, r4, r4, lsl #2
1000446c:	eb03 138b 	add.w	r3, r3, fp, lsl #6
10004470:	eb09 0343 	add.w	r3, r9, r3, lsl #1
10004474:	f36e 080f 	bfi	r8, lr, #0, #16
10004478:	eb03 0787 	add.w	r7, r3, r7, lsl #2
1000447c:	f36e 481f 	bfi	r8, lr, #16, #16
10004480:	f843 8b04 	str.w	r8, [r3], #4
10004484:	429f      	cmp	r7, r3
10004486:	d1fb      	bne.n	10004480 <_ZN12PicoRenderer8drawRectERK4Rect5Colorb+0x150>
10004488:	f1ba 0f00 	cmp.w	sl, #0
1000448c:	d006      	beq.n	1000449c <_ZN12PicoRenderer8drawRectERK4Rect5Colorb+0x16c>
1000448e:	f026 0301 	bic.w	r3, r6, #1
10004492:	4413      	add	r3, r2
10004494:	9e00      	ldr	r6, [sp, #0]
10004496:	4433      	add	r3, r6
10004498:	f829 e013 	strh.w	lr, [r9, r3, lsl #1]
1000449c:	2902      	cmp	r1, #2
1000449e:	d01e      	beq.n	100044de <_ZN12PicoRenderer8drawRectERK4Rect5Colorb+0x1ae>
100044a0:	f10c 0301 	add.w	r3, ip, #1
100044a4:	1e61      	subs	r1, r4, #1
100044a6:	428b      	cmp	r3, r1
100044a8:	da19      	bge.n	100044de <_ZN12PicoRenderer8drawRectERK4Rect5Colorb+0x1ae>
100044aa:	6841      	ldr	r1, [r0, #4]
100044ac:	eb0c 038c 	add.w	r3, ip, ip, lsl #2
100044b0:	eb04 0484 	add.w	r4, r4, r4, lsl #2
100044b4:	eb02 1383 	add.w	r3, r2, r3, lsl #6
100044b8:	eb02 1084 	add.w	r0, r2, r4, lsl #6
100044bc:	eb01 0343 	add.w	r3, r1, r3, lsl #1
100044c0:	f5a1 61a0 	sub.w	r1, r1, #1280	@ 0x500
100044c4:	1aae      	subs	r6, r5, r2
100044c6:	eb01 0140 	add.w	r1, r1, r0, lsl #1
100044ca:	f8a3 e280 	strh.w	lr, [r3, #640]	@ 0x280
100044ce:	f203 227e 	addw	r2, r3, #638	@ 0x27e
100044d2:	f503 7320 	add.w	r3, r3, #640	@ 0x280
100044d6:	428b      	cmp	r3, r1
100044d8:	f822 e016 	strh.w	lr, [r2, r6, lsl #1]
100044dc:	d1f5      	bne.n	100044ca <_ZN12PicoRenderer8drawRectERK4Rect5Colorb+0x19a>
100044de:	b003      	add	sp, #12
100044e0:	e8bd 8ff0 	ldmia.w	sp!, {r4, r5, r6, r7, r8, r9, sl, fp, pc}
100044e4:	2900      	cmp	r1, #0
100044e6:	ddfa      	ble.n	100044de <_ZN12PicoRenderer8drawRectERK4Rect5Colorb+0x1ae>
100044e8:	2e00      	cmp	r6, #0
100044ea:	ddf8      	ble.n	100044de <_ZN12PicoRenderer8drawRectERK4Rect5Colorb+0x1ae>
100044ec:	eba5 0a02 	sub.w	sl, r5, r2
100044f0:	42aa      	cmp	r2, r5
100044f2:	bfb4      	ite	lt
100044f4:	46d0      	movlt	r8, sl
100044f6:	f04f 0801 	movge.w	r8, #1
100044fa:	ea4f 0958 	mov.w	r9, r8, lsr #1
100044fe:	f028 0b01 	bic.w	fp, r8, #1
10004502:	f008 0801 	and.w	r8, r8, #1
10004506:	f1ba 0f01 	cmp.w	sl, #1
1000450a:	bf18      	it	ne
1000450c:	42aa      	cmpne	r2, r5
1000450e:	4643      	mov	r3, r8
10004510:	eb0c 068c 	add.w	r6, ip, ip, lsl #2
10004514:	eb02 1586 	add.w	r5, r2, r6, lsl #6
10004518:	4690      	mov	r8, r2
1000451a:	4493      	add	fp, r2
1000451c:	bfac      	ite	ge
1000451e:	f04f 0a01 	movge.w	sl, #1
10004522:	f04f 0a00 	movlt.w	sl, #0
10004526:	461a      	mov	r2, r3
10004528:	6847      	ldr	r7, [r0, #4]
1000452a:	01b6      	lsls	r6, r6, #6
1000452c:	006d      	lsls	r5, r5, #1
1000452e:	ea4f 0989 	mov.w	r9, r9, lsl #2
10004532:	f1ba 0f00 	cmp.w	sl, #0
10004536:	d126      	bne.n	10004586 <_ZN12PicoRenderer8drawRectERK4Rect5Colorb+0x256>
10004538:	2100      	movs	r1, #0
1000453a:	197b      	adds	r3, r7, r5
1000453c:	f36e 010f 	bfi	r1, lr, #0, #16
10004540:	eb09 0003 	add.w	r0, r9, r3
10004544:	f36e 411f 	bfi	r1, lr, #16, #16
10004548:	f843 1b04 	str.w	r1, [r3], #4
1000454c:	4298      	cmp	r0, r3
1000454e:	d1fb      	bne.n	10004548 <_ZN12PicoRenderer8drawRectERK4Rect5Colorb+0x218>
10004550:	b162      	cbz	r2, 1000456c <_ZN12PicoRenderer8drawRectERK4Rect5Colorb+0x23c>
10004552:	465b      	mov	r3, fp
10004554:	f10c 0c01 	add.w	ip, ip, #1
10004558:	4433      	add	r3, r6
1000455a:	45a4      	cmp	ip, r4
1000455c:	f827 e013 	strh.w	lr, [r7, r3, lsl #1]
10004560:	f506 76a0 	add.w	r6, r6, #320	@ 0x140
10004564:	f505 7520 	add.w	r5, r5, #640	@ 0x280
10004568:	dbe3      	blt.n	10004532 <_ZN12PicoRenderer8drawRectERK4Rect5Colorb+0x202>
1000456a:	e7b8      	b.n	100044de <_ZN12PicoRenderer8drawRectERK4Rect5Colorb+0x1ae>
1000456c:	f10c 0c01 	add.w	ip, ip, #1
10004570:	4564      	cmp	r4, ip
10004572:	f506 76a0 	add.w	r6, r6, #320	@ 0x140
10004576:	f505 7520 	add.w	r5, r5, #640	@ 0x280
1000457a:	dcdd      	bgt.n	10004538 <_ZN12PicoRenderer8drawRectERK4Rect5Colorb+0x208>
1000457c:	e7af      	b.n	100044de <_ZN12PicoRenderer8drawRectERK4Rect5Colorb+0x1ae>
1000457e:	2901      	cmp	r1, #1
10004580:	f73f af67 	bgt.w	10004452 <_ZN12PicoRenderer8drawRectERK4Rect5Colorb+0x122>
10004584:	e7ab      	b.n	100044de <_ZN12PicoRenderer8drawRectERK4Rect5Colorb+0x1ae>
10004586:	4643      	mov	r3, r8
10004588:	e7e4      	b.n	10004554 <_ZN12PicoRenderer8drawRectERK4Rect5Colorb+0x224>
1000458a:	2901      	cmp	r1, #1
1000458c:	dc86      	bgt.n	1000449c <_ZN12PicoRenderer8drawRectERK4Rect5Colorb+0x16c>
1000458e:	e7a6      	b.n	100044de <_ZN12PicoRenderer8drawRectERK4Rect5Colorb+0x1ae>
10004590:	2901      	cmp	r1, #1
10004592:	f829 e01b 	strh.w	lr, [r9, fp, lsl #1]
10004596:	dda2      	ble.n	100044de <_ZN12PicoRenderer8drawRectERK4Rect5Colorb+0x1ae>
10004598:	1e63      	subs	r3, r4, #1
1000459a:	eb03 0383 	add.w	r3, r3, r3, lsl #2
1000459e:	019b      	lsls	r3, r3, #6
100045a0:	9300      	str	r3, [sp, #0]
100045a2:	4613      	mov	r3, r2
100045a4:	e776      	b.n	10004494 <_ZN12PicoRenderer8drawRectERK4Rect5Colorb+0x164>
100045a6:	bf00      	nop
100045a8:	37800000 	.word	0x37800000
100045ac:	fffff800 	.word	0xfffff800

100045b0 <_ZN12PicoRenderer10drawSpriteEiRK4RectS2_b>:
100045b0:	e92d 4ff0 	stmdb	sp!, {r4, r5, r6, r7, r8, r9, sl, fp, lr}
100045b4:	2900      	cmp	r1, #0
100045b6:	b08b      	sub	sp, #44	@ 0x2c
100045b8:	f89d c050 	ldrb.w	ip, [sp, #80]	@ 0x50
100045bc:	f2c0 80d9 	blt.w	10004772 <_ZN12PicoRenderer10drawSpriteEiRK4RectS2_b+0x1c2>
100045c0:	f8d0 4148 	ldr.w	r4, [r0, #328]	@ 0x148
100045c4:	428c      	cmp	r4, r1
100045c6:	f340 80d4 	ble.w	10004772 <_ZN12PicoRenderer10drawSpriteEiRK4RectS2_b+0x1c2>
100045ca:	eb00 1601 	add.w	r6, r0, r1, lsl #4
100045ce:	68b5      	ldr	r5, [r6, #8]
100045d0:	2d00      	cmp	r5, #0
100045d2:	f000 80ce 	beq.w	10004772 <_ZN12PicoRenderer10drawSpriteEiRK4RectS2_b+0x1c2>
100045d6:	6971      	ldr	r1, [r6, #20]
100045d8:	f9b2 7002 	ldrsh.w	r7, [r2, #2]
100045dc:	2901      	cmp	r1, #1
100045de:	e9d6 4603 	ldrd	r4, r6, [r6, #12]
100045e2:	f340 80c9 	ble.w	10004778 <_ZN12PicoRenderer10drawSpriteEiRK4RectS2_b+0x1c8>
100045e6:	f101 0e03 	add.w	lr, r1, #3
100045ea:	ea4f 0eae 	mov.w	lr, lr, asr #2
100045ee:	fb06 fe0e 	mul.w	lr, r6, lr
100045f2:	ea4f 0984 	mov.w	r9, r4, lsl #2
100045f6:	2f00      	cmp	r7, #0
100045f8:	f2c0 80bb 	blt.w	10004772 <_ZN12PicoRenderer10drawSpriteEiRK4RectS2_b+0x1c2>
100045fc:	f9b2 8006 	ldrsh.w	r8, [r2, #6]
10004600:	f1b8 0f00 	cmp.w	r8, #0
10004604:	f2c0 80b5 	blt.w	10004772 <_ZN12PicoRenderer10drawSpriteEiRK4RectS2_b+0x1c2>
10004608:	45b9      	cmp	r9, r7
1000460a:	f340 80b2 	ble.w	10004772 <_ZN12PicoRenderer10drawSpriteEiRK4RectS2_b+0x1c2>
1000460e:	45c6      	cmp	lr, r8
10004610:	f340 80af 	ble.w	10004772 <_ZN12PicoRenderer10drawSpriteEiRK4RectS2_b+0x1c2>
10004614:	eba9 0a07 	sub.w	sl, r9, r7
10004618:	f9b2 900a 	ldrsh.w	r9, [r2, #10]
1000461c:	45d1      	cmp	r9, sl
1000461e:	bfa8      	it	ge
10004620:	46d1      	movge	r9, sl
10004622:	f1b9 0f00 	cmp.w	r9, #0
10004626:	f340 80a4 	ble.w	10004772 <_ZN12PicoRenderer10drawSpriteEiRK4RectS2_b+0x1c2>
1000462a:	f9b2 200e 	ldrsh.w	r2, [r2, #14]
1000462e:	ebae 0e08 	sub.w	lr, lr, r8
10004632:	4572      	cmp	r2, lr
10004634:	bfa8      	it	ge
10004636:	4672      	movge	r2, lr
10004638:	2a00      	cmp	r2, #0
1000463a:	9201      	str	r2, [sp, #4]
1000463c:	f340 8099 	ble.w	10004772 <_ZN12PicoRenderer10drawSpriteEiRK4RectS2_b+0x1c2>
10004640:	f9b3 2002 	ldrsh.w	r2, [r3, #2]
10004644:	f8b0 b162 	ldrh.w	fp, [r0, #354]	@ 0x162
10004648:	4593      	cmp	fp, r2
1000464a:	f340 8092 	ble.w	10004772 <_ZN12PicoRenderer10drawSpriteEiRK4RectS2_b+0x1c2>
1000464e:	f9b3 a006 	ldrsh.w	sl, [r3, #6]
10004652:	f8b0 3164 	ldrh.w	r3, [r0, #356]	@ 0x164
10004656:	4553      	cmp	r3, sl
10004658:	9303      	str	r3, [sp, #12]
1000465a:	f340 808a 	ble.w	10004772 <_ZN12PicoRenderer10drawSpriteEiRK4RectS2_b+0x1c2>
1000465e:	eb19 0302 	adds.w	r3, r9, r2
10004662:	9202      	str	r2, [sp, #8]
10004664:	f100 8085 	bmi.w	10004772 <_ZN12PicoRenderer10drawSpriteEiRK4RectS2_b+0x1c2>
10004668:	9a01      	ldr	r2, [sp, #4]
1000466a:	eb12 020a 	adds.w	r2, r2, sl
1000466e:	9206      	str	r2, [sp, #24]
10004670:	d47f      	bmi.n	10004772 <_ZN12PicoRenderer10drawSpriteEiRK4RectS2_b+0x1c2>
10004672:	9a02      	ldr	r2, [sp, #8]
10004674:	2a00      	cmp	r2, #0
10004676:	bfad      	iteet	ge
10004678:	2200      	movge	r2, #0
1000467a:	4252      	neglt	r2, r2
1000467c:	469e      	movlt	lr, r3
1000467e:	46ce      	movge	lr, r9
10004680:	f1ba 0f00 	cmp.w	sl, #0
10004684:	9204      	str	r2, [sp, #16]
10004686:	bfac      	ite	ge
10004688:	2200      	movge	r2, #0
1000468a:	f1ca 0200 	rsblt	r2, sl, #0
1000468e:	9207      	str	r2, [sp, #28]
10004690:	4672      	mov	r2, lr
10004692:	eba3 030b 	sub.w	r3, r3, fp
10004696:	ea23 73e3 	bic.w	r3, r3, r3, asr #31
1000469a:	454b      	cmp	r3, r9
1000469c:	bfd4      	ite	le
1000469e:	1ad2      	suble	r2, r2, r3
100046a0:	eba2 0209 	subgt.w	r2, r2, r9
100046a4:	2a00      	cmp	r2, #0
100046a6:	9205      	str	r2, [sp, #20]
100046a8:	dd63      	ble.n	10004772 <_ZN12PicoRenderer10drawSpriteEiRK4RectS2_b+0x1c2>
100046aa:	9a06      	ldr	r2, [sp, #24]
100046ac:	9b03      	ldr	r3, [sp, #12]
100046ae:	1ad3      	subs	r3, r2, r3
100046b0:	9a01      	ldr	r2, [sp, #4]
100046b2:	ea23 73e3 	bic.w	r3, r3, r3, asr #31
100046b6:	4293      	cmp	r3, r2
100046b8:	bfd8      	it	le
100046ba:	1ad2      	suble	r2, r2, r3
100046bc:	9b07      	ldr	r3, [sp, #28]
100046be:	bfc8      	it	gt
100046c0:	1a92      	subgt	r2, r2, r2
100046c2:	4293      	cmp	r3, r2
100046c4:	da55      	bge.n	10004772 <_ZN12PicoRenderer10drawSpriteEiRK4RectS2_b+0x1c2>
100046c6:	2901      	cmp	r1, #1
100046c8:	f340 80af 	ble.w	1000482a <_ZN12PicoRenderer10drawSpriteEiRK4RectS2_b+0x27a>
100046cc:	4453      	add	r3, sl
100046ce:	f1bc 0f00 	cmp.w	ip, #0
100046d2:	d154      	bne.n	1000477e <_ZN12PicoRenderer10drawSpriteEiRK4RectS2_b+0x1ce>
100046d4:	eb02 0c0a 	add.w	ip, r2, sl
100046d8:	9a02      	ldr	r2, [sp, #8]
100046da:	eba8 0a0a 	sub.w	sl, r8, sl
100046de:	1aba      	subs	r2, r7, r2
100046e0:	9201      	str	r2, [sp, #4]
100046e2:	4652      	mov	r2, sl
100046e4:	9f03      	ldr	r7, [sp, #12]
100046e6:	46e2      	mov	sl, ip
100046e8:	9506      	str	r5, [sp, #24]
100046ea:	4694      	mov	ip, r2
100046ec:	e002      	b.n	100046f4 <_ZN12PicoRenderer10drawSpriteEiRK4RectS2_b+0x144>
100046ee:	3301      	adds	r3, #1
100046f0:	4553      	cmp	r3, sl
100046f2:	d03e      	beq.n	10004772 <_ZN12PicoRenderer10drawSpriteEiRK4RectS2_b+0x1c2>
100046f4:	429f      	cmp	r7, r3
100046f6:	d9fa      	bls.n	100046ee <_ZN12PicoRenderer10drawSpriteEiRK4RectS2_b+0x13e>
100046f8:	9a04      	ldr	r2, [sp, #16]
100046fa:	9d02      	ldr	r5, [sp, #8]
100046fc:	e9cd 3a07 	strd	r3, sl, [sp, #28]
10004700:	1955      	adds	r5, r2, r5
10004702:	9a05      	ldr	r2, [sp, #20]
10004704:	eb03 0983 	add.w	r9, r3, r3, lsl #2
10004708:	ea4f 19c9 	mov.w	r9, r9, lsl #7
1000470c:	eb02 0805 	add.w	r8, r2, r5
10004710:	eb0c 0e03 	add.w	lr, ip, r3
10004714:	9703      	str	r7, [sp, #12]
10004716:	45ab      	cmp	fp, r5
10004718:	d924      	bls.n	10004764 <_ZN12PicoRenderer10drawSpriteEiRK4RectS2_b+0x1b4>
1000471a:	9b01      	ldr	r3, [sp, #4]
1000471c:	fb9e faf6 	sdiv	sl, lr, r6
10004720:	195f      	adds	r7, r3, r5
10004722:	fb97 f3f4 	sdiv	r3, r7, r4
10004726:	fb06 e21a 	mls	r2, r6, sl, lr
1000472a:	fb04 7713 	mls	r7, r4, r3, r7
1000472e:	eb03 038a 	add.w	r3, r3, sl, lsl #2
10004732:	ea23 73e3 	bic.w	r3, r3, r3, asr #31
10004736:	4299      	cmp	r1, r3
10004738:	bfd8      	it	le
1000473a:	f101 33ff 	addle.w	r3, r1, #4294967295
1000473e:	fb04 f303 	mul.w	r3, r4, r3
10004742:	fb04 f202 	mul.w	r2, r4, r2
10004746:	fb06 2203 	mla	r2, r6, r3, r2
1000474a:	9b06      	ldr	r3, [sp, #24]
1000474c:	443a      	add	r2, r7
1000474e:	f833 2012 	ldrh.w	r2, [r3, r2, lsl #1]
10004752:	f64f 031f 	movw	r3, #63519	@ 0xf81f
10004756:	429a      	cmp	r2, r3
10004758:	d004      	beq.n	10004764 <_ZN12PicoRenderer10drawSpriteEiRK4RectS2_b+0x1b4>
1000475a:	6843      	ldr	r3, [r0, #4]
1000475c:	eb03 0345 	add.w	r3, r3, r5, lsl #1
10004760:	f823 2009 	strh.w	r2, [r3, r9]
10004764:	3501      	adds	r5, #1
10004766:	4545      	cmp	r5, r8
10004768:	d1d5      	bne.n	10004716 <_ZN12PicoRenderer10drawSpriteEiRK4RectS2_b+0x166>
1000476a:	e9dd 3a07 	ldrd	r3, sl, [sp, #28]
1000476e:	9f03      	ldr	r7, [sp, #12]
10004770:	e7bd      	b.n	100046ee <_ZN12PicoRenderer10drawSpriteEiRK4RectS2_b+0x13e>
10004772:	b00b      	add	sp, #44	@ 0x2c
10004774:	e8bd 8ff0 	ldmia.w	sp!, {r4, r5, r6, r7, r8, r9, sl, fp, pc}
10004778:	46a1      	mov	r9, r4
1000477a:	46b6      	mov	lr, r6
1000477c:	e73b      	b.n	100045f6 <_ZN12PicoRenderer10drawSpriteEiRK4RectS2_b+0x46>
1000477e:	eb02 0c0a 	add.w	ip, r2, sl
10004782:	9a02      	ldr	r2, [sp, #8]
10004784:	9301      	str	r3, [sp, #4]
10004786:	1e53      	subs	r3, r2, #1
10004788:	443b      	add	r3, r7
1000478a:	eba8 0e0a 	sub.w	lr, r8, sl
1000478e:	eb03 0209 	add.w	r2, r3, r9
10004792:	46f2      	mov	sl, lr
10004794:	9f03      	ldr	r7, [sp, #12]
10004796:	f8dd e004 	ldr.w	lr, [sp, #4]
1000479a:	9206      	str	r2, [sp, #24]
1000479c:	e003      	b.n	100047a6 <_ZN12PicoRenderer10drawSpriteEiRK4RectS2_b+0x1f6>
1000479e:	f10e 0e01 	add.w	lr, lr, #1
100047a2:	45f4      	cmp	ip, lr
100047a4:	d0e5      	beq.n	10004772 <_ZN12PicoRenderer10drawSpriteEiRK4RectS2_b+0x1c2>
100047a6:	4577      	cmp	r7, lr
100047a8:	d9f9      	bls.n	1000479e <_ZN12PicoRenderer10drawSpriteEiRK4RectS2_b+0x1ee>
100047aa:	9b04      	ldr	r3, [sp, #16]
100047ac:	9a02      	ldr	r2, [sp, #8]
100047ae:	e9cd 7c07 	strd	r7, ip, [sp, #28]
100047b2:	189a      	adds	r2, r3, r2
100047b4:	eb0e 038e 	add.w	r3, lr, lr, lsl #2
100047b8:	01db      	lsls	r3, r3, #7
100047ba:	9303      	str	r3, [sp, #12]
100047bc:	9b05      	ldr	r3, [sp, #20]
100047be:	eb0a 080e 	add.w	r8, sl, lr
100047c2:	eb03 0902 	add.w	r9, r3, r2
100047c6:	f8cd e024 	str.w	lr, [sp, #36]	@ 0x24
100047ca:	9001      	str	r0, [sp, #4]
100047cc:	4593      	cmp	fp, r2
100047ce:	d923      	bls.n	10004818 <_ZN12PicoRenderer10drawSpriteEiRK4RectS2_b+0x268>
100047d0:	9b06      	ldr	r3, [sp, #24]
100047d2:	fb98 fcf6 	sdiv	ip, r8, r6
100047d6:	1a9f      	subs	r7, r3, r2
100047d8:	fb97 fef4 	sdiv	lr, r7, r4
100047dc:	eb0e 038c 	add.w	r3, lr, ip, lsl #2
100047e0:	ea23 73e3 	bic.w	r3, r3, r3, asr #31
100047e4:	4299      	cmp	r1, r3
100047e6:	dc00      	bgt.n	100047ea <_ZN12PicoRenderer10drawSpriteEiRK4RectS2_b+0x23a>
100047e8:	1e4b      	subs	r3, r1, #1
100047ea:	fb04 f303 	mul.w	r3, r4, r3
100047ee:	fb06 8c1c 	mls	ip, r6, ip, r8
100047f2:	fb06 f303 	mul.w	r3, r6, r3
100047f6:	fb04 771e 	mls	r7, r4, lr, r7
100047fa:	fb04 330c 	mla	r3, r4, ip, r3
100047fe:	443b      	add	r3, r7
10004800:	f835 7013 	ldrh.w	r7, [r5, r3, lsl #1]
10004804:	f64f 031f 	movw	r3, #63519	@ 0xf81f
10004808:	429f      	cmp	r7, r3
1000480a:	d005      	beq.n	10004818 <_ZN12PicoRenderer10drawSpriteEiRK4RectS2_b+0x268>
1000480c:	9b01      	ldr	r3, [sp, #4]
1000480e:	9803      	ldr	r0, [sp, #12]
10004810:	685b      	ldr	r3, [r3, #4]
10004812:	eb03 0342 	add.w	r3, r3, r2, lsl #1
10004816:	521f      	strh	r7, [r3, r0]
10004818:	3201      	adds	r2, #1
1000481a:	4591      	cmp	r9, r2
1000481c:	d1d6      	bne.n	100047cc <_ZN12PicoRenderer10drawSpriteEiRK4RectS2_b+0x21c>
1000481e:	e9dd 7c07 	ldrd	r7, ip, [sp, #28]
10004822:	f8dd e024 	ldr.w	lr, [sp, #36]	@ 0x24
10004826:	9801      	ldr	r0, [sp, #4]
10004828:	e7b9      	b.n	1000479e <_ZN12PicoRenderer10drawSpriteEiRK4RectS2_b+0x1ee>
1000482a:	2c01      	cmp	r4, #1
1000482c:	d143      	bne.n	100048b6 <_ZN12PicoRenderer10drawSpriteEiRK4RectS2_b+0x306>
1000482e:	9c02      	ldr	r4, [sp, #8]
10004830:	4619      	mov	r1, r3
10004832:	1e63      	subs	r3, r4, #1
10004834:	443b      	add	r3, r7
10004836:	4499      	add	r9, r3
10004838:	1b3b      	subs	r3, r7, r4
1000483a:	9306      	str	r3, [sp, #24]
1000483c:	4663      	mov	r3, ip
1000483e:	4451      	add	r1, sl
10004840:	4452      	add	r2, sl
10004842:	eb01 0681 	add.w	r6, r1, r1, lsl #2
10004846:	4694      	mov	ip, r2
10004848:	eba8 0a0a 	sub.w	sl, r8, sl
1000484c:	461a      	mov	r2, r3
1000484e:	f64f 081f 	movw	r8, #63519	@ 0xf81f
10004852:	f8dd e00c 	ldr.w	lr, [sp, #12]
10004856:	01b6      	lsls	r6, r6, #6
10004858:	e004      	b.n	10004864 <_ZN12PicoRenderer10drawSpriteEiRK4RectS2_b+0x2b4>
1000485a:	3101      	adds	r1, #1
1000485c:	4561      	cmp	r1, ip
1000485e:	f506 76a0 	add.w	r6, r6, #320	@ 0x140
10004862:	d086      	beq.n	10004772 <_ZN12PicoRenderer10drawSpriteEiRK4RectS2_b+0x1c2>
10004864:	458e      	cmp	lr, r1
10004866:	d9f8      	bls.n	1000485a <_ZN12PicoRenderer10drawSpriteEiRK4RectS2_b+0x2aa>
10004868:	9c02      	ldr	r4, [sp, #8]
1000486a:	9b04      	ldr	r3, [sp, #16]
1000486c:	f8cd e00c 	str.w	lr, [sp, #12]
10004870:	4423      	add	r3, r4
10004872:	9c05      	ldr	r4, [sp, #20]
10004874:	46e6      	mov	lr, ip
10004876:	18e7      	adds	r7, r4, r3
10004878:	9601      	str	r6, [sp, #4]
1000487a:	e010      	b.n	1000489e <_ZN12PicoRenderer10drawSpriteEiRK4RectS2_b+0x2ee>
1000487c:	eba9 0403 	sub.w	r4, r9, r3
10004880:	440c      	add	r4, r1
10004882:	4454      	add	r4, sl
10004884:	f835 4014 	ldrh.w	r4, [r5, r4, lsl #1]
10004888:	4544      	cmp	r4, r8
1000488a:	d005      	beq.n	10004898 <_ZN12PicoRenderer10drawSpriteEiRK4RectS2_b+0x2e8>
1000488c:	9e01      	ldr	r6, [sp, #4]
1000488e:	eb03 0c06 	add.w	ip, r3, r6
10004892:	6846      	ldr	r6, [r0, #4]
10004894:	f826 401c 	strh.w	r4, [r6, ip, lsl #1]
10004898:	3301      	adds	r3, #1
1000489a:	42bb      	cmp	r3, r7
1000489c:	d006      	beq.n	100048ac <_ZN12PicoRenderer10drawSpriteEiRK4RectS2_b+0x2fc>
1000489e:	459b      	cmp	fp, r3
100048a0:	d9fa      	bls.n	10004898 <_ZN12PicoRenderer10drawSpriteEiRK4RectS2_b+0x2e8>
100048a2:	2a00      	cmp	r2, #0
100048a4:	d1ea      	bne.n	1000487c <_ZN12PicoRenderer10drawSpriteEiRK4RectS2_b+0x2cc>
100048a6:	9c06      	ldr	r4, [sp, #24]
100048a8:	441c      	add	r4, r3
100048aa:	e7e9      	b.n	10004880 <_ZN12PicoRenderer10drawSpriteEiRK4RectS2_b+0x2d0>
100048ac:	46f4      	mov	ip, lr
100048ae:	9e01      	ldr	r6, [sp, #4]
100048b0:	f8dd e00c 	ldr.w	lr, [sp, #12]
100048b4:	e7d1      	b.n	1000485a <_ZN12PicoRenderer10drawSpriteEiRK4RectS2_b+0x2aa>
100048b6:	9b07      	ldr	r3, [sp, #28]
100048b8:	9902      	ldr	r1, [sp, #8]
100048ba:	4498      	add	r8, r3
100048bc:	4453      	add	r3, sl
100048be:	4492      	add	sl, r2
100048c0:	1e4a      	subs	r2, r1, #1
100048c2:	443a      	add	r2, r7
100048c4:	4491      	add	r9, r2
100048c6:	1a7a      	subs	r2, r7, r1
100048c8:	9206      	str	r2, [sp, #24]
100048ca:	4662      	mov	r2, ip
100048cc:	fb04 fe08 	mul.w	lr, r4, r8
100048d0:	4684      	mov	ip, r0
100048d2:	f64f 081f 	movw	r8, #63519	@ 0xf81f
100048d6:	4610      	mov	r0, r2
100048d8:	e004      	b.n	100048e4 <_ZN12PicoRenderer10drawSpriteEiRK4RectS2_b+0x334>
100048da:	3301      	adds	r3, #1
100048dc:	4553      	cmp	r3, sl
100048de:	44a6      	add	lr, r4
100048e0:	f43f af47 	beq.w	10004772 <_ZN12PicoRenderer10drawSpriteEiRK4RectS2_b+0x1c2>
100048e4:	9a03      	ldr	r2, [sp, #12]
100048e6:	429a      	cmp	r2, r3
100048e8:	d9f7      	bls.n	100048da <_ZN12PicoRenderer10drawSpriteEiRK4RectS2_b+0x32a>
100048ea:	9902      	ldr	r1, [sp, #8]
100048ec:	9a04      	ldr	r2, [sp, #16]
100048ee:	eb03 0683 	add.w	r6, r3, r3, lsl #2
100048f2:	440a      	add	r2, r1
100048f4:	01f1      	lsls	r1, r6, #7
100048f6:	9101      	str	r1, [sp, #4]
100048f8:	9905      	ldr	r1, [sp, #20]
100048fa:	9307      	str	r3, [sp, #28]
100048fc:	188f      	adds	r7, r1, r2
100048fe:	e00f      	b.n	10004920 <_ZN12PicoRenderer10drawSpriteEiRK4RectS2_b+0x370>
10004900:	eba9 0102 	sub.w	r1, r9, r2
10004904:	4471      	add	r1, lr
10004906:	f835 6011 	ldrh.w	r6, [r5, r1, lsl #1]
1000490a:	4546      	cmp	r6, r8
1000490c:	d005      	beq.n	1000491a <_ZN12PicoRenderer10drawSpriteEiRK4RectS2_b+0x36a>
1000490e:	f8dc 1004 	ldr.w	r1, [ip, #4]
10004912:	9b01      	ldr	r3, [sp, #4]
10004914:	eb01 0142 	add.w	r1, r1, r2, lsl #1
10004918:	52ce      	strh	r6, [r1, r3]
1000491a:	3201      	adds	r2, #1
1000491c:	42ba      	cmp	r2, r7
1000491e:	d006      	beq.n	1000492e <_ZN12PicoRenderer10drawSpriteEiRK4RectS2_b+0x37e>
10004920:	4593      	cmp	fp, r2
10004922:	d9fa      	bls.n	1000491a <_ZN12PicoRenderer10drawSpriteEiRK4RectS2_b+0x36a>
10004924:	2800      	cmp	r0, #0
10004926:	d1eb      	bne.n	10004900 <_ZN12PicoRenderer10drawSpriteEiRK4RectS2_b+0x350>
10004928:	9b06      	ldr	r3, [sp, #24]
1000492a:	1899      	adds	r1, r3, r2
1000492c:	e7ea      	b.n	10004904 <_ZN12PicoRenderer10drawSpriteEiRK4RectS2_b+0x354>
1000492e:	9b07      	ldr	r3, [sp, #28]
10004930:	e7d3      	b.n	100048da <_ZN12PicoRenderer10drawSpriteEiRK4RectS2_b+0x32a>
10004932:	bf00      	nop

10004934 <_ZN12PicoRenderer8endFrameEv>:
10004934:	21f0      	movs	r1, #240	@ 0xf0
10004936:	2200      	movs	r2, #0
10004938:	b510      	push	{r4, lr}
1000493a:	b082      	sub	sp, #8
1000493c:	9100      	str	r1, [sp, #0]
1000493e:	6844      	ldr	r4, [r0, #4]
10004940:	f44f 73a0 	mov.w	r3, #320	@ 0x140
10004944:	4611      	mov	r1, r2
10004946:	9401      	str	r4, [sp, #4]
10004948:	f500 70a6 	add.w	r0, r0, #332	@ 0x14c
1000494c:	f006 ff0a 	bl	1000b764 <_ZN6st77896ST778912drawImageDMAEssssPKt>
10004950:	b002      	add	sp, #8
10004952:	bd10      	pop	{r4, pc}

10004954 <_ZN12PicoRenderer11loadTextureEPKc>:
10004954:	b510      	push	{r4, lr}
10004956:	780b      	ldrb	r3, [r1, #0]
10004958:	460c      	mov	r4, r1
1000495a:	b173      	cbz	r3, 1000497a <_ZN12PicoRenderer11loadTextureEPKc+0x26>
1000495c:	1c4a      	adds	r2, r1, #1
1000495e:	e005      	b.n	1000496c <_ZN12PicoRenderer11loadTextureEPKc+0x18>
10004960:	2b5c      	cmp	r3, #92	@ 0x5c
10004962:	bf08      	it	eq
10004964:	4614      	moveq	r4, r2
10004966:	f812 3b01 	ldrb.w	r3, [r2], #1
1000496a:	b133      	cbz	r3, 1000497a <_ZN12PicoRenderer11loadTextureEPKc+0x26>
1000496c:	2b2f      	cmp	r3, #47	@ 0x2f
1000496e:	d1f7      	bne.n	10004960 <_ZN12PicoRenderer11loadTextureEPKc+0xc>
10004970:	4614      	mov	r4, r2
10004972:	f812 3b01 	ldrb.w	r3, [r2], #1
10004976:	2b00      	cmp	r3, #0
10004978:	d1f8      	bne.n	1000496c <_ZN12PicoRenderer11loadTextureEPKc+0x18>
1000497a:	4620      	mov	r0, r4
1000497c:	4940      	ldr	r1, [pc, #256]	@ (10004a80 <_ZN12PicoRenderer11loadTextureEPKc+0x12c>)
1000497e:	f008 fa67 	bl	1000ce50 <strcmp>
10004982:	2800      	cmp	r0, #0
10004984:	d05c      	beq.n	10004a40 <_ZN12PicoRenderer11loadTextureEPKc+0xec>
10004986:	4620      	mov	r0, r4
10004988:	493e      	ldr	r1, [pc, #248]	@ (10004a84 <_ZN12PicoRenderer11loadTextureEPKc+0x130>)
1000498a:	f008 fa61 	bl	1000ce50 <strcmp>
1000498e:	2800      	cmp	r0, #0
10004990:	d057      	beq.n	10004a42 <_ZN12PicoRenderer11loadTextureEPKc+0xee>
10004992:	4620      	mov	r0, r4
10004994:	493c      	ldr	r1, [pc, #240]	@ (10004a88 <_ZN12PicoRenderer11loadTextureEPKc+0x134>)
10004996:	f008 fa5b 	bl	1000ce50 <strcmp>
1000499a:	2800      	cmp	r0, #0
1000499c:	d053      	beq.n	10004a46 <_ZN12PicoRenderer11loadTextureEPKc+0xf2>
1000499e:	4620      	mov	r0, r4
100049a0:	493a      	ldr	r1, [pc, #232]	@ (10004a8c <_ZN12PicoRenderer11loadTextureEPKc+0x138>)
100049a2:	f008 fa55 	bl	1000ce50 <strcmp>
100049a6:	2800      	cmp	r0, #0
100049a8:	d04f      	beq.n	10004a4a <_ZN12PicoRenderer11loadTextureEPKc+0xf6>
100049aa:	4620      	mov	r0, r4
100049ac:	4938      	ldr	r1, [pc, #224]	@ (10004a90 <_ZN12PicoRenderer11loadTextureEPKc+0x13c>)
100049ae:	f008 fa4f 	bl	1000ce50 <strcmp>
100049b2:	2800      	cmp	r0, #0
100049b4:	d04b      	beq.n	10004a4e <_ZN12PicoRenderer11loadTextureEPKc+0xfa>
100049b6:	4620      	mov	r0, r4
100049b8:	4936      	ldr	r1, [pc, #216]	@ (10004a94 <_ZN12PicoRenderer11loadTextureEPKc+0x140>)
100049ba:	f008 fa49 	bl	1000ce50 <strcmp>
100049be:	2800      	cmp	r0, #0
100049c0:	d047      	beq.n	10004a52 <_ZN12PicoRenderer11loadTextureEPKc+0xfe>
100049c2:	4620      	mov	r0, r4
100049c4:	4934      	ldr	r1, [pc, #208]	@ (10004a98 <_ZN12PicoRenderer11loadTextureEPKc+0x144>)
100049c6:	f008 fa43 	bl	1000ce50 <strcmp>
100049ca:	2800      	cmp	r0, #0
100049cc:	d045      	beq.n	10004a5a <_ZN12PicoRenderer11loadTextureEPKc+0x106>
100049ce:	4620      	mov	r0, r4
100049d0:	4932      	ldr	r1, [pc, #200]	@ (10004a9c <_ZN12PicoRenderer11loadTextureEPKc+0x148>)
100049d2:	f008 fa3d 	bl	1000ce50 <strcmp>
100049d6:	2800      	cmp	r0, #0
100049d8:	d041      	beq.n	10004a5e <_ZN12PicoRenderer11loadTextureEPKc+0x10a>
100049da:	4620      	mov	r0, r4
100049dc:	4930      	ldr	r1, [pc, #192]	@ (10004aa0 <_ZN12PicoRenderer11loadTextureEPKc+0x14c>)
100049de:	f008 fa37 	bl	1000ce50 <strcmp>
100049e2:	2800      	cmp	r0, #0
100049e4:	d03d      	beq.n	10004a62 <_ZN12PicoRenderer11loadTextureEPKc+0x10e>
100049e6:	4620      	mov	r0, r4
100049e8:	492e      	ldr	r1, [pc, #184]	@ (10004aa4 <_ZN12PicoRenderer11loadTextureEPKc+0x150>)
100049ea:	f008 fa31 	bl	1000ce50 <strcmp>
100049ee:	2800      	cmp	r0, #0
100049f0:	d039      	beq.n	10004a66 <_ZN12PicoRenderer11loadTextureEPKc+0x112>
100049f2:	4620      	mov	r0, r4
100049f4:	492c      	ldr	r1, [pc, #176]	@ (10004aa8 <_ZN12PicoRenderer11loadTextureEPKc+0x154>)
100049f6:	f008 fa2b 	bl	1000ce50 <strcmp>
100049fa:	b360      	cbz	r0, 10004a56 <_ZN12PicoRenderer11loadTextureEPKc+0x102>
100049fc:	4620      	mov	r0, r4
100049fe:	492b      	ldr	r1, [pc, #172]	@ (10004aac <_ZN12PicoRenderer11loadTextureEPKc+0x158>)
10004a00:	f008 fa26 	bl	1000ce50 <strcmp>
10004a04:	b388      	cbz	r0, 10004a6a <_ZN12PicoRenderer11loadTextureEPKc+0x116>
10004a06:	4620      	mov	r0, r4
10004a08:	4929      	ldr	r1, [pc, #164]	@ (10004ab0 <_ZN12PicoRenderer11loadTextureEPKc+0x15c>)
10004a0a:	f008 fa21 	bl	1000ce50 <strcmp>
10004a0e:	b370      	cbz	r0, 10004a6e <_ZN12PicoRenderer11loadTextureEPKc+0x11a>
10004a10:	4620      	mov	r0, r4
10004a12:	4928      	ldr	r1, [pc, #160]	@ (10004ab4 <_ZN12PicoRenderer11loadTextureEPKc+0x160>)
10004a14:	f008 fa1c 	bl	1000ce50 <strcmp>
10004a18:	b358      	cbz	r0, 10004a72 <_ZN12PicoRenderer11loadTextureEPKc+0x11e>
10004a1a:	4620      	mov	r0, r4
10004a1c:	4926      	ldr	r1, [pc, #152]	@ (10004ab8 <_ZN12PicoRenderer11loadTextureEPKc+0x164>)
10004a1e:	f008 fa17 	bl	1000ce50 <strcmp>
10004a22:	b340      	cbz	r0, 10004a76 <_ZN12PicoRenderer11loadTextureEPKc+0x122>
10004a24:	4620      	mov	r0, r4
10004a26:	4925      	ldr	r1, [pc, #148]	@ (10004abc <_ZN12PicoRenderer11loadTextureEPKc+0x168>)
10004a28:	f008 fa12 	bl	1000ce50 <strcmp>
10004a2c:	b328      	cbz	r0, 10004a7a <_ZN12PicoRenderer11loadTextureEPKc+0x126>
10004a2e:	4620      	mov	r0, r4
10004a30:	4923      	ldr	r1, [pc, #140]	@ (10004ac0 <_ZN12PicoRenderer11loadTextureEPKc+0x16c>)
10004a32:	f008 fa0d 	bl	1000ce50 <strcmp>
10004a36:	2800      	cmp	r0, #0
10004a38:	bf0c      	ite	eq
10004a3a:	2010      	moveq	r0, #16
10004a3c:	f04f 30ff 	movne.w	r0, #4294967295
10004a40:	bd10      	pop	{r4, pc}
10004a42:	2001      	movs	r0, #1
10004a44:	bd10      	pop	{r4, pc}
10004a46:	2002      	movs	r0, #2
10004a48:	bd10      	pop	{r4, pc}
10004a4a:	2003      	movs	r0, #3
10004a4c:	bd10      	pop	{r4, pc}
10004a4e:	2004      	movs	r0, #4
10004a50:	bd10      	pop	{r4, pc}
10004a52:	2005      	movs	r0, #5
10004a54:	bd10      	pop	{r4, pc}
10004a56:	200a      	movs	r0, #10
10004a58:	bd10      	pop	{r4, pc}
10004a5a:	2006      	movs	r0, #6
10004a5c:	bd10      	pop	{r4, pc}
10004a5e:	2007      	movs	r0, #7
10004a60:	bd10      	pop	{r4, pc}
10004a62:	2008      	movs	r0, #8
10004a64:	bd10      	pop	{r4, pc}
10004a66:	2009      	movs	r0, #9
10004a68:	bd10      	pop	{r4, pc}
10004a6a:	200b      	movs	r0, #11
10004a6c:	bd10      	pop	{r4, pc}
10004a6e:	200c      	movs	r0, #12
10004a70:	bd10      	pop	{r4, pc}
10004a72:	200d      	movs	r0, #13
10004a74:	bd10      	pop	{r4, pc}
10004a76:	200e      	movs	r0, #14
10004a78:	bd10      	pop	{r4, pc}
10004a7a:	200f      	movs	r0, #15
10004a7c:	bd10      	pop	{r4, pc}
10004a7e:	bf00      	nop
10004a80:	1000d830 	.word	0x1000d830
10004a84:	1000d844 	.word	0x1000d844
10004a88:	1000d858 	.word	0x1000d858
10004a8c:	1000d86c 	.word	0x1000d86c
10004a90:	1000d888 	.word	0x1000d888
10004a94:	1000d894 	.word	0x1000d894
10004a98:	1000d8a4 	.word	0x1000d8a4
10004a9c:	1000d8bc 	.word	0x1000d8bc
10004aa0:	1000d8d4 	.word	0x1000d8d4
10004aa4:	1000d8e0 	.word	0x1000d8e0
10004aa8:	1000d8f0 	.word	0x1000d8f0
10004aac:	1000d908 	.word	0x1000d908
10004ab0:	1000d91c 	.word	0x1000d91c
10004ab4:	1000d930 	.word	0x1000d930
10004ab8:	1000d944 	.word	0x1000d944
10004abc:	1000d954 	.word	0x1000d954
10004ac0:	1000d968 	.word	0x1000d968

10004ac4 <_ZN12PicoRenderer10beginFrameEv>:
10004ac4:	6802      	ldr	r2, [r0, #0]
10004ac6:	4909      	ldr	r1, [pc, #36]	@ (10004aec <_ZN12PicoRenderer10beginFrameEv+0x28>)
10004ac8:	6912      	ldr	r2, [r2, #16]
10004aca:	b082      	sub	sp, #8
10004acc:	428a      	cmp	r2, r1
10004ace:	d109      	bne.n	10004ae4 <_ZN12PicoRenderer10beginFrameEv+0x20>
10004ad0:	6843      	ldr	r3, [r0, #4]
10004ad2:	4907      	ldr	r1, [pc, #28]	@ (10004af0 <_ZN12PicoRenderer10beginFrameEv+0x2c>)
10004ad4:	f503 3216 	add.w	r2, r3, #153600	@ 0x25800
10004ad8:	f843 1b04 	str.w	r1, [r3], #4
10004adc:	4293      	cmp	r3, r2
10004ade:	d1fb      	bne.n	10004ad8 <_ZN12PicoRenderer10beginFrameEv+0x14>
10004ae0:	b002      	add	sp, #8
10004ae2:	4770      	bx	lr
10004ae4:	4903      	ldr	r1, [pc, #12]	@ (10004af4 <_ZN12PicoRenderer10beginFrameEv+0x30>)
10004ae6:	b002      	add	sp, #8
10004ae8:	4710      	bx	r2
10004aea:	bf00      	nop
10004aec:	100042f5 	.word	0x100042f5
10004af0:	867d867d 	.word	0x867d867d
10004af4:	ffebce87 	.word	0xffebce87

10004af8 <_ZN12PicoRendererC1Ev>:
10004af8:	b5f0      	push	{r4, r5, r6, r7, lr}
10004afa:	4604      	mov	r4, r0
10004afc:	2500      	movs	r5, #0
10004afe:	4bb8      	ldr	r3, [pc, #736]	@ (10004de0 <_ZN12PicoRendererC1Ev+0x2e8>)
10004b00:	f500 76a6 	add.w	r6, r0, #332	@ 0x14c
10004b04:	b08d      	sub	sp, #52	@ 0x34
10004b06:	4630      	mov	r0, r6
10004b08:	e9c4 3500 	strd	r3, r5, [r4]
10004b0c:	f8c4 5148 	str.w	r5, [r4, #328]	@ 0x148
10004b10:	f006 fd54 	bl	1000b5bc <_ZN6st77896ST7789C1Ev>
10004b14:	230d      	movs	r3, #13
10004b16:	f44f 72a0 	mov.w	r2, #320	@ 0x140
10004b1a:	f8c4 31a0 	str.w	r3, [r4, #416]	@ 0x1a0
10004b1e:	f44f 5380 	mov.w	r3, #4096	@ 0x1000
10004b22:	2701      	movs	r7, #1
10004b24:	9205      	str	r2, [sp, #20]
10004b26:	4aaf      	ldr	r2, [pc, #700]	@ (10004de4 <_ZN12PicoRendererC1Ev+0x2ec>)
10004b28:	49af      	ldr	r1, [pc, #700]	@ (10004de8 <_ZN12PicoRendererC1Ev+0x2f0>)
10004b2a:	9202      	str	r2, [sp, #8]
10004b2c:	930b      	str	r3, [sp, #44]	@ 0x2c
10004b2e:	4aaf      	ldr	r2, [pc, #700]	@ (10004dec <_ZN12PicoRendererC1Ev+0x2f4>)
10004b30:	4baf      	ldr	r3, [pc, #700]	@ (10004df0 <_ZN12PicoRendererC1Ev+0x2f8>)
10004b32:	9101      	str	r1, [sp, #4]
10004b34:	4630      	mov	r0, r6
10004b36:	a901      	add	r1, sp, #4
10004b38:	e9cd 2303 	strd	r2, r3, [sp, #12]
10004b3c:	e9cd 5506 	strd	r5, r5, [sp, #24]
10004b40:	e9cd 5509 	strd	r5, r5, [sp, #36]	@ 0x24
10004b44:	9708      	str	r7, [sp, #32]
10004b46:	f006 ff97 	bl	1000ba78 <_ZN6st77896ST77895beginERKNS_6ConfigE>
10004b4a:	4639      	mov	r1, r7
10004b4c:	4630      	mov	r0, r6
10004b4e:	f006 fdb5 	bl	1000b6bc <_ZN6st77896ST778911setRotationENS_8RotationE>
10004b52:	f44f 3016 	mov.w	r0, #153600	@ 0x25800
10004b56:	f002 fa91 	bl	1000707c <_Znaj>
10004b5a:	4603      	mov	r3, r0
10004b5c:	49a5      	ldr	r1, [pc, #660]	@ (10004df4 <_ZN12PicoRendererC1Ev+0x2fc>)
10004b5e:	6060      	str	r0, [r4, #4]
10004b60:	f500 3216 	add.w	r2, r0, #153600	@ 0x25800
10004b64:	f843 1b04 	str.w	r1, [r3], #4
10004b68:	429a      	cmp	r2, r3
10004b6a:	d1fb      	bne.n	10004b64 <_ZN12PicoRendererC1Ev+0x6c>
10004b6c:	2500      	movs	r5, #0
10004b6e:	f64f 76ff 	movw	r6, #65535	@ 0xffff
10004b72:	f04f 0c10 	mov.w	ip, #16
10004b76:	2701      	movs	r7, #1
10004b78:	f8d4 01a0 	ldr.w	r0, [r4, #416]	@ 0x1a0
10004b7c:	2104      	movs	r1, #4
10004b7e:	0843      	lsrs	r3, r0, #1
10004b80:	281f      	cmp	r0, #31
10004b82:	bf8a      	itet	hi
10004b84:	f003 0303 	andhi.w	r3, r3, #3
10004b88:	f003 0307 	andls.w	r3, r3, #7
10004b8c:	3308      	addhi	r3, #8
10004b8e:	eb03 0383 	add.w	r3, r3, r3, lsl #2
10004b92:	009b      	lsls	r3, r3, #2
10004b94:	f103 4280 	add.w	r2, r3, #1073741824	@ 0x40000000
10004b98:	f502 2228 	add.w	r2, r2, #688128	@ 0xa8000
10004b9c:	6116      	str	r6, [r2, #16]
10004b9e:	6015      	str	r5, [r2, #0]
10004ba0:	6095      	str	r5, [r2, #8]
10004ba2:	60d5      	str	r5, [r2, #12]
10004ba4:	6116      	str	r6, [r2, #16]
10004ba6:	f8c2 c004 	str.w	ip, [r2, #4]
10004baa:	6017      	str	r7, [r2, #0]
10004bac:	f000 fdb8 	bl	10005720 <gpio_set_function>
10004bb0:	200c      	movs	r0, #12
10004bb2:	2110      	movs	r1, #16
10004bb4:	f8d4 21a0 	ldr.w	r2, [r4, #416]	@ 0x1a0
10004bb8:	e9c4 1004 	strd	r1, r0, [r4, #16]
10004bbc:	fa22 f307 	lsr.w	r3, r2, r7
10004bc0:	2a1f      	cmp	r2, #31
10004bc2:	bf8a      	itet	hi
10004bc4:	f003 0303 	andhi.w	r3, r3, #3
10004bc8:	f003 0307 	andls.w	r3, r3, #7
10004bcc:	3308      	addhi	r3, #8
10004bce:	eb03 0383 	add.w	r3, r3, r3, lsl #2
10004bd2:	009b      	lsls	r3, r3, #2
10004bd4:	f103 4380 	add.w	r3, r3, #1073741824	@ 0x40000000
10004bd8:	4403      	add	r3, r0
10004bda:	f503 2528 	add.w	r5, r3, #688128	@ 0xa8000
10004bde:	f342 0200 	sbfx	r2, r2, #0, #1
10004be2:	682d      	ldr	r5, [r5, #0]
10004be4:	f482 427f 	eor.w	r2, r2, #65280	@ 0xff00
10004be8:	f082 02ff 	eor.w	r2, r2, #255	@ 0xff
10004bec:	ea22 0205 	bic.w	r2, r2, r5
10004bf0:	f503 2329 	add.w	r3, r3, #692224	@ 0xa9000
10004bf4:	601a      	str	r2, [r3, #0]
10004bf6:	f8d4 3148 	ldr.w	r3, [r4, #328]	@ 0x148
10004bfa:	4a7f      	ldr	r2, [pc, #508]	@ (10004df8 <_ZN12PicoRendererC1Ev+0x300>)
10004bfc:	2b00      	cmp	r3, #0
10004bfe:	e9c4 2102 	strd	r2, r1, [r4, #8]
10004c02:	dc73      	bgt.n	10004cec <_ZN12PicoRendererC1Ev+0x1f4>
10004c04:	2308      	movs	r3, #8
10004c06:	4a7d      	ldr	r2, [pc, #500]	@ (10004dfc <_ZN12PicoRendererC1Ev+0x304>)
10004c08:	6260      	str	r0, [r4, #36]	@ 0x24
10004c0a:	e9c4 2306 	strd	r2, r3, [r4, #24]
10004c0e:	6223      	str	r3, [r4, #32]
10004c10:	2308      	movs	r3, #8
10004c12:	220c      	movs	r2, #12
10004c14:	497a      	ldr	r1, [pc, #488]	@ (10004e00 <_ZN12PicoRendererC1Ev+0x308>)
10004c16:	e9c4 320c 	strd	r3, r2, [r4, #48]	@ 0x30
10004c1a:	e9c4 130a 	strd	r1, r3, [r4, #40]	@ 0x28
10004c1e:	2310      	movs	r3, #16
10004c20:	4a78      	ldr	r2, [pc, #480]	@ (10004e04 <_ZN12PicoRendererC1Ev+0x30c>)
10004c22:	e9c4 3310 	strd	r3, r3, [r4, #64]	@ 0x40
10004c26:	e9c4 230e 	strd	r2, r3, [r4, #56]	@ 0x38
10004c2a:	2310      	movs	r3, #16
10004c2c:	220c      	movs	r2, #12
10004c2e:	4976      	ldr	r1, [pc, #472]	@ (10004e08 <_ZN12PicoRendererC1Ev+0x310>)
10004c30:	e9c4 3214 	strd	r3, r2, [r4, #80]	@ 0x50
10004c34:	e9c4 1312 	strd	r1, r3, [r4, #72]	@ 0x48
10004c38:	2310      	movs	r3, #16
10004c3a:	220c      	movs	r2, #12
10004c3c:	4973      	ldr	r1, [pc, #460]	@ (10004e0c <_ZN12PicoRendererC1Ev+0x314>)
10004c3e:	e9c4 3218 	strd	r3, r2, [r4, #96]	@ 0x60
10004c42:	e9c4 1316 	strd	r1, r3, [r4, #88]	@ 0x58
10004c46:	2310      	movs	r3, #16
10004c48:	220c      	movs	r2, #12
10004c4a:	4971      	ldr	r1, [pc, #452]	@ (10004e10 <_ZN12PicoRendererC1Ev+0x318>)
10004c4c:	e9c4 321c 	strd	r3, r2, [r4, #112]	@ 0x70
10004c50:	e9c4 131a 	strd	r1, r3, [r4, #104]	@ 0x68
10004c54:	2310      	movs	r3, #16
10004c56:	220c      	movs	r2, #12
10004c58:	496e      	ldr	r1, [pc, #440]	@ (10004e14 <_ZN12PicoRendererC1Ev+0x31c>)
10004c5a:	e9c4 3220 	strd	r3, r2, [r4, #128]	@ 0x80
10004c5e:	e9c4 131e 	strd	r1, r3, [r4, #120]	@ 0x78
10004c62:	2310      	movs	r3, #16
10004c64:	220c      	movs	r2, #12
10004c66:	496c      	ldr	r1, [pc, #432]	@ (10004e18 <_ZN12PicoRendererC1Ev+0x320>)
10004c68:	e9c4 3224 	strd	r3, r2, [r4, #144]	@ 0x90
10004c6c:	e9c4 1322 	strd	r1, r3, [r4, #136]	@ 0x88
10004c70:	2310      	movs	r3, #16
10004c72:	220c      	movs	r2, #12
10004c74:	4969      	ldr	r1, [pc, #420]	@ (10004e1c <_ZN12PicoRendererC1Ev+0x324>)
10004c76:	e9c4 3228 	strd	r3, r2, [r4, #160]	@ 0xa0
10004c7a:	e9c4 1326 	strd	r1, r3, [r4, #152]	@ 0x98
10004c7e:	2320      	movs	r3, #32
10004c80:	220c      	movs	r2, #12
10004c82:	4967      	ldr	r1, [pc, #412]	@ (10004e20 <_ZN12PicoRendererC1Ev+0x328>)
10004c84:	e9c4 322c 	strd	r3, r2, [r4, #176]	@ 0xb0
10004c88:	e9c4 132a 	strd	r1, r3, [r4, #168]	@ 0xa8
10004c8c:	2310      	movs	r3, #16
10004c8e:	2201      	movs	r2, #1
10004c90:	4964      	ldr	r1, [pc, #400]	@ (10004e24 <_ZN12PicoRendererC1Ev+0x32c>)
10004c92:	e9c4 3230 	strd	r3, r2, [r4, #192]	@ 0xc0
10004c96:	e9c4 132e 	strd	r1, r3, [r4, #184]	@ 0xb8
10004c9a:	2310      	movs	r3, #16
10004c9c:	2201      	movs	r2, #1
10004c9e:	4962      	ldr	r1, [pc, #392]	@ (10004e28 <_ZN12PicoRendererC1Ev+0x330>)
10004ca0:	e9c4 3234 	strd	r3, r2, [r4, #208]	@ 0xd0
10004ca4:	e9c4 1332 	strd	r1, r3, [r4, #200]	@ 0xc8
10004ca8:	2310      	movs	r3, #16
10004caa:	2201      	movs	r2, #1
10004cac:	495f      	ldr	r1, [pc, #380]	@ (10004e2c <_ZN12PicoRendererC1Ev+0x334>)
10004cae:	e9c4 3238 	strd	r3, r2, [r4, #224]	@ 0xe0
10004cb2:	e9c4 1336 	strd	r1, r3, [r4, #216]	@ 0xd8
10004cb6:	2310      	movs	r3, #16
10004cb8:	2201      	movs	r2, #1
10004cba:	495d      	ldr	r1, [pc, #372]	@ (10004e30 <_ZN12PicoRendererC1Ev+0x338>)
10004cbc:	e9c4 323c 	strd	r3, r2, [r4, #240]	@ 0xf0
10004cc0:	e9c4 133a 	strd	r1, r3, [r4, #232]	@ 0xe8
10004cc4:	2310      	movs	r3, #16
10004cc6:	2201      	movs	r2, #1
10004cc8:	495a      	ldr	r1, [pc, #360]	@ (10004e34 <_ZN12PicoRendererC1Ev+0x33c>)
10004cca:	e9c4 3240 	strd	r3, r2, [r4, #256]	@ 0x100
10004cce:	e9c4 133e 	strd	r1, r3, [r4, #248]	@ 0xf8
10004cd2:	2310      	movs	r3, #16
10004cd4:	2201      	movs	r2, #1
10004cd6:	4958      	ldr	r1, [pc, #352]	@ (10004e38 <_ZN12PicoRendererC1Ev+0x340>)
10004cd8:	e9c4 3244 	strd	r3, r2, [r4, #272]	@ 0x110
10004cdc:	e9c4 1342 	strd	r1, r3, [r4, #264]	@ 0x108
10004ce0:	2311      	movs	r3, #17
10004ce2:	4620      	mov	r0, r4
10004ce4:	f8c4 3148 	str.w	r3, [r4, #328]	@ 0x148
10004ce8:	b00d      	add	sp, #52	@ 0x34
10004cea:	bdf0      	pop	{r4, r5, r6, r7, pc}
10004cec:	4a43      	ldr	r2, [pc, #268]	@ (10004dfc <_ZN12PicoRendererC1Ev+0x304>)
10004cee:	2b01      	cmp	r3, #1
10004cf0:	61a2      	str	r2, [r4, #24]
10004cf2:	f04f 0208 	mov.w	r2, #8
10004cf6:	6260      	str	r0, [r4, #36]	@ 0x24
10004cf8:	e9c4 2207 	strd	r2, r2, [r4, #28]
10004cfc:	d088      	beq.n	10004c10 <_ZN12PicoRendererC1Ev+0x118>
10004cfe:	e9c4 220b 	strd	r2, r2, [r4, #44]	@ 0x2c
10004d02:	4a3f      	ldr	r2, [pc, #252]	@ (10004e00 <_ZN12PicoRendererC1Ev+0x308>)
10004d04:	2b02      	cmp	r3, #2
10004d06:	6360      	str	r0, [r4, #52]	@ 0x34
10004d08:	62a2      	str	r2, [r4, #40]	@ 0x28
10004d0a:	d088      	beq.n	10004c1e <_ZN12PicoRendererC1Ev+0x126>
10004d0c:	4a3d      	ldr	r2, [pc, #244]	@ (10004e04 <_ZN12PicoRendererC1Ev+0x30c>)
10004d0e:	2b03      	cmp	r3, #3
10004d10:	e9c4 210e 	strd	r2, r1, [r4, #56]	@ 0x38
10004d14:	e9c4 1110 	strd	r1, r1, [r4, #64]	@ 0x40
10004d18:	d087      	beq.n	10004c2a <_ZN12PicoRendererC1Ev+0x132>
10004d1a:	4a3b      	ldr	r2, [pc, #236]	@ (10004e08 <_ZN12PicoRendererC1Ev+0x310>)
10004d1c:	2b04      	cmp	r3, #4
10004d1e:	e9c4 2112 	strd	r2, r1, [r4, #72]	@ 0x48
10004d22:	e9c4 1014 	strd	r1, r0, [r4, #80]	@ 0x50
10004d26:	d087      	beq.n	10004c38 <_ZN12PicoRendererC1Ev+0x140>
10004d28:	4a38      	ldr	r2, [pc, #224]	@ (10004e0c <_ZN12PicoRendererC1Ev+0x314>)
10004d2a:	2b05      	cmp	r3, #5
10004d2c:	e9c4 2116 	strd	r2, r1, [r4, #88]	@ 0x58
10004d30:	e9c4 1018 	strd	r1, r0, [r4, #96]	@ 0x60
10004d34:	d087      	beq.n	10004c46 <_ZN12PicoRendererC1Ev+0x14e>
10004d36:	4a36      	ldr	r2, [pc, #216]	@ (10004e10 <_ZN12PicoRendererC1Ev+0x318>)
10004d38:	2b06      	cmp	r3, #6
10004d3a:	e9c4 211a 	strd	r2, r1, [r4, #104]	@ 0x68
10004d3e:	e9c4 101c 	strd	r1, r0, [r4, #112]	@ 0x70
10004d42:	d087      	beq.n	10004c54 <_ZN12PicoRendererC1Ev+0x15c>
10004d44:	4a33      	ldr	r2, [pc, #204]	@ (10004e14 <_ZN12PicoRendererC1Ev+0x31c>)
10004d46:	2b07      	cmp	r3, #7
10004d48:	e9c4 211e 	strd	r2, r1, [r4, #120]	@ 0x78
10004d4c:	e9c4 1020 	strd	r1, r0, [r4, #128]	@ 0x80
10004d50:	d087      	beq.n	10004c62 <_ZN12PicoRendererC1Ev+0x16a>
10004d52:	4a31      	ldr	r2, [pc, #196]	@ (10004e18 <_ZN12PicoRendererC1Ev+0x320>)
10004d54:	2b08      	cmp	r3, #8
10004d56:	e9c4 2122 	strd	r2, r1, [r4, #136]	@ 0x88
10004d5a:	e9c4 1024 	strd	r1, r0, [r4, #144]	@ 0x90
10004d5e:	d087      	beq.n	10004c70 <_ZN12PicoRendererC1Ev+0x178>
10004d60:	4a2e      	ldr	r2, [pc, #184]	@ (10004e1c <_ZN12PicoRendererC1Ev+0x324>)
10004d62:	2b09      	cmp	r3, #9
10004d64:	e9c4 2126 	strd	r2, r1, [r4, #152]	@ 0x98
10004d68:	e9c4 1028 	strd	r1, r0, [r4, #160]	@ 0xa0
10004d6c:	d087      	beq.n	10004c7e <_ZN12PicoRendererC1Ev+0x186>
10004d6e:	2220      	movs	r2, #32
10004d70:	210c      	movs	r1, #12
10004d72:	482b      	ldr	r0, [pc, #172]	@ (10004e20 <_ZN12PicoRendererC1Ev+0x328>)
10004d74:	2b0a      	cmp	r3, #10
10004d76:	e9c4 022a 	strd	r0, r2, [r4, #168]	@ 0xa8
10004d7a:	e9c4 212c 	strd	r2, r1, [r4, #176]	@ 0xb0
10004d7e:	d085      	beq.n	10004c8c <_ZN12PicoRendererC1Ev+0x194>
10004d80:	2210      	movs	r2, #16
10004d82:	2101      	movs	r1, #1
10004d84:	4827      	ldr	r0, [pc, #156]	@ (10004e24 <_ZN12PicoRendererC1Ev+0x32c>)
10004d86:	2b0b      	cmp	r3, #11
10004d88:	e9c4 022e 	strd	r0, r2, [r4, #184]	@ 0xb8
10004d8c:	e9c4 2130 	strd	r2, r1, [r4, #192]	@ 0xc0
10004d90:	d083      	beq.n	10004c9a <_ZN12PicoRendererC1Ev+0x1a2>
10004d92:	4825      	ldr	r0, [pc, #148]	@ (10004e28 <_ZN12PicoRendererC1Ev+0x330>)
10004d94:	2b0c      	cmp	r3, #12
10004d96:	e9c4 0232 	strd	r0, r2, [r4, #200]	@ 0xc8
10004d9a:	e9c4 2134 	strd	r2, r1, [r4, #208]	@ 0xd0
10004d9e:	d083      	beq.n	10004ca8 <_ZN12PicoRendererC1Ev+0x1b0>
10004da0:	4822      	ldr	r0, [pc, #136]	@ (10004e2c <_ZN12PicoRendererC1Ev+0x334>)
10004da2:	2b0d      	cmp	r3, #13
10004da4:	e9c4 0236 	strd	r0, r2, [r4, #216]	@ 0xd8
10004da8:	e9c4 2138 	strd	r2, r1, [r4, #224]	@ 0xe0
10004dac:	d083      	beq.n	10004cb6 <_ZN12PicoRendererC1Ev+0x1be>
10004dae:	4820      	ldr	r0, [pc, #128]	@ (10004e30 <_ZN12PicoRendererC1Ev+0x338>)
10004db0:	2b0e      	cmp	r3, #14
10004db2:	e9c4 023a 	strd	r0, r2, [r4, #232]	@ 0xe8
10004db6:	e9c4 213c 	strd	r2, r1, [r4, #240]	@ 0xf0
10004dba:	d083      	beq.n	10004cc4 <_ZN12PicoRendererC1Ev+0x1cc>
10004dbc:	481d      	ldr	r0, [pc, #116]	@ (10004e34 <_ZN12PicoRendererC1Ev+0x33c>)
10004dbe:	2b0f      	cmp	r3, #15
10004dc0:	e9c4 023e 	strd	r0, r2, [r4, #248]	@ 0xf8
10004dc4:	e9c4 2140 	strd	r2, r1, [r4, #256]	@ 0x100
10004dc8:	d083      	beq.n	10004cd2 <_ZN12PicoRendererC1Ev+0x1da>
10004dca:	481b      	ldr	r0, [pc, #108]	@ (10004e38 <_ZN12PicoRendererC1Ev+0x340>)
10004dcc:	2b10      	cmp	r3, #16
10004dce:	e9c4 0242 	strd	r0, r2, [r4, #264]	@ 0x108
10004dd2:	e9c4 2144 	strd	r2, r1, [r4, #272]	@ 0x110
10004dd6:	d083      	beq.n	10004ce0 <_ZN12PicoRendererC1Ev+0x1e8>
10004dd8:	4620      	mov	r0, r4
10004dda:	b00d      	add	sp, #52	@ 0x34
10004ddc:	bdf0      	pop	{r4, r5, r6, r7, pc}
10004dde:	bf00      	nop
10004de0:	100115ac 	.word	0x100115ac
10004de4:	01c9c380 	.word	0x01c9c380
10004de8:	40088000 	.word	0x40088000
10004dec:	08090a0b 	.word	0x08090a0b
10004df0:	00f00d0f 	.word	0x00f00d0f
10004df4:	867d867d 	.word	0x867d867d
10004df8:	10023e40 	.word	0x10023e40
10004dfc:	10023840 	.word	0x10023840
10004e00:	10023240 	.word	0x10023240
10004e04:	10021240 	.word	0x10021240
10004e08:	1001fa40 	.word	0x1001fa40
10004e0c:	1001e240 	.word	0x1001e240
10004e10:	1001ca40 	.word	0x1001ca40
10004e14:	1001b240 	.word	0x1001b240
10004e18:	10019a40 	.word	0x10019a40
10004e1c:	10018240 	.word	0x10018240
10004e20:	10012240 	.word	0x10012240
10004e24:	10012040 	.word	0x10012040
10004e28:	10011e40 	.word	0x10011e40
10004e2c:	10011c40 	.word	0x10011c40
10004e30:	10011a40 	.word	0x10011a40
10004e34:	10011840 	.word	0x10011840
10004e38:	10011640 	.word	0x10011640

10004e3c <_ZN12PicoRenderer21blitTransparentPixelsEPKtiiiib>:
10004e3c:	e92d 4ff0 	stmdb	sp!, {r4, r5, r6, r7, r8, r9, sl, fp, lr}
10004e40:	b087      	sub	sp, #28
10004e42:	f8b0 c162 	ldrh.w	ip, [r0, #354]	@ 0x162
10004e46:	9c10      	ldr	r4, [sp, #64]	@ 0x40
10004e48:	9d11      	ldr	r5, [sp, #68]	@ 0x44
10004e4a:	4564      	cmp	r4, ip
10004e4c:	f89d 8048 	ldrb.w	r8, [sp, #72]	@ 0x48
10004e50:	da71      	bge.n	10004f36 <_ZN12PicoRenderer21blitTransparentPixelsEPKtiiiib+0xfa>
10004e52:	f8b0 6164 	ldrh.w	r6, [r0, #356]	@ 0x164
10004e56:	42b5      	cmp	r5, r6
10004e58:	da6d      	bge.n	10004f36 <_ZN12PicoRenderer21blitTransparentPixelsEPKtiiiib+0xfa>
10004e5a:	18a7      	adds	r7, r4, r2
10004e5c:	d46b      	bmi.n	10004f36 <_ZN12PicoRenderer21blitTransparentPixelsEPKtiiiib+0xfa>
10004e5e:	eb15 0e03 	adds.w	lr, r5, r3
10004e62:	d468      	bmi.n	10004f36 <_ZN12PicoRenderer21blitTransparentPixelsEPKtiiiib+0xfa>
10004e64:	2c00      	cmp	r4, #0
10004e66:	bfad      	iteet	ge
10004e68:	2400      	movge	r4, #0
10004e6a:	4264      	neglt	r4, r4
10004e6c:	46ba      	movlt	sl, r7
10004e6e:	4692      	movge	sl, r2
10004e70:	2d00      	cmp	r5, #0
10004e72:	9401      	str	r4, [sp, #4]
10004e74:	bfac      	ite	ge
10004e76:	2400      	movge	r4, #0
10004e78:	426c      	neglt	r4, r5
10004e7a:	9403      	str	r4, [sp, #12]
10004e7c:	4654      	mov	r4, sl
10004e7e:	eba7 090c 	sub.w	r9, r7, ip
10004e82:	ea29 79e9 	bic.w	r9, r9, r9, asr #31
10004e86:	4591      	cmp	r9, r2
10004e88:	bfd4      	ite	le
10004e8a:	ebaa 0409 	suble.w	r4, sl, r9
10004e8e:	1aa4      	subgt	r4, r4, r2
10004e90:	2c00      	cmp	r4, #0
10004e92:	9402      	str	r4, [sp, #8]
10004e94:	dd4f      	ble.n	10004f36 <_ZN12PicoRenderer21blitTransparentPixelsEPKtiiiib+0xfa>
10004e96:	ebae 0e06 	sub.w	lr, lr, r6
10004e9a:	ea2e 7eee 	bic.w	lr, lr, lr, asr #31
10004e9e:	459e      	cmp	lr, r3
10004ea0:	9c03      	ldr	r4, [sp, #12]
10004ea2:	bfd4      	ite	le
10004ea4:	eba3 030e 	suble.w	r3, r3, lr
10004ea8:	1adb      	subgt	r3, r3, r3
10004eaa:	429c      	cmp	r4, r3
10004eac:	da43      	bge.n	10004f36 <_ZN12PicoRenderer21blitTransparentPixelsEPKtiiiib+0xfa>
10004eae:	f1b8 0f00 	cmp.w	r8, #0
10004eb2:	d143      	bne.n	10004f3c <_ZN12PicoRenderer21blitTransparentPixelsEPKtiiiib+0x100>
10004eb4:	eb03 0805 	add.w	r8, r3, r5
10004eb8:	4623      	mov	r3, r4
10004eba:	fb02 f303 	mul.w	r3, r2, r3
10004ebe:	4425      	add	r5, r4
10004ec0:	461c      	mov	r4, r3
10004ec2:	9b10      	ldr	r3, [sp, #64]	@ 0x40
10004ec4:	eb05 0785 	add.w	r7, r5, r5, lsl #2
10004ec8:	eb03 1787 	add.w	r7, r3, r7, lsl #6
10004ecc:	9b01      	ldr	r3, [sp, #4]
10004ece:	46a1      	mov	r9, r4
10004ed0:	eb01 0343 	add.w	r3, r1, r3, lsl #1
10004ed4:	eb01 0444 	add.w	r4, r1, r4, lsl #1
10004ed8:	f5c2 71a0 	rsb	r1, r2, #320	@ 0x140
10004edc:	ebc4 0e47 	rsb	lr, r4, r7, lsl #1
10004ee0:	9305      	str	r3, [sp, #20]
10004ee2:	f64f 0a1f 	movw	sl, #63519	@ 0xf81f
10004ee6:	46b3      	mov	fp, r6
10004ee8:	4643      	mov	r3, r8
10004eea:	004f      	lsls	r7, r1, #1
10004eec:	e004      	b.n	10004ef8 <_ZN12PicoRenderer21blitTransparentPixelsEPKtiiiib+0xbc>
10004eee:	3501      	adds	r5, #1
10004ef0:	429d      	cmp	r5, r3
10004ef2:	44be      	add	lr, r7
10004ef4:	4491      	add	r9, r2
10004ef6:	d01e      	beq.n	10004f36 <_ZN12PicoRenderer21blitTransparentPixelsEPKtiiiib+0xfa>
10004ef8:	45ab      	cmp	fp, r5
10004efa:	d9f8      	bls.n	10004eee <_ZN12PicoRenderer21blitTransparentPixelsEPKtiiiib+0xb2>
10004efc:	9c01      	ldr	r4, [sp, #4]
10004efe:	9910      	ldr	r1, [sp, #64]	@ 0x40
10004f00:	9e02      	ldr	r6, [sp, #8]
10004f02:	4421      	add	r1, r4
10004f04:	e9cd b303 	strd	fp, r3, [sp, #12]
10004f08:	9c05      	ldr	r4, [sp, #20]
10004f0a:	eb06 0801 	add.w	r8, r6, r1
10004f0e:	eb04 0449 	add.w	r4, r4, r9, lsl #1
10004f12:	458c      	cmp	ip, r1
10004f14:	d907      	bls.n	10004f26 <_ZN12PicoRenderer21blitTransparentPixelsEPKtiiiib+0xea>
10004f16:	8826      	ldrh	r6, [r4, #0]
10004f18:	4556      	cmp	r6, sl
10004f1a:	d004      	beq.n	10004f26 <_ZN12PicoRenderer21blitTransparentPixelsEPKtiiiib+0xea>
10004f1c:	6843      	ldr	r3, [r0, #4]
10004f1e:	eb03 0b04 	add.w	fp, r3, r4
10004f22:	f82b 600e 	strh.w	r6, [fp, lr]
10004f26:	3101      	adds	r1, #1
10004f28:	4588      	cmp	r8, r1
10004f2a:	f104 0402 	add.w	r4, r4, #2
10004f2e:	d1f0      	bne.n	10004f12 <_ZN12PicoRenderer21blitTransparentPixelsEPKtiiiib+0xd6>
10004f30:	e9dd b303 	ldrd	fp, r3, [sp, #12]
10004f34:	e7db      	b.n	10004eee <_ZN12PicoRenderer21blitTransparentPixelsEPKtiiiib+0xb2>
10004f36:	b007      	add	sp, #28
10004f38:	e8bd 8ff0 	ldmia.w	sp!, {r4, r5, r6, r7, r8, r9, sl, fp, pc}
10004f3c:	eb05 0b03 	add.w	fp, r5, r3
10004f40:	192b      	adds	r3, r5, r4
10004f42:	fb02 f404 	mul.w	r4, r2, r4
10004f46:	f502 75a0 	add.w	r5, r2, #320	@ 0x140
10004f4a:	ea4f 0945 	mov.w	r9, r5, lsl #1
10004f4e:	4427      	add	r7, r4
10004f50:	eb03 0583 	add.w	r5, r3, r3, lsl #2
10004f54:	eb07 1785 	add.w	r7, r7, r5, lsl #6
10004f58:	eb01 0547 	add.w	r5, r1, r7, lsl #1
10004f5c:	f5a9 7720 	sub.w	r7, r9, #640	@ 0x280
10004f60:	440f      	add	r7, r1
10004f62:	9901      	ldr	r1, [sp, #4]
10004f64:	f64f 0a1f 	movw	sl, #63519	@ 0xf81f
10004f68:	eba7 0141 	sub.w	r1, r7, r1, lsl #1
10004f6c:	46b0      	mov	r8, r6
10004f6e:	9105      	str	r1, [sp, #20]
10004f70:	e004      	b.n	10004f7c <_ZN12PicoRenderer21blitTransparentPixelsEPKtiiiib+0x140>
10004f72:	3301      	adds	r3, #1
10004f74:	455b      	cmp	r3, fp
10004f76:	444d      	add	r5, r9
10004f78:	4414      	add	r4, r2
10004f7a:	d0dc      	beq.n	10004f36 <_ZN12PicoRenderer21blitTransparentPixelsEPKtiiiib+0xfa>
10004f7c:	4598      	cmp	r8, r3
10004f7e:	d9f8      	bls.n	10004f72 <_ZN12PicoRenderer21blitTransparentPixelsEPKtiiiib+0x136>
10004f80:	f8cd 800c 	str.w	r8, [sp, #12]
10004f84:	4698      	mov	r8, r3
10004f86:	9e01      	ldr	r6, [sp, #4]
10004f88:	9910      	ldr	r1, [sp, #64]	@ 0x40
10004f8a:	9f02      	ldr	r7, [sp, #8]
10004f8c:	4431      	add	r1, r6
10004f8e:	9e05      	ldr	r6, [sp, #20]
10004f90:	eb07 0e01 	add.w	lr, r7, r1
10004f94:	eb06 0644 	add.w	r6, r6, r4, lsl #1
10004f98:	9204      	str	r2, [sp, #16]
10004f9a:	458c      	cmp	ip, r1
10004f9c:	f101 0101 	add.w	r1, r1, #1
10004fa0:	d906      	bls.n	10004fb0 <_ZN12PicoRenderer21blitTransparentPixelsEPKtiiiib+0x174>
10004fa2:	f836 3c02 	ldrh.w	r3, [r6, #-2]
10004fa6:	4553      	cmp	r3, sl
10004fa8:	d002      	beq.n	10004fb0 <_ZN12PicoRenderer21blitTransparentPixelsEPKtiiiib+0x174>
10004faa:	6842      	ldr	r2, [r0, #4]
10004fac:	1baf      	subs	r7, r5, r6
10004fae:	53d3      	strh	r3, [r2, r7]
10004fb0:	4571      	cmp	r1, lr
10004fb2:	f1a6 0602 	sub.w	r6, r6, #2
10004fb6:	d1f0      	bne.n	10004f9a <_ZN12PicoRenderer21blitTransparentPixelsEPKtiiiib+0x15e>
10004fb8:	4643      	mov	r3, r8
10004fba:	e9dd 8203 	ldrd	r8, r2, [sp, #12]
10004fbe:	e7d8      	b.n	10004f72 <_ZN12PicoRenderer21blitTransparentPixelsEPKtiiiib+0x136>

10004fc0 <_ZN12PicoRenderer8drawTileEiiaiii>:
10004fc0:	b5f0      	push	{r4, r5, r6, r7, lr}
10004fc2:	fa5f fe83 	uxtb.w	lr, r3
10004fc6:	f1be 0f0f 	cmp.w	lr, #15
10004fca:	9e07      	ldr	r6, [sp, #28]
10004fcc:	e9dd 5405 	ldrd	r5, r4, [sp, #20]
10004fd0:	d857      	bhi.n	10005082 <_ZN12PicoRenderer8drawTileEiiaiii+0xc2>
10004fd2:	2d00      	cmp	r5, #0
10004fd4:	db55      	blt.n	10005082 <_ZN12PicoRenderer8drawTileEiiaiii+0xc2>
10004fd6:	ee07 4a90 	vmov	s15, r4
10004fda:	0109      	lsls	r1, r1, #4
10004fdc:	eeb8 7ae7 	vcvt.f32.s32	s14, s15
10004fe0:	ee07 1a90 	vmov	s15, r1
10004fe4:	eef8 7ae7 	vcvt.f32.s32	s15, s15
10004fe8:	eebe 7ac8 	vcvt.s32.f32	s14, s14, #16
10004fec:	eefe 7ac8 	vcvt.s32.f32	s15, s15, #16
10004ff0:	ee17 7a10 	vmov	r7, s14
10004ff4:	ee17 1a90 	vmov	r1, s15
10004ff8:	f8b0 4162 	ldrh.w	r4, [r0, #354]	@ 0x162
10004ffc:	1bc9      	subs	r1, r1, r7
10004ffe:	ebb4 4f21 	cmp.w	r4, r1, asr #16
10005002:	ea4f 4721 	mov.w	r7, r1, asr #16
10005006:	dd3c      	ble.n	10005082 <_ZN12PicoRenderer8drawTileEiiaiii+0xc2>
10005008:	ee07 6a90 	vmov	s15, r6
1000500c:	0112      	lsls	r2, r2, #4
1000500e:	eeb8 7ae7 	vcvt.f32.s32	s14, s15
10005012:	ee07 2a90 	vmov	s15, r2
10005016:	eef8 7ae7 	vcvt.f32.s32	s15, s15
1000501a:	eebe 7ac8 	vcvt.s32.f32	s14, s14, #16
1000501e:	eefe 7ac8 	vcvt.s32.f32	s15, s15, #16
10005022:	ee17 4a10 	vmov	r4, s14
10005026:	ee17 2a90 	vmov	r2, s15
1000502a:	f8b0 1164 	ldrh.w	r1, [r0, #356]	@ 0x164
1000502e:	1b12      	subs	r2, r2, r4
10005030:	ebb1 4f22 	cmp.w	r1, r2, asr #16
10005034:	ea4f 4422 	mov.w	r4, r2, asr #16
10005038:	dd23      	ble.n	10005082 <_ZN12PicoRenderer8drawTileEiiaiii+0xc2>
1000503a:	f117 0f10 	cmn.w	r7, #16
1000503e:	db20      	blt.n	10005082 <_ZN12PicoRenderer8drawTileEiiaiii+0xc2>
10005040:	f114 0f10 	cmn.w	r4, #16
10005044:	db1d      	blt.n	10005082 <_ZN12PicoRenderer8drawTileEiiaiii+0xc2>
10005046:	f8d0 2148 	ldr.w	r2, [r0, #328]	@ 0x148
1000504a:	4295      	cmp	r5, r2
1000504c:	da19      	bge.n	10005082 <_ZN12PicoRenderer8drawTileEiiaiii+0xc2>
1000504e:	eb00 1c05 	add.w	ip, r0, r5, lsl #4
10005052:	f8dc 1008 	ldr.w	r1, [ip, #8]
10005056:	b1a1      	cbz	r1, 10005082 <_ZN12PicoRenderer8drawTileEiiaiii+0xc2>
10005058:	f8dc 2014 	ldr.w	r2, [ip, #20]
1000505c:	4293      	cmp	r3, r2
1000505e:	da10      	bge.n	10005082 <_ZN12PicoRenderer8drawTileEiiaiii+0xc2>
10005060:	e9dc 2503 	ldrd	r2, r5, [ip, #12]
10005064:	2600      	movs	r6, #0
10005066:	e9cd 7405 	strd	r7, r4, [sp, #20]
1000506a:	fb02 f403 	mul.w	r4, r2, r3
1000506e:	fb05 f404 	mul.w	r4, r5, r4
10005072:	462b      	mov	r3, r5
10005074:	eb01 0144 	add.w	r1, r1, r4, lsl #1
10005078:	9607      	str	r6, [sp, #28]
1000507a:	e8bd 40f0 	ldmia.w	sp!, {r4, r5, r6, r7, lr}
1000507e:	f7ff bedd 	b.w	10004e3c <_ZN12PicoRenderer21blitTransparentPixelsEPKtiiiib>
10005082:	bdf0      	pop	{r4, r5, r6, r7, pc}

10005084 <_ZN12PicoRenderer8drawTextEPKcii5Color>:
10005084:	2900      	cmp	r1, #0
10005086:	f000 80a1 	beq.w	100051cc <_ZN12PicoRenderer8drawTextEPKcii5Color+0x148>
1000508a:	e92d 4ff0 	stmdb	sp!, {r4, r5, r6, r7, r8, r9, sl, fp, lr}
1000508e:	4699      	mov	r9, r3
10005090:	780b      	ldrb	r3, [r1, #0]
10005092:	468b      	mov	fp, r1
10005094:	f5ad 7d05 	sub.w	sp, sp, #532	@ 0x214
10005098:	2b00      	cmp	r3, #0
1000509a:	d079      	beq.n	10005190 <_ZN12PicoRenderer8drawTextEPKcii5Color+0x10c>
1000509c:	2600      	movs	r6, #0
1000509e:	f89d 1239 	ldrb.w	r1, [sp, #569]	@ 0x239
100050a2:	f89d 4238 	ldrb.w	r4, [sp, #568]	@ 0x238
100050a6:	4615      	mov	r5, r2
100050a8:	4a49      	ldr	r2, [pc, #292]	@ (100051d0 <_ZN12PicoRenderer8drawTextEPKcii5Color+0x14c>)
100050aa:	00c9      	lsls	r1, r1, #3
100050ac:	f401 61fc 	and.w	r1, r1, #2016	@ 0x7e0
100050b0:	ea02 2204 	and.w	r2, r2, r4, lsl #8
100050b4:	430a      	orrs	r2, r1
100050b6:	f89d 123a 	ldrb.w	r1, [sp, #570]	@ 0x23a
100050ba:	f8b0 7162 	ldrh.w	r7, [r0, #354]	@ 0x162
100050be:	ea42 02d1 	orr.w	r2, r2, r1, lsr #3
100050c2:	f362 060f 	bfi	r6, r2, #0, #16
100050c6:	f8b0 8164 	ldrh.w	r8, [r0, #356]	@ 0x164
100050ca:	4c42      	ldr	r4, [pc, #264]	@ (100051d4 <_ZN12PicoRenderer8drawTextEPKcii5Color+0x150>)
100050cc:	f8df a108 	ldr.w	sl, [pc, #264]	@ 100051d8 <_ZN12PicoRenderer8drawTextEPKcii5Color+0x154>
100050d0:	f362 461f 	bfi	r6, r2, #16, #16
100050d4:	2b39      	cmp	r3, #57	@ 0x39
100050d6:	d85f      	bhi.n	10005198 <_ZN12PicoRenderer8drawTextEPKcii5Color+0x114>
100050d8:	2b2f      	cmp	r3, #47	@ 0x2f
100050da:	d864      	bhi.n	100051a6 <_ZN12PicoRenderer8drawTextEPKcii5Color+0x122>
100050dc:	2b20      	cmp	r3, #32
100050de:	d052      	beq.n	10005186 <_ZN12PicoRenderer8drawTextEPKcii5Color+0x102>
100050e0:	2b2f      	cmp	r3, #47	@ 0x2f
100050e2:	d151      	bne.n	10005188 <_ZN12PicoRenderer8drawTextEPKcii5Color+0x104>
100050e4:	f04f 0c58 	mov.w	ip, #88	@ 0x58
100050e8:	ab04      	add	r3, sp, #16
100050ea:	f843 4b04 	str.w	r4, [r3], #4
100050ee:	aa84      	add	r2, sp, #528	@ 0x210
100050f0:	4293      	cmp	r3, r2
100050f2:	d1fa      	bne.n	100050ea <_ZN12PicoRenderer8drawTextEPKcii5Color+0x66>
100050f4:	44d4      	add	ip, sl
100050f6:	f10c 31ff 	add.w	r1, ip, #4294967295
100050fa:	aa04      	add	r2, sp, #16
100050fc:	f10c 0c07 	add.w	ip, ip, #7
10005100:	f811 3f01 	ldrb.w	r3, [r1, #1]!
10005104:	3240      	adds	r2, #64	@ 0x40
10005106:	f013 0f80 	tst.w	r3, #128	@ 0x80
1000510a:	bf1c      	itt	ne
1000510c:	f842 6c40 	strne.w	r6, [r2, #-64]
10005110:	f842 6c20 	strne.w	r6, [r2, #-32]
10005114:	f013 0f40 	tst.w	r3, #64	@ 0x40
10005118:	bf1c      	itt	ne
1000511a:	f842 6c3c 	strne.w	r6, [r2, #-60]
1000511e:	f842 6c1c 	strne.w	r6, [r2, #-28]
10005122:	f013 0f20 	tst.w	r3, #32
10005126:	bf1c      	itt	ne
10005128:	f842 6c38 	strne.w	r6, [r2, #-56]
1000512c:	f842 6c18 	strne.w	r6, [r2, #-24]
10005130:	f013 0f10 	tst.w	r3, #16
10005134:	bf1c      	itt	ne
10005136:	f842 6c34 	strne.w	r6, [r2, #-52]
1000513a:	f842 6c14 	strne.w	r6, [r2, #-20]
1000513e:	f013 0f08 	tst.w	r3, #8
10005142:	bf1c      	itt	ne
10005144:	f842 6c30 	strne.w	r6, [r2, #-48]
10005148:	f842 6c10 	strne.w	r6, [r2, #-16]
1000514c:	f013 0f04 	tst.w	r3, #4
10005150:	bf1c      	itt	ne
10005152:	f842 6c2c 	strne.w	r6, [r2, #-44]
10005156:	f842 6c0c 	strne.w	r6, [r2, #-12]
1000515a:	f013 0f02 	tst.w	r3, #2
1000515e:	bf1c      	itt	ne
10005160:	f842 6c28 	strne.w	r6, [r2, #-40]
10005164:	f842 6c08 	strne.w	r6, [r2, #-8]
10005168:	07db      	lsls	r3, r3, #31
1000516a:	bf44      	itt	mi
1000516c:	f842 6c24 	strmi.w	r6, [r2, #-36]
10005170:	f842 6c04 	strmi.w	r6, [r2, #-4]
10005174:	458c      	cmp	ip, r1
10005176:	d1c3      	bne.n	10005100 <_ZN12PicoRenderer8drawTextEPKcii5Color+0x7c>
10005178:	42af      	cmp	r7, r5
1000517a:	dd04      	ble.n	10005186 <_ZN12PicoRenderer8drawTextEPKcii5Color+0x102>
1000517c:	f115 0f0f 	cmn.w	r5, #15
10005180:	db01      	blt.n	10005186 <_ZN12PicoRenderer8drawTextEPKcii5Color+0x102>
10005182:	45c1      	cmp	r9, r8
10005184:	db14      	blt.n	100051b0 <_ZN12PicoRenderer8drawTextEPKcii5Color+0x12c>
10005186:	3510      	adds	r5, #16
10005188:	f81b 3f01 	ldrb.w	r3, [fp, #1]!
1000518c:	2b00      	cmp	r3, #0
1000518e:	d1a1      	bne.n	100050d4 <_ZN12PicoRenderer8drawTextEPKcii5Color+0x50>
10005190:	f50d 7d05 	add.w	sp, sp, #532	@ 0x214
10005194:	e8bd 8ff0 	ldmia.w	sp!, {r4, r5, r6, r7, r8, r9, sl, fp, pc}
10005198:	f003 03df 	and.w	r3, r3, #223	@ 0xdf
1000519c:	2b58      	cmp	r3, #88	@ 0x58
1000519e:	d1f3      	bne.n	10005188 <_ZN12PicoRenderer8drawTextEPKcii5Color+0x104>
100051a0:	f04f 0c50 	mov.w	ip, #80	@ 0x50
100051a4:	e7a0      	b.n	100050e8 <_ZN12PicoRenderer8drawTextEPKcii5Color+0x64>
100051a6:	f1a3 0c30 	sub.w	ip, r3, #48	@ 0x30
100051aa:	ea4f 0ccc 	mov.w	ip, ip, lsl #3
100051ae:	e79b      	b.n	100050e8 <_ZN12PicoRenderer8drawTextEPKcii5Color+0x64>
100051b0:	f119 0f0f 	cmn.w	r9, #15
100051b4:	dbe7      	blt.n	10005186 <_ZN12PicoRenderer8drawTextEPKcii5Color+0x102>
100051b6:	2300      	movs	r3, #0
100051b8:	9302      	str	r3, [sp, #8]
100051ba:	2310      	movs	r3, #16
100051bc:	e9cd 5900 	strd	r5, r9, [sp]
100051c0:	461a      	mov	r2, r3
100051c2:	eb0d 0103 	add.w	r1, sp, r3
100051c6:	f7ff fe39 	bl	10004e3c <_ZN12PicoRenderer21blitTransparentPixelsEPKtiiiib>
100051ca:	e7dc      	b.n	10005186 <_ZN12PicoRenderer8drawTextEPKcii5Color+0x102>
100051cc:	4770      	bx	lr
100051ce:	bf00      	nop
100051d0:	fffff800 	.word	0xfffff800
100051d4:	f81ff81f 	.word	0xf81ff81f
100051d8:	100115e0 	.word	0x100115e0

100051dc <_ZN12PicoRenderer15drawSpriteFrameEiiiiRK4Rectb>:
100051dc:	b470      	push	{r4, r5, r6}
100051de:	2900      	cmp	r1, #0
100051e0:	9c04      	ldr	r4, [sp, #16]
100051e2:	f89d 5014 	ldrb.w	r5, [sp, #20]
100051e6:	db0c      	blt.n	10005202 <_ZN12PicoRenderer15drawSpriteFrameEiiiiRK4Rectb+0x26>
100051e8:	f8d0 6148 	ldr.w	r6, [r0, #328]	@ 0x148
100051ec:	428e      	cmp	r6, r1
100051ee:	dd08      	ble.n	10005202 <_ZN12PicoRenderer15drawSpriteFrameEiiiiRK4Rectb+0x26>
100051f0:	eb00 1301 	add.w	r3, r0, r1, lsl #4
100051f4:	6899      	ldr	r1, [r3, #8]
100051f6:	b121      	cbz	r1, 10005202 <_ZN12PicoRenderer15drawSpriteFrameEiiiiRK4Rectb+0x26>
100051f8:	2a00      	cmp	r2, #0
100051fa:	db02      	blt.n	10005202 <_ZN12PicoRenderer15drawSpriteFrameEiiiiRK4Rectb+0x26>
100051fc:	695e      	ldr	r6, [r3, #20]
100051fe:	42b2      	cmp	r2, r6
10005200:	db01      	blt.n	10005206 <_ZN12PicoRenderer15drawSpriteFrameEiiiiRK4Rectb+0x2a>
10005202:	bc70      	pop	{r4, r5, r6}
10005204:	4770      	bx	lr
10005206:	e9d3 6303 	ldrd	r6, r3, [r3, #12]
1000520a:	fb06 fc02 	mul.w	ip, r6, r2
1000520e:	9505      	str	r5, [sp, #20]
10005210:	f9b4 5006 	ldrsh.w	r5, [r4, #6]
10005214:	fb03 fc0c 	mul.w	ip, r3, ip
10005218:	9504      	str	r5, [sp, #16]
1000521a:	f9b4 4002 	ldrsh.w	r4, [r4, #2]
1000521e:	4632      	mov	r2, r6
10005220:	9403      	str	r4, [sp, #12]
10005222:	eb01 014c 	add.w	r1, r1, ip, lsl #1
10005226:	bc70      	pop	{r4, r5, r6}
10005228:	f7ff be08 	b.w	10004e3c <_ZN12PicoRenderer21blitTransparentPixelsEPKtiiiib>

1000522c <_ZN12PicoRendererD1Ev>:
1000522c:	b510      	push	{r4, lr}
1000522e:	4604      	mov	r4, r0
10005230:	4b06      	ldr	r3, [pc, #24]	@ (1000524c <_ZN12PicoRendererD1Ev+0x20>)
10005232:	6840      	ldr	r0, [r0, #4]
10005234:	6023      	str	r3, [r4, #0]
10005236:	b108      	cbz	r0, 1000523c <_ZN12PicoRendererD1Ev+0x10>
10005238:	f001 ff22 	bl	10007080 <_ZdaPv>
1000523c:	2300      	movs	r3, #0
1000523e:	f504 70a6 	add.w	r0, r4, #332	@ 0x14c
10005242:	6063      	str	r3, [r4, #4]
10005244:	f006 fc34 	bl	1000bab0 <_ZN6st77896ST7789D1Ev>
10005248:	4620      	mov	r0, r4
1000524a:	bd10      	pop	{r4, pc}
1000524c:	100115ac 	.word	0x100115ac

10005250 <_ZN12PicoRendererD0Ev>:
10005250:	b510      	push	{r4, lr}
10005252:	4604      	mov	r4, r0
10005254:	4b09      	ldr	r3, [pc, #36]	@ (1000527c <_ZN12PicoRendererD0Ev+0x2c>)
10005256:	6840      	ldr	r0, [r0, #4]
10005258:	6023      	str	r3, [r4, #0]
1000525a:	b108      	cbz	r0, 10005260 <_ZN12PicoRendererD0Ev+0x10>
1000525c:	f001 ff10 	bl	10007080 <_ZdaPv>
10005260:	2300      	movs	r3, #0
10005262:	f504 70a6 	add.w	r0, r4, #332	@ 0x14c
10005266:	6063      	str	r3, [r4, #4]
10005268:	f006 fc22 	bl	1000bab0 <_ZN6st77896ST7789D1Ev>
1000526c:	4620      	mov	r0, r4
1000526e:	f44f 71d2 	mov.w	r1, #420	@ 0x1a4
10005272:	f001 ff07 	bl	10007084 <_ZdlPvj>
10005276:	4620      	mov	r0, r4
10005278:	bd10      	pop	{r4, pc}
1000527a:	bf00      	nop
1000527c:	100115ac 	.word	0x100115ac

10005280 <_ZNK9PicoInput9isPressedE6Button>:
10005280:	2905      	cmp	r1, #5
10005282:	bf9d      	ittte	ls
10005284:	8880      	ldrhls	r0, [r0, #4]
10005286:	4108      	asrls	r0, r1
10005288:	f000 0001 	andls.w	r0, r0, #1
1000528c:	2000      	movhi	r0, #0
1000528e:	4770      	bx	lr

10005290 <_ZNK9PicoInput14wasJustPressedE6Button>:
10005290:	2905      	cmp	r1, #5
10005292:	d80a      	bhi.n	100052aa <_ZNK9PicoInput14wasJustPressedE6Button+0x1a>
10005294:	8883      	ldrh	r3, [r0, #4]
10005296:	410b      	asrs	r3, r1
10005298:	f013 0301 	ands.w	r3, r3, #1
1000529c:	d005      	beq.n	100052aa <_ZNK9PicoInput14wasJustPressedE6Button+0x1a>
1000529e:	88c0      	ldrh	r0, [r0, #6]
100052a0:	4108      	asrs	r0, r1
100052a2:	43c0      	mvns	r0, r0
100052a4:	f000 0001 	and.w	r0, r0, #1
100052a8:	4770      	bx	lr
100052aa:	2000      	movs	r0, #0
100052ac:	4770      	bx	lr
100052ae:	bf00      	nop

100052b0 <_ZNK9PicoInput15wasJustReleasedE6Button>:
100052b0:	2905      	cmp	r1, #5
100052b2:	d808      	bhi.n	100052c6 <_ZNK9PicoInput15wasJustReleasedE6Button+0x16>
100052b4:	8883      	ldrh	r3, [r0, #4]
100052b6:	410b      	asrs	r3, r1
100052b8:	07db      	lsls	r3, r3, #31
100052ba:	d404      	bmi.n	100052c6 <_ZNK9PicoInput15wasJustReleasedE6Button+0x16>
100052bc:	88c0      	ldrh	r0, [r0, #6]
100052be:	4108      	asrs	r0, r1
100052c0:	f000 0001 	and.w	r0, r0, #1
100052c4:	4770      	bx	lr
100052c6:	2000      	movs	r0, #0
100052c8:	4770      	bx	lr
100052ca:	bf00      	nop

100052cc <_ZN9PicoInputD1Ev>:
100052cc:	4770      	bx	lr
100052ce:	bf00      	nop

100052d0 <_ZN9PicoInput6updateEv>:
100052d0:	e92d 4ff8 	stmdb	sp!, {r3, r4, r5, r6, r7, r8, r9, sl, fp, lr}
100052d4:	4604      	mov	r4, r0
100052d6:	200e      	movs	r0, #14
100052d8:	f000 fa64 	bl	100057a4 <gpio_init>
100052dc:	2500      	movs	r5, #0
100052de:	200e      	movs	r0, #14
100052e0:	ec45 0044 	gpioc_bit_oe_put r0, r5
100052e4:	2101      	movs	r1, #1
100052e6:	462a      	mov	r2, r5
100052e8:	f000 fa38 	bl	1000575c <gpio_set_pulls>
100052ec:	2004      	movs	r0, #4
100052ee:	4946      	ldr	r1, [pc, #280]	@ (10005408 <_ZN9PicoInput6updateEv+0x138>)
100052f0:	f8b4 c004 	ldrh.w	ip, [r4, #4]
100052f4:	680b      	ldr	r3, [r1, #0]
100052f6:	4e45      	ldr	r6, [pc, #276]	@ (1000540c <_ZN9PicoInput6updateEv+0x13c>)
100052f8:	4a45      	ldr	r2, [pc, #276]	@ (10005410 <_ZN9PicoInput6updateEv+0x140>)
100052fa:	f403 4370 	and.w	r3, r3, #61440	@ 0xf000
100052fe:	80a5      	strh	r5, [r4, #4]
10005300:	f8a4 c006 	strh.w	ip, [r4, #6]
10005304:	6033      	str	r3, [r6, #0]
10005306:	6010      	str	r0, [r2, #0]
10005308:	680b      	ldr	r3, [r1, #0]
1000530a:	05df      	lsls	r7, r3, #23
1000530c:	d5fc      	bpl.n	10005308 <_ZN9PicoInput6updateEv+0x38>
1000530e:	2504      	movs	r5, #4
10005310:	684a      	ldr	r2, [r1, #4]
10005312:	680b      	ldr	r3, [r1, #0]
10005314:	493d      	ldr	r1, [pc, #244]	@ (1000540c <_ZN9PicoInput6updateEv+0x13c>)
10005316:	f483 5380 	eor.w	r3, r3, #4096	@ 0x1000
1000531a:	483d      	ldr	r0, [pc, #244]	@ (10005410 <_ZN9PicoInput6updateEv+0x140>)
1000531c:	f403 4370 	and.w	r3, r3, #61440	@ 0xf000
10005320:	600b      	str	r3, [r1, #0]
10005322:	b291      	uxth	r1, r2
10005324:	4a38      	ldr	r2, [pc, #224]	@ (10005408 <_ZN9PicoInput6updateEv+0x138>)
10005326:	6005      	str	r5, [r0, #0]
10005328:	6813      	ldr	r3, [r2, #0]
1000532a:	05de      	lsls	r6, r3, #23
1000532c:	d5fc      	bpl.n	10005328 <_ZN9PicoInput6updateEv+0x58>
1000532e:	6853      	ldr	r3, [r2, #4]
10005330:	f5b1 7f48 	cmp.w	r1, #800	@ 0x320
10005334:	f5c3 637f 	rsb	r3, r3, #4080	@ 0xff0
10005338:	f103 030f 	add.w	r3, r3, #15
1000533c:	b29b      	uxth	r3, r3
1000533e:	d22a      	bcs.n	10005396 <_ZN9PicoInput6updateEv+0xc6>
10005340:	f04f 0b01 	mov.w	fp, #1
10005344:	f04f 0a11 	mov.w	sl, #17
10005348:	f04f 0931 	mov.w	r9, #49	@ 0x31
1000534c:	f04f 0821 	mov.w	r8, #33	@ 0x21
10005350:	2215      	movs	r2, #21
10005352:	2035      	movs	r0, #53	@ 0x35
10005354:	2125      	movs	r1, #37	@ 0x25
10005356:	2719      	movs	r7, #25
10005358:	f04f 0e39 	mov.w	lr, #57	@ 0x39
1000535c:	f04f 0c29 	mov.w	ip, #41	@ 0x29
10005360:	2505      	movs	r5, #5
10005362:	2609      	movs	r6, #9
10005364:	f8a4 b004 	strh.w	fp, [r4, #4]
10005368:	f5b3 7f48 	cmp.w	r3, #800	@ 0x320
1000536c:	d233      	bcs.n	100053d6 <_ZN9PicoInput6updateEv+0x106>
1000536e:	463a      	mov	r2, r7
10005370:	4670      	mov	r0, lr
10005372:	4661      	mov	r1, ip
10005374:	80a6      	strh	r6, [r4, #4]
10005376:	f04f 4350 	mov.w	r3, #3489660928	@ 0xd0000000
1000537a:	685b      	ldr	r3, [r3, #4]
1000537c:	045d      	lsls	r5, r3, #17
1000537e:	f04f 4350 	mov.w	r3, #3489660928	@ 0xd0000000
10005382:	bf58      	it	pl
10005384:	4602      	movpl	r2, r0
10005386:	685b      	ldr	r3, [r3, #4]
10005388:	bf58      	it	pl
1000538a:	80a1      	strhpl	r1, [r4, #4]
1000538c:	065b      	lsls	r3, r3, #25
1000538e:	bf58      	it	pl
10005390:	80a2      	strhpl	r2, [r4, #4]
10005392:	e8bd 8ff8 	ldmia.w	sp!, {r3, r4, r5, r6, r7, r8, r9, sl, fp, pc}
10005396:	f5b1 6f48 	cmp.w	r1, #3200	@ 0xc80
1000539a:	d924      	bls.n	100053e6 <_ZN9PicoInput6updateEv+0x116>
1000539c:	f04f 0b02 	mov.w	fp, #2
100053a0:	f5b3 7f48 	cmp.w	r3, #800	@ 0x320
100053a4:	f04f 0a12 	mov.w	sl, #18
100053a8:	f04f 0932 	mov.w	r9, #50	@ 0x32
100053ac:	f04f 0822 	mov.w	r8, #34	@ 0x22
100053b0:	f04f 0216 	mov.w	r2, #22
100053b4:	f04f 0036 	mov.w	r0, #54	@ 0x36
100053b8:	f04f 0126 	mov.w	r1, #38	@ 0x26
100053bc:	f04f 071a 	mov.w	r7, #26
100053c0:	f04f 0e3a 	mov.w	lr, #58	@ 0x3a
100053c4:	f04f 0c2a 	mov.w	ip, #42	@ 0x2a
100053c8:	f04f 0506 	mov.w	r5, #6
100053cc:	f04f 060a 	mov.w	r6, #10
100053d0:	f8a4 b004 	strh.w	fp, [r4, #4]
100053d4:	d3cb      	bcc.n	1000536e <_ZN9PicoInput6updateEv+0x9e>
100053d6:	f5b3 6f48 	cmp.w	r3, #3200	@ 0xc80
100053da:	bf9d      	ittte	ls
100053dc:	4652      	movls	r2, sl
100053de:	4648      	movls	r0, r9
100053e0:	4641      	movls	r1, r8
100053e2:	80a5      	strhhi	r5, [r4, #4]
100053e4:	e7c7      	b.n	10005376 <_ZN9PicoInput6updateEv+0xa6>
100053e6:	f04f 0a10 	mov.w	sl, #16
100053ea:	f04f 0930 	mov.w	r9, #48	@ 0x30
100053ee:	f04f 0820 	mov.w	r8, #32
100053f2:	2214      	movs	r2, #20
100053f4:	2034      	movs	r0, #52	@ 0x34
100053f6:	2124      	movs	r1, #36	@ 0x24
100053f8:	2718      	movs	r7, #24
100053fa:	f04f 0e38 	mov.w	lr, #56	@ 0x38
100053fe:	f04f 0c28 	mov.w	ip, #40	@ 0x28
10005402:	2504      	movs	r5, #4
10005404:	2608      	movs	r6, #8
10005406:	e7af      	b.n	10005368 <_ZN9PicoInput6updateEv+0x98>
10005408:	400a0000 	.word	0x400a0000
1000540c:	400a1000 	.word	0x400a1000
10005410:	400a2000 	.word	0x400a2000

10005414 <_ZN9PicoInputD0Ev>:
10005414:	b510      	push	{r4, lr}
10005416:	4604      	mov	r4, r0
10005418:	2108      	movs	r1, #8
1000541a:	f001 fe33 	bl	10007084 <_ZdlPvj>
1000541e:	4620      	mov	r0, r4
10005420:	bd10      	pop	{r4, pc}
10005422:	bf00      	nop

10005424 <_ZN9PicoInputC1Ev>:
10005424:	b570      	push	{r4, r5, r6, lr}
10005426:	2400      	movs	r4, #0
10005428:	4b1b      	ldr	r3, [pc, #108]	@ (10005498 <_ZN9PicoInputC1Ev+0x74>)
1000542a:	4605      	mov	r5, r0
1000542c:	e9c0 3400 	strd	r3, r4, [r0]
10005430:	f005 ffde 	bl	1000b3f0 <adc_init>
10005434:	211f      	movs	r1, #31
10005436:	201a      	movs	r0, #26
10005438:	f000 f972 	bl	10005720 <gpio_set_function>
1000543c:	4622      	mov	r2, r4
1000543e:	4621      	mov	r1, r4
10005440:	201a      	movs	r0, #26
10005442:	f000 f98b 	bl	1000575c <gpio_set_pulls>
10005446:	4621      	mov	r1, r4
10005448:	201a      	movs	r0, #26
1000544a:	f000 f99b 	bl	10005784 <gpio_set_input_enabled>
1000544e:	211f      	movs	r1, #31
10005450:	201b      	movs	r0, #27
10005452:	f000 f965 	bl	10005720 <gpio_set_function>
10005456:	4622      	mov	r2, r4
10005458:	4621      	mov	r1, r4
1000545a:	201b      	movs	r0, #27
1000545c:	f000 f97e 	bl	1000575c <gpio_set_pulls>
10005460:	4621      	mov	r1, r4
10005462:	201b      	movs	r0, #27
10005464:	f000 f98e 	bl	10005784 <gpio_set_input_enabled>
10005468:	200e      	movs	r0, #14
1000546a:	f000 f99b 	bl	100057a4 <gpio_init>
1000546e:	2006      	movs	r0, #6
10005470:	f000 f998 	bl	100057a4 <gpio_init>
10005474:	200e      	movs	r0, #14
10005476:	ec44 0044 	gpioc_bit_oe_put r0, r4
1000547a:	2606      	movs	r6, #6
1000547c:	ec44 6044 	gpioc_bit_oe_put r6, r4
10005480:	2101      	movs	r1, #1
10005482:	4622      	mov	r2, r4
10005484:	f000 f96a 	bl	1000575c <gpio_set_pulls>
10005488:	4630      	mov	r0, r6
1000548a:	4622      	mov	r2, r4
1000548c:	2101      	movs	r1, #1
1000548e:	f000 f965 	bl	1000575c <gpio_set_pulls>
10005492:	4628      	mov	r0, r5
10005494:	bd70      	pop	{r4, r5, r6, pc}
10005496:	bf00      	nop
10005498:	10025648 	.word	0x10025648

1000549c <_ZN11PicoHapticsD1Ev>:
1000549c:	4770      	bx	lr
1000549e:	bf00      	nop

100054a0 <_ZN11PicoHaptics7triggerE12HapticEffecti>:
100054a0:	b510      	push	{r4, lr}
100054a2:	2901      	cmp	r1, #1
100054a4:	b084      	sub	sp, #16
100054a6:	d029      	beq.n	100054fc <_ZN11PicoHaptics7triggerE12HapticEffecti+0x5c>
100054a8:	2902      	cmp	r1, #2
100054aa:	bf0c      	ite	eq
100054ac:	2233      	moveq	r2, #51	@ 0x33
100054ae:	2201      	movne	r2, #1
100054b0:	2400      	movs	r4, #0
100054b2:	f04f 0c04 	mov.w	ip, #4
100054b6:	f88d 200d 	strb.w	r2, [sp, #13]
100054ba:	2302      	movs	r3, #2
100054bc:	aa03      	add	r2, sp, #12
100054be:	215a      	movs	r1, #90	@ 0x5a
100054c0:	9400      	str	r4, [sp, #0]
100054c2:	480f      	ldr	r0, [pc, #60]	@ (10005500 <_ZN11PicoHaptics7triggerE12HapticEffecti+0x60>)
100054c4:	f88d c00c 	strb.w	ip, [sp, #12]
100054c8:	f006 f870 	bl	1000b5ac <i2c_write_blocking>
100054cc:	f04f 0c05 	mov.w	ip, #5
100054d0:	aa03      	add	r2, sp, #12
100054d2:	2302      	movs	r3, #2
100054d4:	215a      	movs	r1, #90	@ 0x5a
100054d6:	9400      	str	r4, [sp, #0]
100054d8:	4809      	ldr	r0, [pc, #36]	@ (10005500 <_ZN11PicoHaptics7triggerE12HapticEffecti+0x60>)
100054da:	f8ad c00c 	strh.w	ip, [sp, #12]
100054de:	f006 f865 	bl	1000b5ac <i2c_write_blocking>
100054e2:	f44f 7c86 	mov.w	ip, #268	@ 0x10c
100054e6:	2302      	movs	r3, #2
100054e8:	215a      	movs	r1, #90	@ 0x5a
100054ea:	aa03      	add	r2, sp, #12
100054ec:	9400      	str	r4, [sp, #0]
100054ee:	4804      	ldr	r0, [pc, #16]	@ (10005500 <_ZN11PicoHaptics7triggerE12HapticEffecti+0x60>)
100054f0:	f8ad c00c 	strh.w	ip, [sp, #12]
100054f4:	f006 f85a 	bl	1000b5ac <i2c_write_blocking>
100054f8:	b004      	add	sp, #16
100054fa:	bd10      	pop	{r4, pc}
100054fc:	222f      	movs	r2, #47	@ 0x2f
100054fe:	e7d7      	b.n	100054b0 <_ZN11PicoHaptics7triggerE12HapticEffecti+0x10>
10005500:	2000134c 	.word	0x2000134c

10005504 <_ZN11PicoHaptics4stopEv>:
10005504:	b510      	push	{r4, lr}
10005506:	f04f 0c0c 	mov.w	ip, #12
1000550a:	2400      	movs	r4, #0
1000550c:	b084      	sub	sp, #16
1000550e:	2302      	movs	r3, #2
10005510:	215a      	movs	r1, #90	@ 0x5a
10005512:	eb0d 020c 	add.w	r2, sp, ip
10005516:	9400      	str	r4, [sp, #0]
10005518:	4803      	ldr	r0, [pc, #12]	@ (10005528 <_ZN11PicoHaptics4stopEv+0x24>)
1000551a:	f8ad c00c 	strh.w	ip, [sp, #12]
1000551e:	f006 f845 	bl	1000b5ac <i2c_write_blocking>
10005522:	b004      	add	sp, #16
10005524:	bd10      	pop	{r4, pc}
10005526:	bf00      	nop
10005528:	2000134c 	.word	0x2000134c

1000552c <_ZN11PicoHapticsD0Ev>:
1000552c:	b510      	push	{r4, lr}
1000552e:	4604      	mov	r4, r0
10005530:	2104      	movs	r1, #4
10005532:	f001 fda7 	bl	10007084 <_ZdlPvj>
10005536:	4620      	mov	r0, r4
10005538:	bd10      	pop	{r4, pc}
1000553a:	bf00      	nop

1000553c <_ZN11PicoHapticsC1Ev>:
1000553c:	b530      	push	{r4, r5, lr}
1000553e:	4605      	mov	r5, r0
10005540:	4b46      	ldr	r3, [pc, #280]	@ (1000565c <_ZN11PicoHapticsC1Ev+0x120>)
10005542:	b085      	sub	sp, #20
10005544:	4946      	ldr	r1, [pc, #280]	@ (10005660 <_ZN11PicoHapticsC1Ev+0x124>)
10005546:	602b      	str	r3, [r5, #0]
10005548:	4846      	ldr	r0, [pc, #280]	@ (10005664 <_ZN11PicoHapticsC1Ev+0x128>)
1000554a:	f006 f809 	bl	1000b560 <i2c_init>
1000554e:	2103      	movs	r1, #3
10005550:	2000      	movs	r0, #0
10005552:	f000 f8e5 	bl	10005720 <gpio_set_function>
10005556:	2103      	movs	r1, #3
10005558:	2001      	movs	r0, #1
1000555a:	f000 f8e1 	bl	10005720 <gpio_set_function>
1000555e:	2200      	movs	r2, #0
10005560:	2101      	movs	r1, #1
10005562:	4610      	mov	r0, r2
10005564:	f000 f8fa 	bl	1000575c <gpio_set_pulls>
10005568:	2101      	movs	r1, #1
1000556a:	2200      	movs	r2, #0
1000556c:	4608      	mov	r0, r1
1000556e:	2400      	movs	r4, #0
10005570:	f000 f8f4 	bl	1000575c <gpio_set_pulls>
10005574:	2201      	movs	r2, #1
10005576:	2302      	movs	r3, #2
10005578:	f8ad 200c 	strh.w	r2, [sp, #12]
1000557c:	215a      	movs	r1, #90	@ 0x5a
1000557e:	aa03      	add	r2, sp, #12
10005580:	9400      	str	r4, [sp, #0]
10005582:	4838      	ldr	r0, [pc, #224]	@ (10005664 <_ZN11PicoHapticsC1Ev+0x128>)
10005584:	f006 f812 	bl	1000b5ac <i2c_write_blocking>
10005588:	f240 6203 	movw	r2, #1539	@ 0x603
1000558c:	2302      	movs	r3, #2
1000558e:	f8ad 200c 	strh.w	r2, [sp, #12]
10005592:	215a      	movs	r1, #90	@ 0x5a
10005594:	aa03      	add	r2, sp, #12
10005596:	9400      	str	r4, [sp, #0]
10005598:	4832      	ldr	r0, [pc, #200]	@ (10005664 <_ZN11PicoHapticsC1Ev+0x128>)
1000559a:	f006 f807 	bl	1000b5ac <i2c_write_blocking>
1000559e:	2204      	movs	r2, #4
100055a0:	2302      	movs	r3, #2
100055a2:	f8ad 200c 	strh.w	r2, [sp, #12]
100055a6:	215a      	movs	r1, #90	@ 0x5a
100055a8:	aa03      	add	r2, sp, #12
100055aa:	9400      	str	r4, [sp, #0]
100055ac:	482d      	ldr	r0, [pc, #180]	@ (10005664 <_ZN11PicoHapticsC1Ev+0x128>)
100055ae:	f005 fffd 	bl	1000b5ac <i2c_write_blocking>
100055b2:	2205      	movs	r2, #5
100055b4:	2302      	movs	r3, #2
100055b6:	f8ad 200c 	strh.w	r2, [sp, #12]
100055ba:	215a      	movs	r1, #90	@ 0x5a
100055bc:	aa03      	add	r2, sp, #12
100055be:	9400      	str	r4, [sp, #0]
100055c0:	4828      	ldr	r0, [pc, #160]	@ (10005664 <_ZN11PicoHapticsC1Ev+0x128>)
100055c2:	f005 fff3 	bl	1000b5ac <i2c_write_blocking>
100055c6:	2206      	movs	r2, #6
100055c8:	2302      	movs	r3, #2
100055ca:	f8ad 200c 	strh.w	r2, [sp, #12]
100055ce:	215a      	movs	r1, #90	@ 0x5a
100055d0:	aa03      	add	r2, sp, #12
100055d2:	9400      	str	r4, [sp, #0]
100055d4:	4823      	ldr	r0, [pc, #140]	@ (10005664 <_ZN11PicoHapticsC1Ev+0x128>)
100055d6:	f005 ffe9 	bl	1000b5ac <i2c_write_blocking>
100055da:	2207      	movs	r2, #7
100055dc:	2302      	movs	r3, #2
100055de:	f8ad 200c 	strh.w	r2, [sp, #12]
100055e2:	215a      	movs	r1, #90	@ 0x5a
100055e4:	aa03      	add	r2, sp, #12
100055e6:	9400      	str	r4, [sp, #0]
100055e8:	481e      	ldr	r0, [pc, #120]	@ (10005664 <_ZN11PicoHapticsC1Ev+0x128>)
100055ea:	f005 ffdf 	bl	1000b5ac <i2c_write_blocking>
100055ee:	2208      	movs	r2, #8
100055f0:	2302      	movs	r3, #2
100055f2:	f8ad 200c 	strh.w	r2, [sp, #12]
100055f6:	215a      	movs	r1, #90	@ 0x5a
100055f8:	aa03      	add	r2, sp, #12
100055fa:	9400      	str	r4, [sp, #0]
100055fc:	4819      	ldr	r0, [pc, #100]	@ (10005664 <_ZN11PicoHapticsC1Ev+0x128>)
100055fe:	f005 ffd5 	bl	1000b5ac <i2c_write_blocking>
10005602:	2209      	movs	r2, #9
10005604:	2302      	movs	r3, #2
10005606:	f8ad 200c 	strh.w	r2, [sp, #12]
1000560a:	215a      	movs	r1, #90	@ 0x5a
1000560c:	aa03      	add	r2, sp, #12
1000560e:	9400      	str	r4, [sp, #0]
10005610:	4814      	ldr	r0, [pc, #80]	@ (10005664 <_ZN11PicoHapticsC1Ev+0x128>)
10005612:	f005 ffcb 	bl	1000b5ac <i2c_write_blocking>
10005616:	220a      	movs	r2, #10
10005618:	2302      	movs	r3, #2
1000561a:	f8ad 200c 	strh.w	r2, [sp, #12]
1000561e:	215a      	movs	r1, #90	@ 0x5a
10005620:	aa03      	add	r2, sp, #12
10005622:	9400      	str	r4, [sp, #0]
10005624:	480f      	ldr	r0, [pc, #60]	@ (10005664 <_ZN11PicoHapticsC1Ev+0x128>)
10005626:	f005 ffc1 	bl	1000b5ac <i2c_write_blocking>
1000562a:	220b      	movs	r2, #11
1000562c:	2302      	movs	r3, #2
1000562e:	f8ad 200c 	strh.w	r2, [sp, #12]
10005632:	215a      	movs	r1, #90	@ 0x5a
10005634:	aa03      	add	r2, sp, #12
10005636:	9400      	str	r4, [sp, #0]
10005638:	480a      	ldr	r0, [pc, #40]	@ (10005664 <_ZN11PicoHapticsC1Ev+0x128>)
1000563a:	f005 ffb7 	bl	1000b5ac <i2c_write_blocking>
1000563e:	f04f 0c0c 	mov.w	ip, #12
10005642:	2302      	movs	r3, #2
10005644:	215a      	movs	r1, #90	@ 0x5a
10005646:	eb0d 020c 	add.w	r2, sp, ip
1000564a:	9400      	str	r4, [sp, #0]
1000564c:	4805      	ldr	r0, [pc, #20]	@ (10005664 <_ZN11PicoHapticsC1Ev+0x128>)
1000564e:	f8ad c00c 	strh.w	ip, [sp, #12]
10005652:	f005 ffab 	bl	1000b5ac <i2c_write_blocking>
10005656:	4628      	mov	r0, r5
10005658:	b005      	add	sp, #20
1000565a:	bd30      	pop	{r4, r5, pc}
1000565c:	10025668 	.word	0x10025668
10005660:	00061a80 	.word	0x00061a80
10005664:	2000134c 	.word	0x2000134c

10005668 <_ZNK9PicoTimer12getDeltaTimeEv>:
10005668:	6980      	ldr	r0, [r0, #24]
1000566a:	4770      	bx	lr

1000566c <_ZNK9PicoTimer8getTicksEv>:
1000566c:	e9d0 0104 	ldrd	r0, r1, [r0, #16]
10005670:	4770      	bx	lr
10005672:	bf00      	nop

10005674 <_ZN9PicoTimerD1Ev>:
10005674:	4770      	bx	lr
10005676:	bf00      	nop

10005678 <_ZN9PicoTimer6updateEv>:
10005678:	b570      	push	{r4, r5, r6, lr}
1000567a:	4604      	mov	r4, r0
1000567c:	f000 fffa 	bl	10006674 <time_us_64>
10005680:	2300      	movs	r3, #0
10005682:	f44f 727a 	mov.w	r2, #1000	@ 0x3e8
10005686:	4605      	mov	r5, r0
10005688:	460e      	mov	r6, r1
1000568a:	f007 ff41 	bl	1000d510 <____aeabi_uldivmod_veneer>
1000568e:	e9c4 0104 	strd	r0, r1, [r4, #16]
10005692:	e9d4 0102 	ldrd	r0, r1, [r4, #8]
10005696:	ea50 0301 	orrs.w	r3, r0, r1
1000569a:	d017      	beq.n	100056cc <_ZN9PicoTimer6updateEv+0x54>
1000569c:	1a28      	subs	r0, r5, r0
1000569e:	eb66 0101 	sbc.w	r1, r6, r1
100056a2:	f001 fc99 	bl	10006fd8 <__wrap___aeabi_ul2f>
100056a6:	eddf 6a0c 	vldr	s13, [pc, #48]	@ 100056d8 <_ZN9PicoTimer6updateEv+0x60>
100056aa:	ee06 0a10 	vmov	s12, r0
100056ae:	eddf 7a0b 	vldr	s15, [pc, #44]	@ 100056dc <_ZN9PicoTimer6updateEv+0x64>
100056b2:	ee86 7a26 	vdiv.f32	s14, s12, s13
100056b6:	eeb4 7ae7 	vcmpe.f32	s14, s15
100056ba:	eef1 fa10 	vmrs	APSR_nzcv, fpscr
100056be:	fe77 7a87 	vselgt.f32	s15, s15, s14
100056c2:	edc4 7a06 	vstr	s15, [r4, #24]
100056c6:	e9c4 5602 	strd	r5, r6, [r4, #8]
100056ca:	bd70      	pop	{r4, r5, r6, pc}
100056cc:	4b04      	ldr	r3, [pc, #16]	@ (100056e0 <_ZN9PicoTimer6updateEv+0x68>)
100056ce:	e9c4 5602 	strd	r5, r6, [r4, #8]
100056d2:	61a3      	str	r3, [r4, #24]
100056d4:	bd70      	pop	{r4, r5, r6, pc}
100056d6:	bf00      	nop
100056d8:	49742400 	.word	0x49742400
100056dc:	3dcccccd 	.word	0x3dcccccd
100056e0:	3c83126f 	.word	0x3c83126f

100056e4 <_ZN9PicoTimerD0Ev>:
100056e4:	b510      	push	{r4, lr}
100056e6:	4604      	mov	r4, r0
100056e8:	2120      	movs	r1, #32
100056ea:	f001 fccb 	bl	10007084 <_ZdlPvj>
100056ee:	4620      	mov	r0, r4
100056f0:	bd10      	pop	{r4, pc}
100056f2:	bf00      	nop
100056f4:	0000      	movs	r0, r0
	...

100056f8 <_ZN9PicoTimerC1Ev>:
100056f8:	ed9f 7b05 	vldr	d7, [pc, #20]	@ 10005710 <_ZN9PicoTimerC1Ev+0x18>
100056fc:	4a06      	ldr	r2, [pc, #24]	@ (10005718 <_ZN9PicoTimerC1Ev+0x20>)
100056fe:	4907      	ldr	r1, [pc, #28]	@ (1000571c <_ZN9PicoTimerC1Ev+0x24>)
10005700:	ed80 7b02 	vstr	d7, [r0, #8]
10005704:	ed80 7b04 	vstr	d7, [r0, #16]
10005708:	6001      	str	r1, [r0, #0]
1000570a:	6182      	str	r2, [r0, #24]
1000570c:	4770      	bx	lr
1000570e:	bf00      	nop
	...
10005718:	3c83126f 	.word	0x3c83126f
1000571c:	10025680 	.word	0x10025680

10005720 <gpio_set_function>:
10005720:	b410      	push	{r4}
10005722:	f44f 7480 	mov.w	r4, #256	@ 0x100
10005726:	4b0c      	ldr	r3, [pc, #48]	@ (10005758 <gpio_set_function+0x38>)
10005728:	f853 2020 	ldr.w	r2, [r3, r0, lsl #2]
1000572c:	eb03 0380 	add.w	r3, r3, r0, lsl #2
10005730:	00c0      	lsls	r0, r0, #3
10005732:	f082 0240 	eor.w	r2, r2, #64	@ 0x40
10005736:	f100 4080 	add.w	r0, r0, #1073741824	@ 0x40000000
1000573a:	f503 5c80 	add.w	ip, r3, #4096	@ 0x1000
1000573e:	f002 02c0 	and.w	r2, r2, #192	@ 0xc0
10005742:	f500 3020 	add.w	r0, r0, #163840	@ 0x28000
10005746:	f503 5340 	add.w	r3, r3, #12288	@ 0x3000
1000574a:	f8cc 2000 	str.w	r2, [ip]
1000574e:	6041      	str	r1, [r0, #4]
10005750:	601c      	str	r4, [r3, #0]
10005752:	f85d 4b04 	ldr.w	r4, [sp], #4
10005756:	4770      	bx	lr
10005758:	40038004 	.word	0x40038004

1000575c <gpio_set_pulls>:
1000575c:	b410      	push	{r4}
1000575e:	4c08      	ldr	r4, [pc, #32]	@ (10005780 <gpio_set_pulls+0x24>)
10005760:	00c9      	lsls	r1, r1, #3
10005762:	ea41 0182 	orr.w	r1, r1, r2, lsl #2
10005766:	f854 2020 	ldr.w	r2, [r4, r0, lsl #2]
1000576a:	eb04 0380 	add.w	r3, r4, r0, lsl #2
1000576e:	4051      	eors	r1, r2
10005770:	f503 5380 	add.w	r3, r3, #4096	@ 0x1000
10005774:	f001 010c 	and.w	r1, r1, #12
10005778:	f85d 4b04 	ldr.w	r4, [sp], #4
1000577c:	6019      	str	r1, [r3, #0]
1000577e:	4770      	bx	lr
10005780:	40038004 	.word	0x40038004

10005784 <gpio_set_input_enabled>:
10005784:	4b06      	ldr	r3, [pc, #24]	@ (100057a0 <gpio_set_input_enabled+0x1c>)
10005786:	2240      	movs	r2, #64	@ 0x40
10005788:	eb03 0380 	add.w	r3, r3, r0, lsl #2
1000578c:	b119      	cbz	r1, 10005796 <gpio_set_input_enabled+0x12>
1000578e:	f503 5300 	add.w	r3, r3, #8192	@ 0x2000
10005792:	601a      	str	r2, [r3, #0]
10005794:	4770      	bx	lr
10005796:	f503 5340 	add.w	r3, r3, #12288	@ 0x3000
1000579a:	601a      	str	r2, [r3, #0]
1000579c:	4770      	bx	lr
1000579e:	bf00      	nop
100057a0:	40038004 	.word	0x40038004

100057a4 <gpio_init>:
100057a4:	b430      	push	{r4, r5}
100057a6:	f04f 0300 	mov.w	r3, #0
100057aa:	ec43 0044 	gpioc_bit_oe_put r0, r3
100057ae:	ec43 0040 	gpioc_bit_out_put r0, r3
100057b2:	2505      	movs	r5, #5
100057b4:	f44f 7480 	mov.w	r4, #256	@ 0x100
100057b8:	4b0b      	ldr	r3, [pc, #44]	@ (100057e8 <gpio_init+0x44>)
100057ba:	00c2      	lsls	r2, r0, #3
100057bc:	f853 1020 	ldr.w	r1, [r3, r0, lsl #2]
100057c0:	eb03 0080 	add.w	r0, r3, r0, lsl #2
100057c4:	f081 0140 	eor.w	r1, r1, #64	@ 0x40
100057c8:	f102 4380 	add.w	r3, r2, #1073741824	@ 0x40000000
100057cc:	f503 3320 	add.w	r3, r3, #163840	@ 0x28000
100057d0:	f001 02c0 	and.w	r2, r1, #192	@ 0xc0
100057d4:	f500 5180 	add.w	r1, r0, #4096	@ 0x1000
100057d8:	f500 5040 	add.w	r0, r0, #12288	@ 0x3000
100057dc:	600a      	str	r2, [r1, #0]
100057de:	605d      	str	r5, [r3, #4]
100057e0:	6004      	str	r4, [r0, #0]
100057e2:	bc30      	pop	{r4, r5}
100057e4:	4770      	bx	lr
100057e6:	bf00      	nop
100057e8:	40038004 	.word	0x40038004

100057ec <panic>:
100057ec:	b40f      	push	{r0, r1, r2, r3}
100057ee:	b500      	push	{lr}
100057f0:	b083      	sub	sp, #12
100057f2:	9c04      	ldr	r4, [sp, #16]
100057f4:	4807      	ldr	r0, [pc, #28]	@ (10005814 <panic+0x28>)
100057f6:	f003 f965 	bl	10008ac4 <__wrap_puts>
100057fa:	b13c      	cbz	r4, 1000580c <panic+0x20>
100057fc:	a905      	add	r1, sp, #20
100057fe:	4620      	mov	r0, r4
10005800:	9101      	str	r1, [sp, #4]
10005802:	f002 ffbf 	bl	10008784 <weak_raw_vprintf>
10005806:	4804      	ldr	r0, [pc, #16]	@ (10005818 <panic+0x2c>)
10005808:	f003 f95c 	bl	10008ac4 <__wrap_puts>
1000580c:	2001      	movs	r0, #1
1000580e:	f002 ffd1 	bl	100087b4 <_exit>
10005812:	bf00      	nop
10005814:	1000d978 	.word	0x1000d978
10005818:	1000d988 	.word	0x1000d988

1000581c <hw_claim_or_assert>:
1000581c:	b570      	push	{r4, r5, r6, lr}
1000581e:	4686      	mov	lr, r0
10005820:	f3ef 8510 	mrs	r5, PRIMASK
10005824:	b672      	cpsid	i
10005826:	4c12      	ldr	r4, [pc, #72]	@ (10005870 <hw_claim_or_assert+0x54>)
10005828:	e8d4 6fcf 	ldaexb	r6, [r4]
1000582c:	2001      	movs	r0, #1
1000582e:	2e00      	cmp	r6, #0
10005830:	d1fa      	bne.n	10005828 <hw_claim_or_assert+0xc>
10005832:	e8c4 0f46 	strexb	r6, r0, [r4]
10005836:	2e00      	cmp	r6, #0
10005838:	d1f6      	bne.n	10005828 <hw_claim_or_assert+0xc>
1000583a:	f3bf 8f5f 	dmb	sy
1000583e:	f04f 0c01 	mov.w	ip, #1
10005842:	08c8      	lsrs	r0, r1, #3
10005844:	f001 0307 	and.w	r3, r1, #7
10005848:	fa0c f303 	lsl.w	r3, ip, r3
1000584c:	f81e c000 	ldrb.w	ip, [lr, r0]
10005850:	ea1c 0603 	ands.w	r6, ip, r3
10005854:	d108      	bne.n	10005868 <hw_claim_or_assert+0x4c>
10005856:	ea4c 0c03 	orr.w	ip, ip, r3
1000585a:	f80e c000 	strb.w	ip, [lr, r0]
1000585e:	e8c4 6f8f 	stlb	r6, [r4]
10005862:	f385 8810 	msr	PRIMASK, r5
10005866:	bd70      	pop	{r4, r5, r6, pc}
10005868:	4610      	mov	r0, r2
1000586a:	f7ff ffbf 	bl	100057ec <panic>
1000586e:	bf00      	nop
10005870:	20001d63 	.word	0x20001d63

10005874 <hw_claim_unused_from_range>:
10005874:	b5f8      	push	{r3, r4, r5, r6, r7, lr}
10005876:	f3ef 8710 	mrs	r7, PRIMASK
1000587a:	b672      	cpsid	i
1000587c:	4e1c      	ldr	r6, [pc, #112]	@ (100058f0 <hw_claim_unused_from_range+0x7c>)
1000587e:	e8d6 5fcf 	ldaexb	r5, [r6]
10005882:	2401      	movs	r4, #1
10005884:	2d00      	cmp	r5, #0
10005886:	d1fa      	bne.n	1000587e <hw_claim_unused_from_range+0xa>
10005888:	e8c6 4f45 	strexb	r5, r4, [r6]
1000588c:	2d00      	cmp	r5, #0
1000588e:	d1f6      	bne.n	1000587e <hw_claim_unused_from_range+0xa>
10005890:	f3bf 8f5f 	dmb	sy
10005894:	429a      	cmp	r2, r3
10005896:	d81b      	bhi.n	100058d0 <hw_claim_unused_from_range+0x5c>
10005898:	2501      	movs	r5, #1
1000589a:	e002      	b.n	100058a2 <hw_claim_unused_from_range+0x2e>
1000589c:	3201      	adds	r2, #1
1000589e:	4293      	cmp	r3, r2
100058a0:	d322      	bcc.n	100058e8 <hw_claim_unused_from_range+0x74>
100058a2:	08d4      	lsrs	r4, r2, #3
100058a4:	f810 e004 	ldrb.w	lr, [r0, r4]
100058a8:	f002 0c07 	and.w	ip, r2, #7
100058ac:	fa05 fc0c 	lsl.w	ip, r5, ip
100058b0:	ea1e 0f0c 	tst.w	lr, ip
100058b4:	d1f2      	bne.n	1000589c <hw_claim_unused_from_range+0x28>
100058b6:	ea4e 0e0c 	orr.w	lr, lr, ip
100058ba:	f800 e004 	strb.w	lr, [r0, r4]
100058be:	4610      	mov	r0, r2
100058c0:	2300      	movs	r3, #0
100058c2:	e8c6 3f8f 	stlb	r3, [r6]
100058c6:	f387 8810 	msr	PRIMASK, r7
100058ca:	4298      	cmp	r0, r3
100058cc:	db07      	blt.n	100058de <hw_claim_unused_from_range+0x6a>
100058ce:	bdf8      	pop	{r3, r4, r5, r6, r7, pc}
100058d0:	2300      	movs	r3, #0
100058d2:	e8c6 3f8f 	stlb	r3, [r6]
100058d6:	f387 8810 	msr	PRIMASK, r7
100058da:	f04f 30ff 	mov.w	r0, #4294967295
100058de:	2900      	cmp	r1, #0
100058e0:	d0f5      	beq.n	100058ce <hw_claim_unused_from_range+0x5a>
100058e2:	9806      	ldr	r0, [sp, #24]
100058e4:	f7ff ff82 	bl	100057ec <panic>
100058e8:	f04f 30ff 	mov.w	r0, #4294967295
100058ec:	e7e8      	b.n	100058c0 <hw_claim_unused_from_range+0x4c>
100058ee:	bf00      	nop
100058f0:	20001d63 	.word	0x20001d63

100058f4 <hw_claim_clear>:
100058f4:	b500      	push	{lr}
100058f6:	f3ef 8e10 	mrs	lr, PRIMASK
100058fa:	b672      	cpsid	i
100058fc:	4b10      	ldr	r3, [pc, #64]	@ (10005940 <hw_claim_clear+0x4c>)
100058fe:	e8d3 cfcf 	ldaexb	ip, [r3]
10005902:	2201      	movs	r2, #1
10005904:	f1bc 0f00 	cmp.w	ip, #0
10005908:	d1f9      	bne.n	100058fe <hw_claim_clear+0xa>
1000590a:	e8c3 2f4c 	strexb	ip, r2, [r3]
1000590e:	f1bc 0f00 	cmp.w	ip, #0
10005912:	d1f4      	bne.n	100058fe <hw_claim_clear+0xa>
10005914:	f3bf 8f5f 	dmb	sy
10005918:	2201      	movs	r2, #1
1000591a:	ea4f 0cd1 	mov.w	ip, r1, lsr #3
1000591e:	f001 0107 	and.w	r1, r1, #7
10005922:	fa02 f101 	lsl.w	r1, r2, r1
10005926:	f810 200c 	ldrb.w	r2, [r0, ip]
1000592a:	ea22 0201 	bic.w	r2, r2, r1
1000592e:	f800 200c 	strb.w	r2, [r0, ip]
10005932:	2200      	movs	r2, #0
10005934:	e8c3 2f8f 	stlb	r2, [r3]
10005938:	f38e 8810 	msr	PRIMASK, lr
1000593c:	f85d fb04 	ldr.w	pc, [sp], #4
10005940:	20001d63 	.word	0x20001d63

10005944 <next_striped_spin_lock_num>:
10005944:	4a04      	ldr	r2, [pc, #16]	@ (10005958 <next_striped_spin_lock_num+0x14>)
10005946:	7810      	ldrb	r0, [r2, #0]
10005948:	1c43      	adds	r3, r0, #1
1000594a:	b2db      	uxtb	r3, r3
1000594c:	2b18      	cmp	r3, #24
1000594e:	bf28      	it	cs
10005950:	2310      	movcs	r3, #16
10005952:	7013      	strb	r3, [r2, #0]
10005954:	4770      	bx	lr
10005956:	bf00      	nop
10005958:	200012b0 	.word	0x200012b0

1000595c <spin_lock_claim_unused>:
1000595c:	b510      	push	{r4, lr}
1000595e:	4c05      	ldr	r4, [pc, #20]	@ (10005974 <spin_lock_claim_unused+0x18>)
10005960:	b082      	sub	sp, #8
10005962:	4601      	mov	r1, r0
10005964:	231f      	movs	r3, #31
10005966:	2218      	movs	r2, #24
10005968:	9400      	str	r4, [sp, #0]
1000596a:	4803      	ldr	r0, [pc, #12]	@ (10005978 <spin_lock_claim_unused+0x1c>)
1000596c:	f7ff ff82 	bl	10005874 <hw_claim_unused_from_range>
10005970:	b002      	add	sp, #8
10005972:	bd10      	pop	{r4, pc}
10005974:	1000d98c 	.word	0x1000d98c
10005978:	20002174 	.word	0x20002174

1000597c <spinlock_set_extexclall>:
1000597c:	f04f 22e0 	mov.w	r2, #3758153728	@ 0xe000e000
10005980:	6893      	ldr	r3, [r2, #8]
10005982:	f043 5300 	orr.w	r3, r3, #536870912	@ 0x20000000
10005986:	6093      	str	r3, [r2, #8]
10005988:	4770      	bx	lr
1000598a:	bf00      	nop

1000598c <spin_locks_reset>:
1000598c:	2100      	movs	r1, #0
1000598e:	4b04      	ldr	r3, [pc, #16]	@ (100059a0 <spin_locks_reset+0x14>)
10005990:	f103 0220 	add.w	r2, r3, #32
10005994:	e8c3 1f8f 	stlb	r1, [r3]
10005998:	3301      	adds	r3, #1
1000599a:	4293      	cmp	r3, r2
1000599c:	d1fa      	bne.n	10005994 <spin_locks_reset+0x8>
1000599e:	4770      	bx	lr
100059a0:	20001d58 	.word	0x20001d58

100059a4 <runtime_init_per_core_irq_priorities>:
100059a4:	f04f 23e0 	mov.w	r3, #3758153728	@ 0xe000e000
100059a8:	f04f 3280 	mov.w	r2, #2155905152	@ 0x80808080
100059ac:	f8c3 2400 	str.w	r2, [r3, #1024]	@ 0x400
100059b0:	f8c3 2404 	str.w	r2, [r3, #1028]	@ 0x404
100059b4:	f8c3 2408 	str.w	r2, [r3, #1032]	@ 0x408
100059b8:	f8c3 240c 	str.w	r2, [r3, #1036]	@ 0x40c
100059bc:	f8c3 2410 	str.w	r2, [r3, #1040]	@ 0x410
100059c0:	f8c3 2414 	str.w	r2, [r3, #1044]	@ 0x414
100059c4:	f8c3 2418 	str.w	r2, [r3, #1048]	@ 0x418
100059c8:	f8c3 241c 	str.w	r2, [r3, #1052]	@ 0x41c
100059cc:	f8c3 2420 	str.w	r2, [r3, #1056]	@ 0x420
100059d0:	f8c3 2424 	str.w	r2, [r3, #1060]	@ 0x424
100059d4:	f8c3 2428 	str.w	r2, [r3, #1064]	@ 0x428
100059d8:	f8c3 242c 	str.w	r2, [r3, #1068]	@ 0x42c
100059dc:	f8c3 2430 	str.w	r2, [r3, #1072]	@ 0x430
100059e0:	b662      	cpsie	i
100059e2:	4770      	bx	lr

100059e4 <irq_set_enabled>:
100059e4:	2301      	movs	r3, #1
100059e6:	f000 021f 	and.w	r2, r0, #31
100059ea:	4093      	lsls	r3, r2
100059ec:	0940      	lsrs	r0, r0, #5
100059ee:	b141      	cbz	r1, 10005a02 <irq_set_enabled+0x1e>
100059f0:	0080      	lsls	r0, r0, #2
100059f2:	f100 4060 	add.w	r0, r0, #3758096384	@ 0xe0000000
100059f6:	f500 4061 	add.w	r0, r0, #57600	@ 0xe100
100059fa:	f8c0 3180 	str.w	r3, [r0, #384]	@ 0x180
100059fe:	6003      	str	r3, [r0, #0]
10005a00:	4770      	bx	lr
10005a02:	4a02      	ldr	r2, [pc, #8]	@ (10005a0c <irq_set_enabled+0x28>)
10005a04:	3020      	adds	r0, #32
10005a06:	f842 3020 	str.w	r3, [r2, r0, lsl #2]
10005a0a:	4770      	bx	lr
10005a0c:	e000e100 	.word	0xe000e100

10005a10 <irq_is_enabled>:
10005a10:	2301      	movs	r3, #1
10005a12:	4a06      	ldr	r2, [pc, #24]	@ (10005a2c <irq_is_enabled+0x1c>)
10005a14:	0941      	lsrs	r1, r0, #5
10005a16:	f852 2021 	ldr.w	r2, [r2, r1, lsl #2]
10005a1a:	f000 001f 	and.w	r0, r0, #31
10005a1e:	fa03 f000 	lsl.w	r0, r3, r0
10005a22:	4010      	ands	r0, r2
10005a24:	3800      	subs	r0, #0
10005a26:	bf18      	it	ne
10005a28:	2001      	movne	r0, #1
10005a2a:	4770      	bx	lr
10005a2c:	e000e100 	.word	0xe000e100

10005a30 <irq_set_pending>:
10005a30:	2201      	movs	r2, #1
10005a32:	0943      	lsrs	r3, r0, #5
10005a34:	4903      	ldr	r1, [pc, #12]	@ (10005a44 <irq_set_pending+0x14>)
10005a36:	f000 001f 	and.w	r0, r0, #31
10005a3a:	4082      	lsls	r2, r0
10005a3c:	3340      	adds	r3, #64	@ 0x40
10005a3e:	f841 2023 	str.w	r2, [r1, r3, lsl #2]
10005a42:	4770      	bx	lr
10005a44:	e000e100 	.word	0xe000e100

10005a48 <irq_has_shared_handler>:
10005a48:	4a05      	ldr	r2, [pc, #20]	@ (10005a60 <irq_has_shared_handler+0x18>)
10005a4a:	3010      	adds	r0, #16
10005a4c:	6892      	ldr	r2, [r2, #8]
10005a4e:	4b05      	ldr	r3, [pc, #20]	@ (10005a64 <irq_has_shared_handler+0x1c>)
10005a50:	f852 0020 	ldr.w	r0, [r2, r0, lsl #2]
10005a54:	1ac0      	subs	r0, r0, r3
10005a56:	282f      	cmp	r0, #47	@ 0x2f
10005a58:	bf8c      	ite	hi
10005a5a:	2000      	movhi	r0, #0
10005a5c:	2001      	movls	r0, #1
10005a5e:	4770      	bx	lr
10005a60:	e000ed00 	.word	0xe000ed00
10005a64:	200012b4 	.word	0x200012b4

10005a68 <irq_set_exclusive_handler>:
10005a68:	b5f8      	push	{r3, r4, r5, r6, r7, lr}
10005a6a:	460d      	mov	r5, r1
10005a6c:	f3ef 8710 	mrs	r7, PRIMASK
10005a70:	b672      	cpsid	i
10005a72:	4e12      	ldr	r6, [pc, #72]	@ (10005abc <irq_set_exclusive_handler+0x54>)
10005a74:	e8d6 2fcf 	ldaexb	r2, [r6]
10005a78:	2301      	movs	r3, #1
10005a7a:	2a00      	cmp	r2, #0
10005a7c:	d1fa      	bne.n	10005a74 <irq_set_exclusive_handler+0xc>
10005a7e:	e8c6 3f42 	strexb	r2, r3, [r6]
10005a82:	2a00      	cmp	r2, #0
10005a84:	d1f6      	bne.n	10005a74 <irq_set_exclusive_handler+0xc>
10005a86:	f3bf 8f5f 	dmb	sy
10005a8a:	4b0d      	ldr	r3, [pc, #52]	@ (10005ac0 <irq_set_exclusive_handler+0x58>)
10005a8c:	f100 0410 	add.w	r4, r0, #16
10005a90:	689b      	ldr	r3, [r3, #8]
10005a92:	4a0c      	ldr	r2, [pc, #48]	@ (10005ac4 <irq_set_exclusive_handler+0x5c>)
10005a94:	f853 3024 	ldr.w	r3, [r3, r4, lsl #2]
10005a98:	4293      	cmp	r3, r2
10005a9a:	d003      	beq.n	10005aa4 <irq_set_exclusive_handler+0x3c>
10005a9c:	4299      	cmp	r1, r3
10005a9e:	d001      	beq.n	10005aa4 <irq_set_exclusive_handler+0x3c>
10005aa0:	f000 ff76 	bl	10006990 <hard_assertion_failure>
10005aa4:	4b06      	ldr	r3, [pc, #24]	@ (10005ac0 <irq_set_exclusive_handler+0x58>)
10005aa6:	689b      	ldr	r3, [r3, #8]
10005aa8:	f843 5024 	str.w	r5, [r3, r4, lsl #2]
10005aac:	f3bf 8f5f 	dmb	sy
10005ab0:	2300      	movs	r3, #0
10005ab2:	e8c6 3f8f 	stlb	r3, [r6]
10005ab6:	f387 8810 	msr	PRIMASK, r7
10005aba:	bdf8      	pop	{r3, r4, r5, r6, r7, pc}
10005abc:	20001d61 	.word	0x20001d61
10005ac0:	e000ed00 	.word	0xe000ed00
10005ac4:	10000111 	.word	0x10000111

10005ac8 <irq_add_shared_handler>:
10005ac8:	e92d 4ff0 	stmdb	sp!, {r4, r5, r6, r7, r8, r9, sl, fp, lr}
10005acc:	4681      	mov	r9, r0
10005ace:	468b      	mov	fp, r1
10005ad0:	4616      	mov	r6, r2
10005ad2:	b083      	sub	sp, #12
10005ad4:	f3ef 8310 	mrs	r3, PRIMASK
10005ad8:	b672      	cpsid	i
10005ada:	f8df a1d0 	ldr.w	sl, [pc, #464]	@ 10005cac <irq_add_shared_handler+0x1e4>
10005ade:	9300      	str	r3, [sp, #0]
10005ae0:	e8da 1fcf 	ldaexb	r1, [sl]
10005ae4:	2301      	movs	r3, #1
10005ae6:	2900      	cmp	r1, #0
10005ae8:	d1fa      	bne.n	10005ae0 <irq_add_shared_handler+0x18>
10005aea:	e8ca 3f41 	strexb	r1, r3, [sl]
10005aee:	2900      	cmp	r1, #0
10005af0:	d1f6      	bne.n	10005ae0 <irq_add_shared_handler+0x18>
10005af2:	f3bf 8f5f 	dmb	sy
10005af6:	4b66      	ldr	r3, [pc, #408]	@ (10005c90 <irq_add_shared_handler+0x1c8>)
10005af8:	f993 4000 	ldrsb.w	r4, [r3]
10005afc:	2c00      	cmp	r4, #0
10005afe:	f2c0 80a0 	blt.w	10005c42 <irq_add_shared_handler+0x17a>
10005b02:	4d64      	ldr	r5, [pc, #400]	@ (10005c94 <irq_add_shared_handler+0x1cc>)
10005b04:	eb04 0744 	add.w	r7, r4, r4, lsl #1
10005b08:	eb05 0887 	add.w	r8, r5, r7, lsl #2
10005b0c:	f898 1006 	ldrb.w	r1, [r8, #6]
10005b10:	f109 0910 	add.w	r9, r9, #16
10005b14:	7019      	strb	r1, [r3, #0]
10005b16:	4b60      	ldr	r3, [pc, #384]	@ (10005c98 <irq_add_shared_handler+0x1d0>)
10005b18:	00bf      	lsls	r7, r7, #2
10005b1a:	689b      	ldr	r3, [r3, #8]
10005b1c:	f853 0029 	ldr.w	r0, [r3, r9, lsl #2]
10005b20:	0063      	lsls	r3, r4, #1
10005b22:	1b41      	subs	r1, r0, r5
10005b24:	292f      	cmp	r1, #47	@ 0x2f
10005b26:	d92f      	bls.n	10005b88 <irq_add_shared_handler+0xc0>
10005b28:	495c      	ldr	r1, [pc, #368]	@ (10005c9c <irq_add_shared_handler+0x1d4>)
10005b2a:	4288      	cmp	r0, r1
10005b2c:	f040 80a4 	bne.w	10005c78 <irq_add_shared_handler+0x1b0>
10005b30:	441c      	add	r4, r3
10005b32:	4b5b      	ldr	r3, [pc, #364]	@ (10005ca0 <irq_add_shared_handler+0x1d8>)
10005b34:	3702      	adds	r7, #2
10005b36:	442f      	add	r7, r5
10005b38:	3b04      	subs	r3, #4
10005b3a:	1bdb      	subs	r3, r3, r7
10005b3c:	f3c3 034a 	ubfx	r3, r3, #1, #11
10005b40:	ea6f 43c3 	mvn.w	r3, r3, lsl #19
10005b44:	f44f 4121 	mov.w	r1, #41216	@ 0xa100
10005b48:	ea6f 43d3 	mvn.w	r3, r3, lsr #19
10005b4c:	f825 1024 	strh.w	r1, [r5, r4, lsl #2]
10005b50:	eb05 0484 	add.w	r4, r5, r4, lsl #2
10005b54:	8063      	strh	r3, [r4, #2]
10005b56:	f64b 5301 	movw	r3, #48385	@ 0xbd01
10005b5a:	80a3      	strh	r3, [r4, #4]
10005b5c:	23ff      	movs	r3, #255	@ 0xff
10005b5e:	f048 0001 	orr.w	r0, r8, #1
10005b62:	71e6      	strb	r6, [r4, #7]
10005b64:	f8c4 b008 	str.w	fp, [r4, #8]
10005b68:	71a3      	strb	r3, [r4, #6]
10005b6a:	4b4b      	ldr	r3, [pc, #300]	@ (10005c98 <irq_add_shared_handler+0x1d0>)
10005b6c:	689b      	ldr	r3, [r3, #8]
10005b6e:	f843 0029 	str.w	r0, [r3, r9, lsl #2]
10005b72:	f3bf 8f5f 	dmb	sy
10005b76:	2300      	movs	r3, #0
10005b78:	e8ca 3f8f 	stlb	r3, [sl]
10005b7c:	9b00      	ldr	r3, [sp, #0]
10005b7e:	f383 8810 	msr	PRIMASK, r3
10005b82:	b003      	add	sp, #12
10005b84:	e8bd 8ff0 	ldmia.w	sp!, {r4, r5, r6, r7, r8, r9, sl, fp, pc}
10005b88:	f020 0e01 	bic.w	lr, r0, #1
10005b8c:	f89e 1007 	ldrb.w	r1, [lr, #7]
10005b90:	42b1      	cmp	r1, r6
10005b92:	d82e      	bhi.n	10005bf2 <irq_add_shared_handler+0x12a>
10005b94:	f44f 4321 	mov.w	r3, #41216	@ 0xa100
10005b98:	53eb      	strh	r3, [r5, r7]
10005b9a:	4b41      	ldr	r3, [pc, #260]	@ (10005ca0 <irq_add_shared_handler+0x1d8>)
10005b9c:	1cb9      	adds	r1, r7, #2
10005b9e:	4429      	add	r1, r5
10005ba0:	3b04      	subs	r3, #4
10005ba2:	3704      	adds	r7, #4
10005ba4:	1a5b      	subs	r3, r3, r1
10005ba6:	442f      	add	r7, r5
10005ba8:	f1ae 0104 	sub.w	r1, lr, #4
10005bac:	1bc9      	subs	r1, r1, r7
10005bae:	f3c1 044a 	ubfx	r4, r1, #1, #11
10005bb2:	493c      	ldr	r1, [pc, #240]	@ (10005ca4 <irq_add_shared_handler+0x1dc>)
10005bb4:	f3c3 034a 	ubfx	r3, r3, #1, #11
10005bb8:	430b      	orrs	r3, r1
10005bba:	4321      	orrs	r1, r4
10005bbc:	f8a8 1004 	strh.w	r1, [r8, #4]
10005bc0:	4939      	ldr	r1, [pc, #228]	@ (10005ca8 <irq_add_shared_handler+0x1e0>)
10005bc2:	f8a8 3002 	strh.w	r3, [r8, #2]
10005bc6:	f64a 20aa 	movw	r0, #43690	@ 0xaaaa
10005bca:	4673      	mov	r3, lr
10005bcc:	1b5b      	subs	r3, r3, r5
10005bce:	415b      	adcs	r3, r3
10005bd0:	4358      	muls	r0, r3
10005bd2:	0d00      	lsrs	r0, r0, #20
10005bd4:	f888 6007 	strb.w	r6, [r8, #7]
10005bd8:	f888 0006 	strb.w	r0, [r8, #6]
10005bdc:	f8c8 b008 	str.w	fp, [r8, #8]
10005be0:	f048 0001 	orr.w	r0, r8, #1
10005be4:	f8ce 1000 	str.w	r1, [lr]
10005be8:	e7bf      	b.n	10005b6a <irq_add_shared_handler+0xa2>
10005bea:	79d1      	ldrb	r1, [r2, #7]
10005bec:	42b1      	cmp	r1, r6
10005bee:	d92e      	bls.n	10005c4e <irq_add_shared_handler+0x186>
10005bf0:	4696      	mov	lr, r2
10005bf2:	f99e c006 	ldrsb.w	ip, [lr, #6]
10005bf6:	eb0c 024c 	add.w	r2, ip, ip, lsl #1
10005bfa:	f1bc 0f00 	cmp.w	ip, #0
10005bfe:	eb05 0282 	add.w	r2, r5, r2, lsl #2
10005c02:	daf2      	bge.n	10005bea <irq_add_shared_handler+0x122>
10005c04:	f64b 5101 	movw	r1, #48385	@ 0xbd01
10005c08:	f10e 0204 	add.w	r2, lr, #4
10005c0c:	f1a8 0704 	sub.w	r7, r8, #4
10005c10:	1abf      	subs	r7, r7, r2
10005c12:	f3c7 074a 	ubfx	r7, r7, #1, #11
10005c16:	ea6f 47c7 	mvn.w	r7, r7, lsl #19
10005c1a:	ea6f 47d7 	mvn.w	r7, r7, lsr #19
10005c1e:	f88e 4006 	strb.w	r4, [lr, #6]
10005c22:	eb03 0804 	add.w	r8, r3, r4
10005c26:	4c20      	ldr	r4, [pc, #128]	@ (10005ca8 <irq_add_shared_handler+0x1e0>)
10005c28:	eb05 0388 	add.w	r3, r5, r8, lsl #2
10005c2c:	f8ae 7004 	strh.w	r7, [lr, #4]
10005c30:	f845 4028 	str.w	r4, [r5, r8, lsl #2]
10005c34:	8099      	strh	r1, [r3, #4]
10005c36:	f883 c006 	strb.w	ip, [r3, #6]
10005c3a:	71de      	strb	r6, [r3, #7]
10005c3c:	f8c3 b008 	str.w	fp, [r3, #8]
10005c40:	e793      	b.n	10005b6a <irq_add_shared_handler+0xa2>
10005c42:	f000 fea5 	bl	10006990 <hard_assertion_failure>
10005c46:	4b12      	ldr	r3, [pc, #72]	@ (10005c90 <irq_add_shared_handler+0x1c8>)
10005c48:	f993 4000 	ldrsb.w	r4, [r3]
10005c4c:	e759      	b.n	10005b02 <irq_add_shared_handler+0x3a>
10005c4e:	4672      	mov	r2, lr
10005c50:	f832 1f04 	ldrh.w	r1, [r2, #4]!
10005c54:	0549      	lsls	r1, r1, #21
10005c56:	d414      	bmi.n	10005c82 <irq_add_shared_handler+0x1ba>
10005c58:	1549      	asrs	r1, r1, #21
10005c5a:	3102      	adds	r1, #2
10005c5c:	eb02 0141 	add.w	r1, r2, r1, lsl #1
10005c60:	9101      	str	r1, [sp, #4]
10005c62:	f06f 0107 	mvn.w	r1, #7
10005c66:	1bc9      	subs	r1, r1, r7
10005c68:	9f01      	ldr	r7, [sp, #4]
10005c6a:	1b49      	subs	r1, r1, r5
10005c6c:	4439      	add	r1, r7
10005c6e:	f3c1 014a 	ubfx	r1, r1, #1, #11
10005c72:	f441 4160 	orr.w	r1, r1, #57344	@ 0xe000
10005c76:	e7c9      	b.n	10005c0c <irq_add_shared_handler+0x144>
10005c78:	9301      	str	r3, [sp, #4]
10005c7a:	f000 fe89 	bl	10006990 <hard_assertion_failure>
10005c7e:	9b01      	ldr	r3, [sp, #4]
10005c80:	e756      	b.n	10005b30 <irq_add_shared_handler+0x68>
10005c82:	f501 11ff 	add.w	r1, r1, #2088960	@ 0x1fe000
10005c86:	f501 51ff 	add.w	r1, r1, #8160	@ 0x1fe0
10005c8a:	311f      	adds	r1, #31
10005c8c:	e7e4      	b.n	10005c58 <irq_add_shared_handler+0x190>
10005c8e:	bf00      	nop
10005c90:	20002657 	.word	0x20002657
10005c94:	200012b4 	.word	0x200012b4
10005c98:	e000ed00 	.word	0xe000ed00
10005c9c:	10000111 	.word	0x10000111
10005ca0:	200012e4 	.word	0x200012e4
10005ca4:	ffffe000 	.word	0xffffe000
10005ca8:	47804801 	.word	0x47804801
10005cac:	20001d61 	.word	0x20001d61

10005cb0 <irq_add_tail_to_free_list>:
10005cb0:	b5f0      	push	{r4, r5, r6, r7, lr}
10005cb2:	f3ef 8505 	mrs	r5, IPSR
10005cb6:	b2ed      	uxtb	r5, r5
10005cb8:	f3ef 8c10 	mrs	ip, PRIMASK
10005cbc:	b672      	cpsid	i
10005cbe:	4926      	ldr	r1, [pc, #152]	@ (10005d58 <irq_add_tail_to_free_list+0xa8>)
10005cc0:	e8d1 2fcf 	ldaexb	r2, [r1]
10005cc4:	2301      	movs	r3, #1
10005cc6:	2a00      	cmp	r2, #0
10005cc8:	d1fa      	bne.n	10005cc0 <irq_add_tail_to_free_list+0x10>
10005cca:	e8c1 3f42 	strexb	r2, r3, [r1]
10005cce:	2a00      	cmp	r2, #0
10005cd0:	d1f6      	bne.n	10005cc0 <irq_add_tail_to_free_list+0x10>
10005cd2:	f3bf 8f5f 	dmb	sy
10005cd6:	4e21      	ldr	r6, [pc, #132]	@ (10005d5c <irq_add_tail_to_free_list+0xac>)
10005cd8:	f040 0e01 	orr.w	lr, r0, #1
10005cdc:	68b4      	ldr	r4, [r6, #8]
10005cde:	f64a 23aa 	movw	r3, #43690	@ 0xaaaa
10005ce2:	f854 7025 	ldr.w	r7, [r4, r5, lsl #2]
10005ce6:	4a1e      	ldr	r2, [pc, #120]	@ (10005d60 <irq_add_tail_to_free_list+0xb0>)
10005ce8:	4604      	mov	r4, r0
10005cea:	1aa4      	subs	r4, r4, r2
10005cec:	4164      	adcs	r4, r4
10005cee:	4363      	muls	r3, r4
10005cf0:	0d1b      	lsrs	r3, r3, #20
10005cf2:	4577      	cmp	r7, lr
10005cf4:	b25b      	sxtb	r3, r3
10005cf6:	d01b      	beq.n	10005d30 <irq_add_tail_to_free_list+0x80>
10005cf8:	f992 4006 	ldrsb.w	r4, [r2, #6]
10005cfc:	429c      	cmp	r4, r3
10005cfe:	d01c      	beq.n	10005d3a <irq_add_tail_to_free_list+0x8a>
10005d00:	f992 4012 	ldrsb.w	r4, [r2, #18]
10005d04:	429c      	cmp	r4, r3
10005d06:	d023      	beq.n	10005d50 <irq_add_tail_to_free_list+0xa0>
10005d08:	f992 401e 	ldrsb.w	r4, [r2, #30]
10005d0c:	429c      	cmp	r4, r3
10005d0e:	d021      	beq.n	10005d54 <irq_add_tail_to_free_list+0xa4>
10005d10:	f992 402a 	ldrsb.w	r4, [r2, #42]	@ 0x2a
10005d14:	429c      	cmp	r4, r3
10005d16:	bf08      	it	eq
10005d18:	2403      	moveq	r4, #3
10005d1a:	d00f      	beq.n	10005d3c <irq_add_tail_to_free_list+0x8c>
10005d1c:	4a11      	ldr	r2, [pc, #68]	@ (10005d64 <irq_add_tail_to_free_list+0xb4>)
10005d1e:	2400      	movs	r4, #0
10005d20:	7815      	ldrb	r5, [r2, #0]
10005d22:	7013      	strb	r3, [r2, #0]
10005d24:	7185      	strb	r5, [r0, #6]
10005d26:	e8c1 4f8f 	stlb	r4, [r1]
10005d2a:	f38c 8810 	msr	PRIMASK, ip
10005d2e:	bdf0      	pop	{r4, r5, r6, r7, pc}
10005d30:	68b2      	ldr	r2, [r6, #8]
10005d32:	4c0d      	ldr	r4, [pc, #52]	@ (10005d68 <irq_add_tail_to_free_list+0xb8>)
10005d34:	f842 4025 	str.w	r4, [r2, r5, lsl #2]
10005d38:	e7f0      	b.n	10005d1c <irq_add_tail_to_free_list+0x6c>
10005d3a:	2400      	movs	r4, #0
10005d3c:	eb04 0444 	add.w	r4, r4, r4, lsl #1
10005d40:	eb02 0284 	add.w	r2, r2, r4, lsl #2
10005d44:	24ff      	movs	r4, #255	@ 0xff
10005d46:	7194      	strb	r4, [r2, #6]
10005d48:	f64b 5401 	movw	r4, #48385	@ 0xbd01
10005d4c:	8094      	strh	r4, [r2, #4]
10005d4e:	e7e5      	b.n	10005d1c <irq_add_tail_to_free_list+0x6c>
10005d50:	2401      	movs	r4, #1
10005d52:	e7f3      	b.n	10005d3c <irq_add_tail_to_free_list+0x8c>
10005d54:	2402      	movs	r4, #2
10005d56:	e7f1      	b.n	10005d3c <irq_add_tail_to_free_list+0x8c>
10005d58:	20001d61 	.word	0x20001d61
10005d5c:	e000ed00 	.word	0xe000ed00
10005d60:	200012b4 	.word	0x200012b4
10005d64:	20002657 	.word	0x20002657
10005d68:	10000111 	.word	0x10000111

10005d6c <user_irq_claim_unused>:
10005d6c:	b510      	push	{r4, lr}
10005d6e:	4c07      	ldr	r4, [pc, #28]	@ (10005d8c <user_irq_claim_unused+0x20>)
10005d70:	b082      	sub	sp, #8
10005d72:	4601      	mov	r1, r0
10005d74:	2305      	movs	r3, #5
10005d76:	2200      	movs	r2, #0
10005d78:	9400      	str	r4, [sp, #0]
10005d7a:	4805      	ldr	r0, [pc, #20]	@ (10005d90 <user_irq_claim_unused+0x24>)
10005d7c:	f7ff fd7a 	bl	10005874 <hw_claim_unused_from_range>
10005d80:	2800      	cmp	r0, #0
10005d82:	bfa8      	it	ge
10005d84:	f1c0 0033 	rsbge	r0, r0, #51	@ 0x33
10005d88:	b002      	add	sp, #8
10005d8a:	bd10      	pop	{r4, pc}
10005d8c:	1000d9a8 	.word	0x1000d9a8
10005d90:	2000265b 	.word	0x2000265b

10005d94 <lock_init>:
10005d94:	4b01      	ldr	r3, [pc, #4]	@ (10005d9c <lock_init+0x8>)
10005d96:	440b      	add	r3, r1
10005d98:	6003      	str	r3, [r0, #0]
10005d9a:	4770      	bx	lr
10005d9c:	20001d58 	.word	0x20001d58

10005da0 <runtime_init_mutex>:
10005da0:	b570      	push	{r4, r5, r6, lr}
10005da2:	4c10      	ldr	r4, [pc, #64]	@ (10005de4 <runtime_init_mutex+0x44>)
10005da4:	4d10      	ldr	r5, [pc, #64]	@ (10005de8 <runtime_init_mutex+0x48>)
10005da6:	42ac      	cmp	r4, r5
10005da8:	d20e      	bcs.n	10005dc8 <runtime_init_mutex+0x28>
10005daa:	26ff      	movs	r6, #255	@ 0xff
10005dac:	6823      	ldr	r3, [r4, #0]
10005dae:	b163      	cbz	r3, 10005dca <runtime_init_mutex+0x2a>
10005db0:	f7ff fdc8 	bl	10005944 <next_striped_spin_lock_num>
10005db4:	4601      	mov	r1, r0
10005db6:	4620      	mov	r0, r4
10005db8:	f7ff ffec 	bl	10005d94 <lock_init>
10005dbc:	80a6      	strh	r6, [r4, #4]
10005dbe:	f3bf 8f5f 	dmb	sy
10005dc2:	3408      	adds	r4, #8
10005dc4:	42ac      	cmp	r4, r5
10005dc6:	d3f1      	bcc.n	10005dac <runtime_init_mutex+0xc>
10005dc8:	bd70      	pop	{r4, r5, r6, pc}
10005dca:	f7ff fdbb 	bl	10005944 <next_striped_spin_lock_num>
10005dce:	4601      	mov	r1, r0
10005dd0:	4620      	mov	r0, r4
10005dd2:	f7ff ffdf 	bl	10005d94 <lock_init>
10005dd6:	7126      	strb	r6, [r4, #4]
10005dd8:	f3bf 8f5f 	dmb	sy
10005ddc:	3408      	adds	r4, #8
10005dde:	42ac      	cmp	r4, r5
10005de0:	d3e4      	bcc.n	10005dac <runtime_init_mutex+0xc>
10005de2:	bd70      	pop	{r4, r5, r6, pc}
10005de4:	200018b0 	.word	0x200018b0
10005de8:	200018b8 	.word	0x200018b8

10005dec <mutex_init>:
10005dec:	b510      	push	{r4, lr}
10005dee:	4604      	mov	r4, r0
10005df0:	f7ff fda8 	bl	10005944 <next_striped_spin_lock_num>
10005df4:	4601      	mov	r1, r0
10005df6:	4620      	mov	r0, r4
10005df8:	f7ff ffcc 	bl	10005d94 <lock_init>
10005dfc:	23ff      	movs	r3, #255	@ 0xff
10005dfe:	7123      	strb	r3, [r4, #4]
10005e00:	f3bf 8f5f 	dmb	sy
10005e04:	bd10      	pop	{r4, pc}
10005e06:	bf00      	nop

10005e08 <critical_section_init>:
10005e08:	b510      	push	{r4, lr}
10005e0a:	4604      	mov	r4, r0
10005e0c:	2001      	movs	r0, #1
10005e0e:	f7ff fda5 	bl	1000595c <spin_lock_claim_unused>
10005e12:	4b03      	ldr	r3, [pc, #12]	@ (10005e20 <critical_section_init+0x18>)
10005e14:	4403      	add	r3, r0
10005e16:	6023      	str	r3, [r4, #0]
10005e18:	f3bf 8f5f 	dmb	sy
10005e1c:	bd10      	pop	{r4, pc}
10005e1e:	bf00      	nop
10005e20:	20001d58 	.word	0x20001d58

10005e24 <critical_section_init_with_lock_num>:
10005e24:	4b02      	ldr	r3, [pc, #8]	@ (10005e30 <critical_section_init_with_lock_num+0xc>)
10005e26:	440b      	add	r3, r1
10005e28:	6003      	str	r3, [r0, #0]
10005e2a:	f3bf 8f5f 	dmb	sy
10005e2e:	4770      	bx	lr
10005e30:	20001d58 	.word	0x20001d58

10005e34 <sleep_until_callback>:
10005e34:	4b0d      	ldr	r3, [pc, #52]	@ (10005e6c <sleep_until_callback+0x38>)
10005e36:	681a      	ldr	r2, [r3, #0]
10005e38:	f3ef 8110 	mrs	r1, PRIMASK
10005e3c:	b672      	cpsid	i
10005e3e:	e8d2 cfcf 	ldaexb	ip, [r2]
10005e42:	2001      	movs	r0, #1
10005e44:	f1bc 0f00 	cmp.w	ip, #0
10005e48:	d1f9      	bne.n	10005e3e <sleep_until_callback+0xa>
10005e4a:	e8c2 0f4c 	strexb	ip, r0, [r2]
10005e4e:	f1bc 0f00 	cmp.w	ip, #0
10005e52:	d1f4      	bne.n	10005e3e <sleep_until_callback+0xa>
10005e54:	f3bf 8f5f 	dmb	sy
10005e58:	2200      	movs	r2, #0
10005e5a:	681b      	ldr	r3, [r3, #0]
10005e5c:	e8c3 2f8f 	stlb	r2, [r3]
10005e60:	f381 8810 	msr	PRIMASK, r1
10005e64:	bf40      	sev
10005e66:	2000      	movs	r0, #0
10005e68:	2100      	movs	r1, #0
10005e6a:	4770      	bx	lr
10005e6c:	20002634 	.word	0x20002634

10005e70 <alarm_pool_irq_handler>:
10005e70:	e92d 4ff0 	stmdb	sp!, {r4, r5, r6, r7, r8, r9, sl, fp, lr}
10005e74:	ed2d 8b02 	vpush	{d8}
10005e78:	b085      	sub	sp, #20
10005e7a:	f3ef 8305 	mrs	r3, IPSR
10005e7e:	b2db      	uxtb	r3, r3
10005e80:	3b10      	subs	r3, #16
10005e82:	089a      	lsrs	r2, r3, #2
10005e84:	bf18      	it	ne
10005e86:	2201      	movne	r2, #1
10005e88:	f04f 0101 	mov.w	r1, #1
10005e8c:	f003 0b03 	and.w	fp, r3, #3
10005e90:	bf18      	it	ne
10005e92:	4daf      	ldrne	r5, [pc, #700]	@ (10006150 <alarm_pool_irq_handler+0x2e0>)
10005e94:	4baf      	ldr	r3, [pc, #700]	@ (10006154 <alarm_pool_irq_handler+0x2e4>)
10005e96:	bf08      	it	eq
10005e98:	4daf      	ldreq	r5, [pc, #700]	@ (10006158 <alarm_pool_irq_handler+0x2e8>)
10005e9a:	eb0b 0282 	add.w	r2, fp, r2, lsl #2
10005e9e:	f853 6022 	ldr.w	r6, [r3, r2, lsl #2]
10005ea2:	fa01 f20b 	lsl.w	r2, r1, fp
10005ea6:	f505 5341 	add.w	r3, r5, #12352	@ 0x3040
10005eaa:	ed9f 8ba7 	vldr	d8, [pc, #668]	@ 10006148 <alarm_pool_irq_handler+0x2d8>
10005eae:	9201      	str	r2, [sp, #4]
10005eb0:	605a      	str	r2, [r3, #4]
10005eb2:	e02f      	b.n	10005f14 <alarm_pool_irq_handler+0xa4>
10005eb4:	88b3      	ldrh	r3, [r6, #4]
10005eb6:	041c      	lsls	r4, r3, #16
10005eb8:	f140 8093 	bpl.w	10005fe2 <alarm_pool_irq_handler+0x172>
10005ebc:	79b3      	ldrb	r3, [r6, #6]
10005ebe:	2b00      	cmp	r3, #0
10005ec0:	f040 80dd 	bne.w	1000607e <alarm_pool_irq_handler+0x20e>
10005ec4:	f9b6 2008 	ldrsh.w	r2, [r6, #8]
10005ec8:	2a00      	cmp	r2, #0
10005eca:	f2c0 811e 	blt.w	1000610a <alarm_pool_irq_handler+0x29a>
10005ece:	6973      	ldr	r3, [r6, #20]
10005ed0:	eb02 0242 	add.w	r2, r2, r2, lsl #1
10005ed4:	eb03 03c2 	add.w	r3, r3, r2, lsl #3
10005ed8:	e9d3 4702 	ldrd	r4, r7, [r3, #8]
10005edc:	f1b7 3fff 	cmp.w	r7, #4294967295
10005ee0:	bf08      	it	eq
10005ee2:	f1b4 3fff 	cmpeq.w	r4, #4294967295
10005ee6:	d00e      	beq.n	10005f06 <alarm_pool_irq_handler+0x96>
10005ee8:	eb05 018b 	add.w	r1, r5, fp, lsl #2
10005eec:	6aab      	ldr	r3, [r5, #40]	@ 0x28
10005eee:	690a      	ldr	r2, [r1, #16]
10005ef0:	1ad2      	subs	r2, r2, r3
10005ef2:	1ae3      	subs	r3, r4, r3
10005ef4:	4293      	cmp	r3, r2
10005ef6:	d305      	bcc.n	10005f04 <alarm_pool_irq_handler+0x94>
10005ef8:	2301      	movs	r3, #1
10005efa:	6a2a      	ldr	r2, [r5, #32]
10005efc:	fa03 f30b 	lsl.w	r3, r3, fp
10005f00:	4213      	tst	r3, r2
10005f02:	d100      	bne.n	10005f06 <alarm_pool_irq_handler+0x96>
10005f04:	610c      	str	r4, [r1, #16]
10005f06:	4628      	mov	r0, r5
10005f08:	f000 fbac 	bl	10006664 <timer_time_us_64>
10005f0c:	42a0      	cmp	r0, r4
10005f0e:	41b9      	sbcs	r1, r7
10005f10:	f2c0 80fb 	blt.w	1000610a <alarm_pool_irq_handler+0x29a>
10005f14:	f9b6 3008 	ldrsh.w	r3, [r6, #8]
10005f18:	9a01      	ldr	r2, [sp, #4]
10005f1a:	2b00      	cmp	r3, #0
10005f1c:	9300      	str	r3, [sp, #0]
10005f1e:	63ea      	str	r2, [r5, #60]	@ 0x3c
10005f20:	dbc8      	blt.n	10005eb4 <alarm_pool_irq_handler+0x44>
10005f22:	f8d6 8014 	ldr.w	r8, [r6, #20]
10005f26:	eb03 0943 	add.w	r9, r3, r3, lsl #1
10005f2a:	4628      	mov	r0, r5
10005f2c:	eb08 07c9 	add.w	r7, r8, r9, lsl #3
10005f30:	e9d7 4a02 	ldrd	r4, sl, [r7, #8]
10005f34:	f000 fb96 	bl	10006664 <timer_time_us_64>
10005f38:	42a0      	cmp	r0, r4
10005f3a:	eb71 010a 	sbcs.w	r1, r1, sl
10005f3e:	dbb9      	blt.n	10005eb4 <alarm_pool_irq_handler+0x44>
10005f40:	f1ba 0f00 	cmp.w	sl, #0
10005f44:	f2c0 80c3 	blt.w	100060ce <alarm_pool_irq_handler+0x25e>
10005f48:	e9d7 3104 	ldrd	r3, r1, [r7, #16]
10005f4c:	4a83      	ldr	r2, [pc, #524]	@ (1000615c <alarm_pool_irq_handler+0x2ec>)
10005f4e:	4293      	cmp	r3, r2
10005f50:	f000 80ed 	beq.w	1000612e <alarm_pool_irq_handler+0x2be>
10005f54:	887a      	ldrh	r2, [r7, #2]
10005f56:	f9b6 0008 	ldrsh.w	r0, [r6, #8]
10005f5a:	b292      	uxth	r2, r2
10005f5c:	ea42 4000 	orr.w	r0, r2, r0, lsl #16
10005f60:	4798      	blx	r3
10005f62:	4602      	mov	r2, r0
10005f64:	460b      	mov	r3, r1
10005f66:	ea52 0103 	orrs.w	r1, r2, r3
10005f6a:	f000 80b0 	beq.w	100060ce <alarm_pool_irq_handler+0x25e>
10005f6e:	2b00      	cmp	r3, #0
10005f70:	f280 80d1 	bge.w	10006116 <alarm_pool_irq_handler+0x2a6>
10005f74:	ebb4 0e02 	subs.w	lr, r4, r2
10005f78:	eb6a 0a03 	sbc.w	sl, sl, r3
10005f7c:	f938 3039 	ldrsh.w	r3, [r8, r9, lsl #3]
10005f80:	e9c7 ea02 	strd	lr, sl, [r7, #8]
10005f84:	2b00      	cmp	r3, #0
10005f86:	db95      	blt.n	10005eb4 <alarm_pool_irq_handler+0x44>
10005f88:	6971      	ldr	r1, [r6, #20]
10005f8a:	eb03 0243 	add.w	r2, r3, r3, lsl #1
10005f8e:	eb01 02c2 	add.w	r2, r1, r2, lsl #3
10005f92:	e9d2 7002 	ldrd	r7, r0, [r2, #8]
10005f96:	45be      	cmp	lr, r7
10005f98:	eb7a 0c00 	sbcs.w	ip, sl, r0
10005f9c:	ea4f 0243 	mov.w	r2, r3, lsl #1
10005fa0:	db88      	blt.n	10005eb4 <alarm_pool_irq_handler+0x44>
10005fa2:	46b4      	mov	ip, r6
10005fa4:	f82c 3f08 	strh.w	r3, [ip, #8]!
10005fa8:	e006      	b.n	10005fb8 <alarm_pool_irq_handler+0x148>
10005faa:	eb03 0043 	add.w	r0, r3, r3, lsl #1
10005fae:	eb01 00c0 	add.w	r0, r1, r0, lsl #3
10005fb2:	005a      	lsls	r2, r3, #1
10005fb4:	e9d0 7002 	ldrd	r7, r0, [r0, #8]
10005fb8:	45be      	cmp	lr, r7
10005fba:	441a      	add	r2, r3
10005fbc:	eb7a 0000 	sbcs.w	r0, sl, r0
10005fc0:	eb01 04c2 	add.w	r4, r1, r2, lsl #3
10005fc4:	db04      	blt.n	10005fd0 <alarm_pool_irq_handler+0x160>
10005fc6:	f931 3032 	ldrsh.w	r3, [r1, r2, lsl #3]
10005fca:	46a4      	mov	ip, r4
10005fcc:	2b00      	cmp	r3, #0
10005fce:	daec      	bge.n	10005faa <alarm_pool_irq_handler+0x13a>
10005fd0:	f828 3039 	strh.w	r3, [r8, r9, lsl #3]
10005fd4:	9b00      	ldr	r3, [sp, #0]
10005fd6:	f8ac 3000 	strh.w	r3, [ip]
10005fda:	88b3      	ldrh	r3, [r6, #4]
10005fdc:	041c      	lsls	r4, r3, #16
10005fde:	f53f af6d 	bmi.w	10005ebc <alarm_pool_irq_handler+0x4c>
10005fe2:	6933      	ldr	r3, [r6, #16]
10005fe4:	f3ef 8210 	mrs	r2, PRIMASK
10005fe8:	b672      	cpsid	i
10005fea:	e8d3 0fcf 	ldaexb	r0, [r3]
10005fee:	2101      	movs	r1, #1
10005ff0:	2800      	cmp	r0, #0
10005ff2:	d1fa      	bne.n	10005fea <alarm_pool_irq_handler+0x17a>
10005ff4:	e8c3 1f40 	strexb	r0, r1, [r3]
10005ff8:	2800      	cmp	r0, #0
10005ffa:	d1f6      	bne.n	10005fea <alarm_pool_irq_handler+0x17a>
10005ffc:	f3bf 8f5f 	dmb	sy
10006000:	f64f 74ff 	movw	r4, #65535	@ 0xffff
10006004:	88b0      	ldrh	r0, [r6, #4]
10006006:	2300      	movs	r3, #0
10006008:	6931      	ldr	r1, [r6, #16]
1000600a:	b200      	sxth	r0, r0
1000600c:	80b4      	strh	r4, [r6, #4]
1000600e:	e8c1 3f8f 	stlb	r3, [r1]
10006012:	f382 8810 	msr	PRIMASK, r2
10006016:	4298      	cmp	r0, r3
10006018:	f6ff af50 	blt.w	10005ebc <alarm_pool_irq_handler+0x4c>
1000601c:	4607      	mov	r7, r0
1000601e:	46a9      	mov	r9, r5
10006020:	6974      	ldr	r4, [r6, #20]
10006022:	f106 0808 	add.w	r8, r6, #8
10006026:	eb07 0e47 	add.w	lr, r7, r7, lsl #1
1000602a:	eb04 03ce 	add.w	r3, r4, lr, lsl #3
1000602e:	e9d3 5002 	ldrd	r5, r0, [r3, #8]
10006032:	f9b6 3008 	ldrsh.w	r3, [r6, #8]
10006036:	46c4      	mov	ip, r8
10006038:	2b00      	cmp	r3, #0
1000603a:	db13      	blt.n	10006064 <alarm_pool_irq_handler+0x1f4>
1000603c:	46b2      	mov	sl, r6
1000603e:	9700      	str	r7, [sp, #0]
10006040:	e004      	b.n	1000604c <alarm_pool_irq_handler+0x1dc>
10006042:	f934 3036 	ldrsh.w	r3, [r4, r6, lsl #3]
10006046:	4694      	mov	ip, r2
10006048:	2b00      	cmp	r3, #0
1000604a:	db09      	blt.n	10006060 <alarm_pool_irq_handler+0x1f0>
1000604c:	eb03 0643 	add.w	r6, r3, r3, lsl #1
10006050:	eb04 02c6 	add.w	r2, r4, r6, lsl #3
10006054:	e9d2 7102 	ldrd	r7, r1, [r2, #8]
10006058:	42bd      	cmp	r5, r7
1000605a:	eb70 0101 	sbcs.w	r1, r0, r1
1000605e:	daf0      	bge.n	10006042 <alarm_pool_irq_handler+0x1d2>
10006060:	4656      	mov	r6, sl
10006062:	9f00      	ldr	r7, [sp, #0]
10006064:	f8ac 7000 	strh.w	r7, [ip]
10006068:	f934 703e 	ldrsh.w	r7, [r4, lr, lsl #3]
1000606c:	f824 303e 	strh.w	r3, [r4, lr, lsl #3]
10006070:	2f00      	cmp	r7, #0
10006072:	dad8      	bge.n	10006026 <alarm_pool_irq_handler+0x1b6>
10006074:	79b3      	ldrb	r3, [r6, #6]
10006076:	464d      	mov	r5, r9
10006078:	2b00      	cmp	r3, #0
1000607a:	f43f af23 	beq.w	10005ec4 <alarm_pool_irq_handler+0x54>
1000607e:	2300      	movs	r3, #0
10006080:	71b3      	strb	r3, [r6, #6]
10006082:	f9b6 3008 	ldrsh.w	r3, [r6, #8]
10006086:	f106 0808 	add.w	r8, r6, #8
1000608a:	1c58      	adds	r0, r3, #1
1000608c:	d03d      	beq.n	1000610a <alarm_pool_irq_handler+0x29a>
1000608e:	461a      	mov	r2, r3
10006090:	6977      	ldr	r7, [r6, #20]
10006092:	e003      	b.n	1000609c <alarm_pool_irq_handler+0x22c>
10006094:	4680      	mov	r8, r0
10006096:	1c59      	adds	r1, r3, #1
10006098:	f43f af16 	beq.w	10005ec8 <alarm_pool_irq_handler+0x58>
1000609c:	eb03 0143 	add.w	r1, r3, r3, lsl #1
100060a0:	eb07 00c1 	add.w	r0, r7, r1, lsl #3
100060a4:	f8b0 c002 	ldrh.w	ip, [r0, #2]
100060a8:	461c      	mov	r4, r3
100060aa:	f41c 4f00 	tst.w	ip, #32768	@ 0x8000
100060ae:	469e      	mov	lr, r3
100060b0:	f937 3031 	ldrsh.w	r3, [r7, r1, lsl #3]
100060b4:	d0ee      	beq.n	10006094 <alarm_pool_irq_handler+0x224>
100060b6:	4294      	cmp	r4, r2
100060b8:	ed80 8b02 	vstr	d8, [r0, #8]
100060bc:	d005      	beq.n	100060ca <alarm_pool_irq_handler+0x25a>
100060be:	f8a8 3000 	strh.w	r3, [r8]
100060c2:	8932      	ldrh	r2, [r6, #8]
100060c4:	f827 2031 	strh.w	r2, [r7, r1, lsl #3]
100060c8:	8134      	strh	r4, [r6, #8]
100060ca:	4672      	mov	r2, lr
100060cc:	e7e3      	b.n	10006096 <alarm_pool_irq_handler+0x226>
100060ce:	f838 3039 	ldrh.w	r3, [r8, r9, lsl #3]
100060d2:	8133      	strh	r3, [r6, #8]
100060d4:	6933      	ldr	r3, [r6, #16]
100060d6:	f3ef 8210 	mrs	r2, PRIMASK
100060da:	b672      	cpsid	i
100060dc:	e8d3 0fcf 	ldaexb	r0, [r3]
100060e0:	2101      	movs	r1, #1
100060e2:	2800      	cmp	r0, #0
100060e4:	d1fa      	bne.n	100060dc <alarm_pool_irq_handler+0x26c>
100060e6:	e8c3 1f40 	strexb	r0, r1, [r3]
100060ea:	2800      	cmp	r0, #0
100060ec:	d1f6      	bne.n	100060dc <alarm_pool_irq_handler+0x26c>
100060ee:	f3bf 8f5f 	dmb	sy
100060f2:	8873      	ldrh	r3, [r6, #2]
100060f4:	6931      	ldr	r1, [r6, #16]
100060f6:	f828 3039 	strh.w	r3, [r8, r9, lsl #3]
100060fa:	9b00      	ldr	r3, [sp, #0]
100060fc:	8073      	strh	r3, [r6, #2]
100060fe:	2300      	movs	r3, #0
10006100:	e8c1 3f8f 	stlb	r3, [r1]
10006104:	f382 8810 	msr	PRIMASK, r2
10006108:	e6d4      	b.n	10005eb4 <alarm_pool_irq_handler+0x44>
1000610a:	bf40      	sev
1000610c:	b005      	add	sp, #20
1000610e:	ecbd 8b02 	vpop	{d8}
10006112:	e8bd 8ff0 	ldmia.w	sp!, {r4, r5, r6, r7, r8, r9, sl, fp, pc}
10006116:	4628      	mov	r0, r5
10006118:	e9cd 2302 	strd	r2, r3, [sp, #8]
1000611c:	f000 faa2 	bl	10006664 <timer_time_us_64>
10006120:	9a02      	ldr	r2, [sp, #8]
10006122:	9b03      	ldr	r3, [sp, #12]
10006124:	eb10 0e02 	adds.w	lr, r0, r2
10006128:	eb43 0a01 	adc.w	sl, r3, r1
1000612c:	e726      	b.n	10005f7c <alarm_pool_irq_handler+0x10c>
1000612e:	4608      	mov	r0, r1
10006130:	690b      	ldr	r3, [r1, #16]
10006132:	9102      	str	r1, [sp, #8]
10006134:	4798      	blx	r3
10006136:	2800      	cmp	r0, #0
10006138:	d0c9      	beq.n	100060ce <alarm_pool_irq_handler+0x25e>
1000613a:	9902      	ldr	r1, [sp, #8]
1000613c:	e9d1 2300 	ldrd	r2, r3, [r1]
10006140:	e711      	b.n	10005f66 <alarm_pool_irq_handler+0xf6>
10006142:	bf00      	nop
10006144:	f3af 8000 	nop.w
10006148:	ffffffff 	.word	0xffffffff
1000614c:	ffffffff 	.word	0xffffffff
10006150:	400b8000 	.word	0x400b8000
10006154:	2000260c 	.word	0x2000260c
10006158:	400b0000 	.word	0x400b0000
1000615c:	10005e71 	.word	0x10005e71

10006160 <runtime_init_default_alarm_pool>:
10006160:	e92d 4ff8 	stmdb	sp!, {r3, r4, r5, r6, r7, r8, r9, sl, fp, lr}
10006164:	4c36      	ldr	r4, [pc, #216]	@ (10006240 <runtime_init_default_alarm_pool+0xe0>)
10006166:	6925      	ldr	r5, [r4, #16]
10006168:	b12d      	cbz	r5, 10006176 <runtime_init_default_alarm_pool+0x16>
1000616a:	e8bd 4ff8 	ldmia.w	sp!, {r3, r4, r5, r6, r7, r8, r9, sl, fp, lr}
1000616e:	210a      	movs	r1, #10
10006170:	4834      	ldr	r0, [pc, #208]	@ (10006244 <runtime_init_default_alarm_pool+0xe4>)
10006172:	f7ff be0f 	b.w	10005d94 <lock_init>
10006176:	f8df 80e4 	ldr.w	r8, [pc, #228]	@ 1000625c <runtime_init_default_alarm_pool+0xfc>
1000617a:	2103      	movs	r1, #3
1000617c:	4640      	mov	r0, r8
1000617e:	f000 fa5f 	bl	10006640 <timer_hardware_alarm_claim>
10006182:	2603      	movs	r6, #3
10006184:	f8c4 800c 	str.w	r8, [r4, #12]
10006188:	f7ff fbdc 	bl	10005944 <next_striped_spin_lock_num>
1000618c:	f04f 4c50 	mov.w	ip, #3489660928	@ 0xd0000000
10006190:	4b2d      	ldr	r3, [pc, #180]	@ (10006248 <runtime_init_default_alarm_pool+0xe8>)
10006192:	7026      	strb	r6, [r4, #0]
10006194:	4403      	add	r3, r0
10006196:	6123      	str	r3, [r4, #16]
10006198:	f8dc 3000 	ldr.w	r3, [ip]
1000619c:	210f      	movs	r1, #15
1000619e:	7063      	strb	r3, [r4, #1]
100061a0:	6963      	ldr	r3, [r4, #20]
100061a2:	8061      	strh	r1, [r4, #2]
100061a4:	831d      	strh	r5, [r3, #24]
100061a6:	f04f 0504 	mov.w	r5, #4
100061aa:	f8a3 5078 	strh.w	r5, [r3, #120]	@ 0x78
100061ae:	f04f 0505 	mov.w	r5, #5
100061b2:	f8a3 5090 	strh.w	r5, [r3, #144]	@ 0x90
100061b6:	f04f 0506 	mov.w	r5, #6
100061ba:	f8a3 50a8 	strh.w	r5, [r3, #168]	@ 0xa8
100061be:	f04f 0507 	mov.w	r5, #7
100061c2:	210e      	movs	r1, #14
100061c4:	f64f 72ff 	movw	r2, #65535	@ 0xffff
100061c8:	2708      	movs	r7, #8
100061ca:	f04f 0e0a 	mov.w	lr, #10
100061ce:	f8a3 50c0 	strh.w	r5, [r3, #192]	@ 0xc0
100061d2:	f04f 0901 	mov.w	r9, #1
100061d6:	f04f 0c0c 	mov.w	ip, #12
100061da:	f04f 0b02 	mov.w	fp, #2
100061de:	f04f 0a09 	mov.w	sl, #9
100061e2:	200d      	movs	r0, #13
100061e4:	f04f 050b 	mov.w	r5, #11
100061e8:	f8a3 1168 	strh.w	r1, [r3, #360]	@ 0x168
100061ec:	4917      	ldr	r1, [pc, #92]	@ (1000624c <runtime_init_default_alarm_pool+0xec>)
100061ee:	80a2      	strh	r2, [r4, #4]
100061f0:	f8a3 e108 	strh.w	lr, [r3, #264]	@ 0x108
100061f4:	60a1      	str	r1, [r4, #8]
100061f6:	f8a3 b048 	strh.w	fp, [r3, #72]	@ 0x48
100061fa:	f8a3 a0f0 	strh.w	sl, [r3, #240]	@ 0xf0
100061fe:	f8a3 5120 	strh.w	r5, [r3, #288]	@ 0x120
10006202:	f8a3 c138 	strh.w	ip, [r3, #312]	@ 0x138
10006206:	f8a3 0150 	strh.w	r0, [r3, #336]	@ 0x150
1000620a:	f8a3 9030 	strh.w	r9, [r3, #48]	@ 0x30
1000620e:	f8a3 6060 	strh.w	r6, [r3, #96]	@ 0x60
10006212:	f8a3 70d8 	strh.w	r7, [r3, #216]	@ 0xd8
10006216:	801a      	strh	r2, [r3, #0]
10006218:	4b0d      	ldr	r3, [pc, #52]	@ (10006250 <runtime_init_default_alarm_pool+0xf0>)
1000621a:	4630      	mov	r0, r6
1000621c:	f8c8 7020 	str.w	r7, [r8, #32]
10006220:	490c      	ldr	r1, [pc, #48]	@ (10006254 <runtime_init_default_alarm_pool+0xf4>)
10006222:	60dc      	str	r4, [r3, #12]
10006224:	f7ff fc20 	bl	10005a68 <irq_set_exclusive_handler>
10006228:	4649      	mov	r1, r9
1000622a:	4630      	mov	r0, r6
1000622c:	f7ff fbda 	bl	100059e4 <irq_set_enabled>
10006230:	4b09      	ldr	r3, [pc, #36]	@ (10006258 <runtime_init_default_alarm_pool+0xf8>)
10006232:	210a      	movs	r1, #10
10006234:	641f      	str	r7, [r3, #64]	@ 0x40
10006236:	4803      	ldr	r0, [pc, #12]	@ (10006244 <runtime_init_default_alarm_pool+0xe4>)
10006238:	e8bd 4ff8 	ldmia.w	sp!, {r3, r4, r5, r6, r7, r8, r9, sl, fp, lr}
1000623c:	f7ff bdaa 	b.w	10005d94 <lock_init>
10006240:	200012fc 	.word	0x200012fc
10006244:	20002634 	.word	0x20002634
10006248:	20001d58 	.word	0x20001d58
1000624c:	0010ffff 	.word	0x0010ffff
10006250:	2000260c 	.word	0x2000260c
10006254:	10005e71 	.word	0x10005e71
10006258:	400b2000 	.word	0x400b2000
1000625c:	400b0000 	.word	0x400b0000

10006260 <alarm_pool_get_default>:
10006260:	4800      	ldr	r0, [pc, #0]	@ (10006264 <alarm_pool_get_default+0x4>)
10006262:	4770      	bx	lr
10006264:	200012fc 	.word	0x200012fc

10006268 <alarm_pool_add_alarm_at>:
10006268:	b5f8      	push	{r3, r4, r5, r6, r7, lr}
1000626a:	f89d 5020 	ldrb.w	r5, [sp, #32]
1000626e:	4604      	mov	r4, r0
10006270:	4617      	mov	r7, r2
10006272:	461e      	mov	r6, r3
10006274:	b935      	cbnz	r5, 10006284 <alarm_pool_add_alarm_at+0x1c>
10006276:	f000 f9fd 	bl	10006674 <time_us_64>
1000627a:	4287      	cmp	r7, r0
1000627c:	eb66 0101 	sbc.w	r1, r6, r1
10006280:	2900      	cmp	r1, #0
10006282:	db5c      	blt.n	1000633e <alarm_pool_add_alarm_at+0xd6>
10006284:	6921      	ldr	r1, [r4, #16]
10006286:	f3ef 8310 	mrs	r3, PRIMASK
1000628a:	b672      	cpsid	i
1000628c:	e8d1 0fcf 	ldaexb	r0, [r1]
10006290:	2201      	movs	r2, #1
10006292:	2800      	cmp	r0, #0
10006294:	d1fa      	bne.n	1000628c <alarm_pool_add_alarm_at+0x24>
10006296:	e8c1 2f40 	strexb	r0, r2, [r1]
1000629a:	2800      	cmp	r0, #0
1000629c:	d1f6      	bne.n	1000628c <alarm_pool_add_alarm_at+0x24>
1000629e:	f3bf 8f5f 	dmb	sy
100062a2:	f9b4 2002 	ldrsh.w	r2, [r4, #2]
100062a6:	6965      	ldr	r5, [r4, #20]
100062a8:	eb02 0142 	add.w	r1, r2, r2, lsl #1
100062ac:	2a00      	cmp	r2, #0
100062ae:	ea4f 0cc1 	mov.w	ip, r1, lsl #3
100062b2:	6920      	ldr	r0, [r4, #16]
100062b4:	eb05 01c1 	add.w	r1, r5, r1, lsl #3
100062b8:	db39      	blt.n	1000632e <alarm_pool_add_alarm_at+0xc6>
100062ba:	f835 e00c 	ldrh.w	lr, [r5, ip]
100062be:	f8a4 e002 	strh.w	lr, [r4, #2]
100062c2:	f04f 0e00 	mov.w	lr, #0
100062c6:	e8c0 ef8f 	stlb	lr, [r0]
100062ca:	f383 8810 	msr	PRIMASK, r3
100062ce:	8848      	ldrh	r0, [r1, #2]
100062d0:	9b06      	ldr	r3, [sp, #24]
100062d2:	3001      	adds	r0, #1
100062d4:	f3c0 000e 	ubfx	r0, r0, #0, #15
100062d8:	2801      	cmp	r0, #1
100062da:	bf38      	it	cc
100062dc:	2001      	movcc	r0, #1
100062de:	610b      	str	r3, [r1, #16]
100062e0:	9b07      	ldr	r3, [sp, #28]
100062e2:	8048      	strh	r0, [r1, #2]
100062e4:	614b      	str	r3, [r1, #20]
100062e6:	e9c1 7602 	strd	r7, r6, [r1, #8]
100062ea:	ea40 4002 	orr.w	r0, r0, r2, lsl #16
100062ee:	6923      	ldr	r3, [r4, #16]
100062f0:	f3ef 8110 	mrs	r1, PRIMASK
100062f4:	b672      	cpsid	i
100062f6:	e8d3 7fcf 	ldaexb	r7, [r3]
100062fa:	2601      	movs	r6, #1
100062fc:	2f00      	cmp	r7, #0
100062fe:	d1fa      	bne.n	100062f6 <alarm_pool_add_alarm_at+0x8e>
10006300:	e8c3 6f47 	strexb	r7, r6, [r3]
10006304:	2f00      	cmp	r7, #0
10006306:	d1f6      	bne.n	100062f6 <alarm_pool_add_alarm_at+0x8e>
10006308:	f3bf 8f5f 	dmb	sy
1000630c:	88a3      	ldrh	r3, [r4, #4]
1000630e:	f825 300c 	strh.w	r3, [r5, ip]
10006312:	80a2      	strh	r2, [r4, #4]
10006314:	6923      	ldr	r3, [r4, #16]
10006316:	e8c3 ef8f 	stlb	lr, [r3]
1000631a:	f381 8810 	msr	PRIMASK, r1
1000631e:	2201      	movs	r2, #1
10006320:	68e3      	ldr	r3, [r4, #12]
10006322:	7821      	ldrb	r1, [r4, #0]
10006324:	f503 5301 	add.w	r3, r3, #8256	@ 0x2040
10006328:	408a      	lsls	r2, r1
1000632a:	605a      	str	r2, [r3, #4]
1000632c:	bdf8      	pop	{r3, r4, r5, r6, r7, pc}
1000632e:	2200      	movs	r2, #0
10006330:	e8c0 2f8f 	stlb	r2, [r0]
10006334:	f383 8810 	msr	PRIMASK, r3
10006338:	f04f 30ff 	mov.w	r0, #4294967295
1000633c:	bdf8      	pop	{r3, r4, r5, r6, r7, pc}
1000633e:	4628      	mov	r0, r5
10006340:	bdf8      	pop	{r3, r4, r5, r6, r7, pc}
10006342:	bf00      	nop

10006344 <alarm_pool_add_alarm_at_force_in_context>:
10006344:	4601      	mov	r1, r0
10006346:	b5f0      	push	{r4, r5, r6, r7, lr}
10006348:	6900      	ldr	r0, [r0, #16]
1000634a:	f3ef 8710 	mrs	r7, PRIMASK
1000634e:	b672      	cpsid	i
10006350:	e8d0 5fcf 	ldaexb	r5, [r0]
10006354:	2401      	movs	r4, #1
10006356:	2d00      	cmp	r5, #0
10006358:	d1fa      	bne.n	10006350 <alarm_pool_add_alarm_at_force_in_context+0xc>
1000635a:	e8c0 4f45 	strexb	r5, r4, [r0]
1000635e:	2d00      	cmp	r5, #0
10006360:	d1f6      	bne.n	10006350 <alarm_pool_add_alarm_at_force_in_context+0xc>
10006362:	f3bf 8f5f 	dmb	sy
10006366:	f9b1 e002 	ldrsh.w	lr, [r1, #2]
1000636a:	694c      	ldr	r4, [r1, #20]
1000636c:	eb0e 0c4e 	add.w	ip, lr, lr, lsl #1
10006370:	f1be 0f00 	cmp.w	lr, #0
10006374:	ea4f 05cc 	mov.w	r5, ip, lsl #3
10006378:	6908      	ldr	r0, [r1, #16]
1000637a:	eb04 0ccc 	add.w	ip, r4, ip, lsl #3
1000637e:	db3c      	blt.n	100063fa <alarm_pool_add_alarm_at_force_in_context+0xb6>
10006380:	5b66      	ldrh	r6, [r4, r5]
10006382:	804e      	strh	r6, [r1, #2]
10006384:	2600      	movs	r6, #0
10006386:	e8c0 6f8f 	stlb	r6, [r0]
1000638a:	f387 8810 	msr	PRIMASK, r7
1000638e:	f8bc 0002 	ldrh.w	r0, [ip, #2]
10006392:	e9cc 2302 	strd	r2, r3, [ip, #8]
10006396:	3001      	adds	r0, #1
10006398:	f3c0 000e 	ubfx	r0, r0, #0, #15
1000639c:	2801      	cmp	r0, #1
1000639e:	bf38      	it	cc
100063a0:	2001      	movcc	r0, #1
100063a2:	9b05      	ldr	r3, [sp, #20]
100063a4:	f8ac 0002 	strh.w	r0, [ip, #2]
100063a8:	f8cc 3010 	str.w	r3, [ip, #16]
100063ac:	9b06      	ldr	r3, [sp, #24]
100063ae:	ea40 400e 	orr.w	r0, r0, lr, lsl #16
100063b2:	f8cc 3014 	str.w	r3, [ip, #20]
100063b6:	690b      	ldr	r3, [r1, #16]
100063b8:	f3ef 8210 	mrs	r2, PRIMASK
100063bc:	b672      	cpsid	i
100063be:	e8d3 cfcf 	ldaexb	ip, [r3]
100063c2:	2701      	movs	r7, #1
100063c4:	f1bc 0f00 	cmp.w	ip, #0
100063c8:	d1f9      	bne.n	100063be <alarm_pool_add_alarm_at_force_in_context+0x7a>
100063ca:	e8c3 7f4c 	strexb	ip, r7, [r3]
100063ce:	f1bc 0f00 	cmp.w	ip, #0
100063d2:	d1f4      	bne.n	100063be <alarm_pool_add_alarm_at_force_in_context+0x7a>
100063d4:	f3bf 8f5f 	dmb	sy
100063d8:	888b      	ldrh	r3, [r1, #4]
100063da:	5363      	strh	r3, [r4, r5]
100063dc:	f8a1 e004 	strh.w	lr, [r1, #4]
100063e0:	690b      	ldr	r3, [r1, #16]
100063e2:	e8c3 6f8f 	stlb	r6, [r3]
100063e6:	f382 8810 	msr	PRIMASK, r2
100063ea:	2201      	movs	r2, #1
100063ec:	68cb      	ldr	r3, [r1, #12]
100063ee:	7809      	ldrb	r1, [r1, #0]
100063f0:	f503 5301 	add.w	r3, r3, #8256	@ 0x2040
100063f4:	408a      	lsls	r2, r1
100063f6:	605a      	str	r2, [r3, #4]
100063f8:	bdf0      	pop	{r4, r5, r6, r7, pc}
100063fa:	2300      	movs	r3, #0
100063fc:	e8c0 3f8f 	stlb	r3, [r0]
10006400:	f387 8810 	msr	PRIMASK, r7
10006404:	f04f 30ff 	mov.w	r0, #4294967295
10006408:	bdf0      	pop	{r4, r5, r6, r7, pc}
1000640a:	bf00      	nop

1000640c <alarm_pool_cancel_alarm>:
1000640c:	4603      	mov	r3, r0
1000640e:	8940      	ldrh	r0, [r0, #10]
10006410:	ebb0 4f21 	cmp.w	r0, r1, asr #16
10006414:	dd37      	ble.n	10006486 <alarm_pool_cancel_alarm+0x7a>
10006416:	6958      	ldr	r0, [r3, #20]
10006418:	140a      	asrs	r2, r1, #16
1000641a:	eb02 0242 	add.w	r2, r2, r2, lsl #1
1000641e:	b510      	push	{r4, lr}
10006420:	eb00 00c2 	add.w	r0, r0, r2, lsl #3
10006424:	691c      	ldr	r4, [r3, #16]
10006426:	f3ef 8c10 	mrs	ip, PRIMASK
1000642a:	b672      	cpsid	i
1000642c:	e8d4 efcf 	ldaexb	lr, [r4]
10006430:	2201      	movs	r2, #1
10006432:	f1be 0f00 	cmp.w	lr, #0
10006436:	d1f9      	bne.n	1000642c <alarm_pool_cancel_alarm+0x20>
10006438:	e8c4 2f4e 	strexb	lr, r2, [r4]
1000643c:	f1be 0f00 	cmp.w	lr, #0
10006440:	d1f4      	bne.n	1000642c <alarm_pool_cancel_alarm+0x20>
10006442:	f3bf 8f5f 	dmb	sy
10006446:	8842      	ldrh	r2, [r0, #2]
10006448:	b289      	uxth	r1, r1
1000644a:	b292      	uxth	r2, r2
1000644c:	428a      	cmp	r2, r1
1000644e:	d007      	beq.n	10006460 <alarm_pool_cancel_alarm+0x54>
10006450:	2200      	movs	r2, #0
10006452:	691b      	ldr	r3, [r3, #16]
10006454:	e8c3 2f8f 	stlb	r2, [r3]
10006458:	f38c 8810 	msr	PRIMASK, ip
1000645c:	2000      	movs	r0, #0
1000645e:	bd10      	pop	{r4, pc}
10006460:	f442 4200 	orr.w	r2, r2, #32768	@ 0x8000
10006464:	8042      	strh	r2, [r0, #2]
10006466:	2101      	movs	r1, #1
10006468:	2200      	movs	r2, #0
1000646a:	6918      	ldr	r0, [r3, #16]
1000646c:	7199      	strb	r1, [r3, #6]
1000646e:	e8c0 2f8f 	stlb	r2, [r0]
10006472:	f38c 8810 	msr	PRIMASK, ip
10006476:	781c      	ldrb	r4, [r3, #0]
10006478:	68da      	ldr	r2, [r3, #12]
1000647a:	4608      	mov	r0, r1
1000647c:	f502 5301 	add.w	r3, r2, #8256	@ 0x2040
10006480:	40a1      	lsls	r1, r4
10006482:	6059      	str	r1, [r3, #4]
10006484:	bd10      	pop	{r4, pc}
10006486:	2000      	movs	r0, #0
10006488:	4770      	bx	lr
1000648a:	bf00      	nop

1000648c <alarm_pool_core_num>:
1000648c:	7840      	ldrb	r0, [r0, #1]
1000648e:	4770      	bx	lr

10006490 <sleep_ms>:
10006490:	e92d 41f0 	stmdb	sp!, {r4, r5, r6, r7, r8, lr}
10006494:	b082      	sub	sp, #8
10006496:	4606      	mov	r6, r0
10006498:	f000 f8ec 	bl	10006674 <time_us_64>
1000649c:	f44f 737a 	mov.w	r3, #1000	@ 0x3e8
100064a0:	4604      	mov	r4, r0
100064a2:	f04f 30ff 	mov.w	r0, #4294967295
100064a6:	f06f 4200 	mvn.w	r2, #2147483648	@ 0x80000000
100064aa:	fbe6 4103 	umlal	r4, r1, r6, r3
100064ae:	42a0      	cmp	r0, r4
100064b0:	eb72 0301 	sbcs.w	r3, r2, r1
100064b4:	bf3a      	itte	cc
100064b6:	4604      	movcc	r4, r0
100064b8:	4615      	movcc	r5, r2
100064ba:	460d      	movcs	r5, r1
100064bc:	1fa6      	subs	r6, r4, #6
100064be:	f145 37ff 	adc.w	r7, r5, #4294967295
100064c2:	42b4      	cmp	r4, r6
100064c4:	eb75 0307 	sbcs.w	r3, r5, r7
100064c8:	bf3c      	itt	cc
100064ca:	2600      	movcc	r6, #0
100064cc:	4637      	movcc	r7, r6
100064ce:	f000 f8d1 	bl	10006674 <time_us_64>
100064d2:	1a30      	subs	r0, r6, r0
100064d4:	eb67 0101 	sbc.w	r1, r7, r1
100064d8:	2801      	cmp	r0, #1
100064da:	f171 0100 	sbcs.w	r1, r1, #0
100064de:	da06      	bge.n	100064ee <sleep_ms+0x5e>
100064e0:	4620      	mov	r0, r4
100064e2:	4629      	mov	r1, r5
100064e4:	b002      	add	sp, #8
100064e6:	e8bd 41f0 	ldmia.w	sp!, {r4, r5, r6, r7, r8, lr}
100064ea:	f000 b8cd 	b.w	10006688 <busy_wait_until>
100064ee:	f000 f8c1 	bl	10006674 <time_us_64>
100064f2:	4286      	cmp	r6, r0
100064f4:	eb67 0101 	sbc.w	r1, r7, r1
100064f8:	2900      	cmp	r1, #0
100064fa:	db0a      	blt.n	10006512 <sleep_ms+0x82>
100064fc:	2100      	movs	r1, #0
100064fe:	4b17      	ldr	r3, [pc, #92]	@ (1000655c <sleep_ms+0xcc>)
10006500:	4632      	mov	r2, r6
10006502:	9300      	str	r3, [sp, #0]
10006504:	4816      	ldr	r0, [pc, #88]	@ (10006560 <sleep_ms+0xd0>)
10006506:	463b      	mov	r3, r7
10006508:	9101      	str	r1, [sp, #4]
1000650a:	f7ff ff1b 	bl	10006344 <alarm_pool_add_alarm_at_force_in_context>
1000650e:	3001      	adds	r0, #1
10006510:	d0e6      	beq.n	100064e0 <sleep_ms+0x50>
10006512:	f04f 0c00 	mov.w	ip, #0
10006516:	4a13      	ldr	r2, [pc, #76]	@ (10006564 <sleep_ms+0xd4>)
10006518:	4913      	ldr	r1, [pc, #76]	@ (10006568 <sleep_ms+0xd8>)
1000651a:	6a53      	ldr	r3, [r2, #36]	@ 0x24
1000651c:	429f      	cmp	r7, r3
1000651e:	d804      	bhi.n	1000652a <sleep_ms+0x9a>
10006520:	6a90      	ldr	r0, [r2, #40]	@ 0x28
10006522:	42b0      	cmp	r0, r6
10006524:	d2dc      	bcs.n	100064e0 <sleep_ms+0x50>
10006526:	429f      	cmp	r7, r3
10006528:	d1da      	bne.n	100064e0 <sleep_ms+0x50>
1000652a:	680b      	ldr	r3, [r1, #0]
1000652c:	f3ef 8010 	mrs	r0, PRIMASK
10006530:	b672      	cpsid	i
10006532:	e8d3 8fcf 	ldaexb	r8, [r3]
10006536:	f05f 0e01 	movs.w	lr, #1
1000653a:	f1b8 0f00 	cmp.w	r8, #0
1000653e:	d1f8      	bne.n	10006532 <sleep_ms+0xa2>
10006540:	e8c3 ef48 	strexb	r8, lr, [r3]
10006544:	f1b8 0f00 	cmp.w	r8, #0
10006548:	d1f3      	bne.n	10006532 <sleep_ms+0xa2>
1000654a:	f3bf 8f5f 	dmb	sy
1000654e:	680b      	ldr	r3, [r1, #0]
10006550:	e8c3 cf8f 	stlb	ip, [r3]
10006554:	f380 8810 	msr	PRIMASK, r0
10006558:	bf20      	wfe
1000655a:	e7de      	b.n	1000651a <sleep_ms+0x8a>
1000655c:	10005e35 	.word	0x10005e35
10006560:	200012fc 	.word	0x200012fc
10006564:	400b0000 	.word	0x400b0000
10006568:	20002634 	.word	0x20002634

1000656c <best_effort_wfe_or_timeout>:
1000656c:	e92d 43f0 	stmdb	sp!, {r4, r5, r6, r7, r8, r9, lr}
10006570:	4606      	mov	r6, r0
10006572:	460d      	mov	r5, r1
10006574:	b083      	sub	sp, #12
10006576:	f3ef 8405 	mrs	r4, IPSR
1000657a:	b2e4      	uxtb	r4, r4
1000657c:	b13c      	cbz	r4, 1000658e <best_effort_wfe_or_timeout+0x22>
1000657e:	4b2d      	ldr	r3, [pc, #180]	@ (10006634 <best_effort_wfe_or_timeout+0xc8>)
10006580:	6a5a      	ldr	r2, [r3, #36]	@ 0x24
10006582:	42aa      	cmp	r2, r5
10006584:	d21c      	bcs.n	100065c0 <best_effort_wfe_or_timeout+0x54>
10006586:	2000      	movs	r0, #0
10006588:	b003      	add	sp, #12
1000658a:	e8bd 83f0 	ldmia.w	sp!, {r4, r5, r6, r7, r8, r9, pc}
1000658e:	4f2a      	ldr	r7, [pc, #168]	@ (10006638 <best_effort_wfe_or_timeout+0xcc>)
10006590:	f8d7 900c 	ldr.w	r9, [r7, #12]
10006594:	f897 8000 	ldrb.w	r8, [r7]
10006598:	4648      	mov	r0, r9
1000659a:	f000 f863 	bl	10006664 <timer_time_us_64>
1000659e:	f108 0804 	add.w	r8, r8, #4
100065a2:	f859 3028 	ldr.w	r3, [r9, r8, lsl #2]
100065a6:	1a1b      	subs	r3, r3, r0
100065a8:	1a30      	subs	r0, r6, r0
100065aa:	eb65 0101 	sbc.w	r1, r5, r1
100065ae:	4298      	cmp	r0, r3
100065b0:	f171 0100 	sbcs.w	r1, r1, #0
100065b4:	db10      	blt.n	100065d8 <best_effort_wfe_or_timeout+0x6c>
100065b6:	bf20      	wfe
100065b8:	4b1e      	ldr	r3, [pc, #120]	@ (10006634 <best_effort_wfe_or_timeout+0xc8>)
100065ba:	6a5a      	ldr	r2, [r3, #36]	@ 0x24
100065bc:	42aa      	cmp	r2, r5
100065be:	d3e2      	bcc.n	10006586 <best_effort_wfe_or_timeout+0x1a>
100065c0:	bf14      	ite	ne
100065c2:	2401      	movne	r4, #1
100065c4:	2400      	moveq	r4, #0
100065c6:	6a9b      	ldr	r3, [r3, #40]	@ 0x28
100065c8:	42b3      	cmp	r3, r6
100065ca:	bf34      	ite	cc
100065cc:	4620      	movcc	r0, r4
100065ce:	f044 0001 	orrcs.w	r0, r4, #1
100065d2:	b003      	add	sp, #12
100065d4:	e8bd 83f0 	ldmia.w	sp!, {r4, r5, r6, r7, r8, r9, pc}
100065d8:	f000 f84c 	bl	10006674 <time_us_64>
100065dc:	4286      	cmp	r6, r0
100065de:	eb65 0101 	sbc.w	r1, r5, r1
100065e2:	2900      	cmp	r1, #0
100065e4:	db14      	blt.n	10006610 <best_effort_wfe_or_timeout+0xa4>
100065e6:	4b15      	ldr	r3, [pc, #84]	@ (1000663c <best_effort_wfe_or_timeout+0xd0>)
100065e8:	4638      	mov	r0, r7
100065ea:	e9cd 3400 	strd	r3, r4, [sp]
100065ee:	4632      	mov	r2, r6
100065f0:	462b      	mov	r3, r5
100065f2:	f7ff fea7 	bl	10006344 <alarm_pool_add_alarm_at_force_in_context>
100065f6:	1e01      	subs	r1, r0, #0
100065f8:	dd0a      	ble.n	10006610 <best_effort_wfe_or_timeout+0xa4>
100065fa:	4b0e      	ldr	r3, [pc, #56]	@ (10006634 <best_effort_wfe_or_timeout+0xc8>)
100065fc:	6a5a      	ldr	r2, [r3, #36]	@ 0x24
100065fe:	42aa      	cmp	r2, r5
10006600:	d316      	bcc.n	10006630 <best_effort_wfe_or_timeout+0xc4>
10006602:	6a9b      	ldr	r3, [r3, #40]	@ 0x28
10006604:	42b3      	cmp	r3, r6
10006606:	d311      	bcc.n	1000662c <best_effort_wfe_or_timeout+0xc0>
10006608:	480b      	ldr	r0, [pc, #44]	@ (10006638 <best_effort_wfe_or_timeout+0xcc>)
1000660a:	f7ff feff 	bl	1000640c <alarm_pool_cancel_alarm>
1000660e:	e7b6      	b.n	1000657e <best_effort_wfe_or_timeout+0x12>
10006610:	4b08      	ldr	r3, [pc, #32]	@ (10006634 <best_effort_wfe_or_timeout+0xc8>)
10006612:	6a5c      	ldr	r4, [r3, #36]	@ 0x24
10006614:	42ac      	cmp	r4, r5
10006616:	d3b6      	bcc.n	10006586 <best_effort_wfe_or_timeout+0x1a>
10006618:	1b64      	subs	r4, r4, r5
1000661a:	bf18      	it	ne
1000661c:	2401      	movne	r4, #1
1000661e:	6a9b      	ldr	r3, [r3, #40]	@ 0x28
10006620:	42b3      	cmp	r3, r6
10006622:	bf34      	ite	cc
10006624:	4620      	movcc	r0, r4
10006626:	f044 0001 	orrcs.w	r0, r4, #1
1000662a:	e7ad      	b.n	10006588 <best_effort_wfe_or_timeout+0x1c>
1000662c:	42aa      	cmp	r2, r5
1000662e:	d1eb      	bne.n	10006608 <best_effort_wfe_or_timeout+0x9c>
10006630:	bf20      	wfe
10006632:	e7e9      	b.n	10006608 <best_effort_wfe_or_timeout+0x9c>
10006634:	400b0000 	.word	0x400b0000
10006638:	200012fc 	.word	0x200012fc
1000663c:	10005e35 	.word	0x10005e35

10006640 <timer_hardware_alarm_claim>:
10006640:	b410      	push	{r4}
10006642:	4b05      	ldr	r3, [pc, #20]	@ (10006658 <timer_hardware_alarm_claim+0x18>)
10006644:	4c05      	ldr	r4, [pc, #20]	@ (1000665c <timer_hardware_alarm_claim+0x1c>)
10006646:	4a06      	ldr	r2, [pc, #24]	@ (10006660 <timer_hardware_alarm_claim+0x20>)
10006648:	42a0      	cmp	r0, r4
1000664a:	bf14      	ite	ne
1000664c:	4618      	movne	r0, r3
1000664e:	1c58      	addeq	r0, r3, #1
10006650:	f85d 4b04 	ldr.w	r4, [sp], #4
10006654:	f7ff b8e2 	b.w	1000581c <hw_claim_or_assert>
10006658:	20002178 	.word	0x20002178
1000665c:	400b8000 	.word	0x400b8000
10006660:	1000d9c4 	.word	0x1000d9c4

10006664 <timer_time_us_64>:
10006664:	4603      	mov	r3, r0
10006666:	6a41      	ldr	r1, [r0, #36]	@ 0x24
10006668:	460a      	mov	r2, r1
1000666a:	6a98      	ldr	r0, [r3, #40]	@ 0x28
1000666c:	6a59      	ldr	r1, [r3, #36]	@ 0x24
1000666e:	428a      	cmp	r2, r1
10006670:	d1fa      	bne.n	10006668 <timer_time_us_64+0x4>
10006672:	4770      	bx	lr

10006674 <time_us_64>:
10006674:	4b03      	ldr	r3, [pc, #12]	@ (10006684 <time_us_64+0x10>)
10006676:	6a59      	ldr	r1, [r3, #36]	@ 0x24
10006678:	460a      	mov	r2, r1
1000667a:	6a98      	ldr	r0, [r3, #40]	@ 0x28
1000667c:	6a59      	ldr	r1, [r3, #36]	@ 0x24
1000667e:	4291      	cmp	r1, r2
10006680:	d1fa      	bne.n	10006678 <time_us_64+0x4>
10006682:	4770      	bx	lr
10006684:	400b0000 	.word	0x400b0000

10006688 <busy_wait_until>:
10006688:	4a07      	ldr	r2, [pc, #28]	@ (100066a8 <busy_wait_until+0x20>)
1000668a:	6a53      	ldr	r3, [r2, #36]	@ 0x24
1000668c:	4299      	cmp	r1, r3
1000668e:	d8fc      	bhi.n	1000668a <busy_wait_until+0x2>
10006690:	4299      	cmp	r1, r3
10006692:	d107      	bne.n	100066a4 <busy_wait_until+0x1c>
10006694:	4b04      	ldr	r3, [pc, #16]	@ (100066a8 <busy_wait_until+0x20>)
10006696:	e002      	b.n	1000669e <busy_wait_until+0x16>
10006698:	6a5a      	ldr	r2, [r3, #36]	@ 0x24
1000669a:	4291      	cmp	r1, r2
1000669c:	d102      	bne.n	100066a4 <busy_wait_until+0x1c>
1000669e:	6a9a      	ldr	r2, [r3, #40]	@ 0x28
100066a0:	4290      	cmp	r0, r2
100066a2:	d8f9      	bhi.n	10006698 <busy_wait_until+0x10>
100066a4:	4770      	bx	lr
100066a6:	bf00      	nop
100066a8:	400b0000 	.word	0x400b0000

100066ac <clock_configure_undivided>:
100066ac:	eb00 0c40 	add.w	ip, r0, r0, lsl #1
100066b0:	ea4f 0c8c 	mov.w	ip, ip, lsl #2
100066b4:	f10c 4c80 	add.w	ip, ip, #1073741824	@ 0x40000000
100066b8:	f50c 3c80 	add.w	ip, ip, #65536	@ 0x10000
100066bc:	b5f0      	push	{r4, r5, r6, r7, lr}
100066be:	4616      	mov	r6, r2
100066c0:	f8dc 2004 	ldr.w	r2, [ip, #4]
100066c4:	1f05      	subs	r5, r0, #4
100066c6:	f5b2 3f80 	cmp.w	r2, #65536	@ 0x10000
100066ca:	bf38      	it	cc
100066cc:	f44f 3280 	movcc.w	r2, #65536	@ 0x10000
100066d0:	b2ed      	uxtb	r5, r5
100066d2:	bf38      	it	cc
100066d4:	f8cc 2004 	strcc.w	r2, [ip, #4]
100066d8:	2d01      	cmp	r5, #1
100066da:	d92a      	bls.n	10006732 <clock_configure_undivided+0x86>
100066dc:	f44f 6700 	mov.w	r7, #2048	@ 0x800
100066e0:	4c25      	ldr	r4, [pc, #148]	@ (10006778 <clock_configure_undivided+0xcc>)
100066e2:	f50c 5240 	add.w	r2, ip, #12288	@ 0x3000
100066e6:	6017      	str	r7, [r2, #0]
100066e8:	f854 2020 	ldr.w	r2, [r4, r0, lsl #2]
100066ec:	b9b2      	cbnz	r2, 1000671c <clock_configure_undivided+0x70>
100066ee:	f8dc 2000 	ldr.w	r2, [ip]
100066f2:	2d01      	cmp	r5, #1
100066f4:	ea82 1246 	eor.w	r2, r2, r6, lsl #5
100066f8:	f002 02e0 	and.w	r2, r2, #224	@ 0xe0
100066fc:	f50c 5680 	add.w	r6, ip, #4096	@ 0x1000
10006700:	6032      	str	r2, [r6, #0]
10006702:	d92a      	bls.n	1000675a <clock_configure_undivided+0xae>
10006704:	f44f 6100 	mov.w	r1, #2048	@ 0x800
10006708:	f844 3020 	str.w	r3, [r4, r0, lsl #2]
1000670c:	f44f 3380 	mov.w	r3, #65536	@ 0x10000
10006710:	f50c 5200 	add.w	r2, ip, #8192	@ 0x2000
10006714:	6011      	str	r1, [r2, #0]
10006716:	f8cc 3004 	str.w	r3, [ip, #4]
1000671a:	bdf0      	pop	{r4, r5, r6, r7, pc}
1000671c:	6967      	ldr	r7, [r4, #20]
1000671e:	fbb7 fef2 	udiv	lr, r7, r2
10006722:	f10e 0e01 	add.w	lr, lr, #1
10006726:	eb0e 0e4e 	add.w	lr, lr, lr, lsl #1
1000672a:	f1be 0e03 	subs.w	lr, lr, #3
1000672e:	d2fc      	bcs.n	1000672a <clock_configure_undivided+0x7e>
10006730:	e7dd      	b.n	100066ee <clock_configure_undivided+0x42>
10006732:	2901      	cmp	r1, #1
10006734:	d1d2      	bne.n	100066dc <clock_configure_undivided+0x30>
10006736:	2403      	movs	r4, #3
10006738:	f50c 5240 	add.w	r2, ip, #12288	@ 0x3000
1000673c:	6014      	str	r4, [r2, #0]
1000673e:	f8dc 2008 	ldr.w	r2, [ip, #8]
10006742:	07d2      	lsls	r2, r2, #31
10006744:	d5fb      	bpl.n	1000673e <clock_configure_undivided+0x92>
10006746:	f8dc 2000 	ldr.w	r2, [ip]
1000674a:	4c0b      	ldr	r4, [pc, #44]	@ (10006778 <clock_configure_undivided+0xcc>)
1000674c:	ea82 1246 	eor.w	r2, r2, r6, lsl #5
10006750:	f002 02e0 	and.w	r2, r2, #224	@ 0xe0
10006754:	f50c 5680 	add.w	r6, ip, #4096	@ 0x1000
10006758:	6032      	str	r2, [r6, #0]
1000675a:	2201      	movs	r2, #1
1000675c:	f8dc 5000 	ldr.w	r5, [ip]
10006760:	404d      	eors	r5, r1
10006762:	f005 0503 	and.w	r5, r5, #3
10006766:	6035      	str	r5, [r6, #0]
10006768:	fa02 f101 	lsl.w	r1, r2, r1
1000676c:	f8dc 2008 	ldr.w	r2, [ip, #8]
10006770:	420a      	tst	r2, r1
10006772:	d0fb      	beq.n	1000676c <clock_configure_undivided+0xc0>
10006774:	e7c6      	b.n	10006704 <clock_configure_undivided+0x58>
10006776:	bf00      	nop
10006778:	2000217c 	.word	0x2000217c

1000677c <clock_get_hz>:
1000677c:	4b01      	ldr	r3, [pc, #4]	@ (10006784 <clock_get_hz+0x8>)
1000677e:	f853 0020 	ldr.w	r0, [r3, r0, lsl #2]
10006782:	4770      	bx	lr
10006784:	2000217c 	.word	0x2000217c

10006788 <pll_init>:
10006788:	b470      	push	{r4, r5, r6}
1000678a:	9d03      	ldr	r5, [sp, #12]
1000678c:	6804      	ldr	r4, [r0, #0]
1000678e:	032d      	lsls	r5, r5, #12
10006790:	ea45 4503 	orr.w	r5, r5, r3, lsl #16
10006794:	4b1b      	ldr	r3, [pc, #108]	@ (10006804 <pll_init+0x7c>)
10006796:	2c00      	cmp	r4, #0
10006798:	fbb3 f3f1 	udiv	r3, r3, r1
1000679c:	fbb2 f6f3 	udiv	r6, r2, r3
100067a0:	db1f      	blt.n	100067e2 <pll_init+0x5a>
100067a2:	4a19      	ldr	r2, [pc, #100]	@ (10006808 <pll_init+0x80>)
100067a4:	4b19      	ldr	r3, [pc, #100]	@ (1000680c <pll_init+0x84>)
100067a6:	4290      	cmp	r0, r2
100067a8:	bf14      	ite	ne
100067aa:	f44f 4280 	movne.w	r2, #16384	@ 0x4000
100067ae:	f44f 4200 	moveq.w	r2, #32768	@ 0x8000
100067b2:	4c17      	ldr	r4, [pc, #92]	@ (10006810 <pll_init+0x88>)
100067b4:	601a      	str	r2, [r3, #0]
100067b6:	f503 5380 	add.w	r3, r3, #4096	@ 0x1000
100067ba:	601a      	str	r2, [r3, #0]
100067bc:	68a3      	ldr	r3, [r4, #8]
100067be:	ea32 0303 	bics.w	r3, r2, r3
100067c2:	d1fb      	bne.n	100067bc <pll_init+0x34>
100067c4:	2221      	movs	r2, #33	@ 0x21
100067c6:	f500 5340 	add.w	r3, r0, #12288	@ 0x3000
100067ca:	3304      	adds	r3, #4
100067cc:	6001      	str	r1, [r0, #0]
100067ce:	6086      	str	r6, [r0, #8]
100067d0:	601a      	str	r2, [r3, #0]
100067d2:	6802      	ldr	r2, [r0, #0]
100067d4:	2a00      	cmp	r2, #0
100067d6:	dafc      	bge.n	100067d2 <pll_init+0x4a>
100067d8:	2208      	movs	r2, #8
100067da:	60c5      	str	r5, [r0, #12]
100067dc:	601a      	str	r2, [r3, #0]
100067de:	bc70      	pop	{r4, r5, r6}
100067e0:	4770      	bx	lr
100067e2:	6803      	ldr	r3, [r0, #0]
100067e4:	f003 033f 	and.w	r3, r3, #63	@ 0x3f
100067e8:	428b      	cmp	r3, r1
100067ea:	d1da      	bne.n	100067a2 <pll_init+0x1a>
100067ec:	6883      	ldr	r3, [r0, #8]
100067ee:	f3c3 030b 	ubfx	r3, r3, #0, #12
100067f2:	42b3      	cmp	r3, r6
100067f4:	d1d5      	bne.n	100067a2 <pll_init+0x1a>
100067f6:	68c3      	ldr	r3, [r0, #12]
100067f8:	f403 23ee 	and.w	r3, r3, #487424	@ 0x77000
100067fc:	42ab      	cmp	r3, r5
100067fe:	d1d0      	bne.n	100067a2 <pll_init+0x1a>
10006800:	e7ed      	b.n	100067de <pll_init+0x56>
10006802:	bf00      	nop
10006804:	00b71b00 	.word	0x00b71b00
10006808:	40058000 	.word	0x40058000
1000680c:	40022000 	.word	0x40022000
10006810:	40020000 	.word	0x40020000

10006814 <watchdog_reboot>:
10006814:	b430      	push	{r4, r5}
10006816:	f04f 4480 	mov.w	r4, #1073741824	@ 0x40000000
1000681a:	4b1c      	ldr	r3, [pc, #112]	@ (1000688c <watchdog_reboot+0x78>)
1000681c:	601c      	str	r4, [r3, #0]
1000681e:	b1e0      	cbz	r0, 1000685a <watchdog_reboot+0x46>
10006820:	4c1b      	ldr	r4, [pc, #108]	@ (10006890 <watchdog_reboot+0x7c>)
10006822:	f5a3 5340 	sub.w	r3, r3, #12288	@ 0x3000
10006826:	61dc      	str	r4, [r3, #28]
10006828:	4c1a      	ldr	r4, [pc, #104]	@ (10006894 <watchdog_reboot+0x80>)
1000682a:	f040 0001 	orr.w	r0, r0, #1
1000682e:	4044      	eors	r4, r0
10006830:	621c      	str	r4, [r3, #32]
10006832:	6259      	str	r1, [r3, #36]	@ 0x24
10006834:	6298      	str	r0, [r3, #40]	@ 0x28
10006836:	f04f 4580 	mov.w	r5, #1073741824	@ 0x40000000
1000683a:	f04f 61e0 	mov.w	r1, #117440512	@ 0x7000000
1000683e:	4b13      	ldr	r3, [pc, #76]	@ (1000688c <watchdog_reboot+0x78>)
10006840:	4815      	ldr	r0, [pc, #84]	@ (10006898 <watchdog_reboot+0x84>)
10006842:	4c16      	ldr	r4, [pc, #88]	@ (1000689c <watchdog_reboot+0x88>)
10006844:	601d      	str	r5, [r3, #0]
10006846:	6084      	str	r4, [r0, #8]
10006848:	6019      	str	r1, [r3, #0]
1000684a:	b94a      	cbnz	r2, 10006860 <watchdog_reboot+0x4c>
1000684c:	bc30      	pop	{r4, r5}
1000684e:	f04f 4200 	mov.w	r2, #2147483648	@ 0x80000000
10006852:	f5a3 5380 	sub.w	r3, r3, #4096	@ 0x1000
10006856:	601a      	str	r2, [r3, #0]
10006858:	4770      	bx	lr
1000685a:	4b11      	ldr	r3, [pc, #68]	@ (100068a0 <watchdog_reboot+0x8c>)
1000685c:	61d8      	str	r0, [r3, #28]
1000685e:	e7ea      	b.n	10006836 <watchdog_reboot+0x22>
10006860:	f44f 737a 	mov.w	r3, #1000	@ 0x3e8
10006864:	fb03 f202 	mul.w	r2, r3, r2
10006868:	f1b2 7f80 	cmp.w	r2, #16777216	@ 0x1000000
1000686c:	bf2a      	itet	cs
1000686e:	f06f 437f 	mvncs.w	r3, #4278190080	@ 0xff000000
10006872:	4613      	movcc	r3, r2
10006874:	461a      	movcs	r2, r3
10006876:	f04f 4180 	mov.w	r1, #1073741824	@ 0x40000000
1000687a:	4c0a      	ldr	r4, [pc, #40]	@ (100068a4 <watchdog_reboot+0x90>)
1000687c:	4808      	ldr	r0, [pc, #32]	@ (100068a0 <watchdog_reboot+0x8c>)
1000687e:	6023      	str	r3, [r4, #0]
10006880:	4b09      	ldr	r3, [pc, #36]	@ (100068a8 <watchdog_reboot+0x94>)
10006882:	6042      	str	r2, [r0, #4]
10006884:	bc30      	pop	{r4, r5}
10006886:	6019      	str	r1, [r3, #0]
10006888:	4770      	bx	lr
1000688a:	bf00      	nop
1000688c:	400db000 	.word	0x400db000
10006890:	b007c0d3 	.word	0xb007c0d3
10006894:	4ff83f2d 	.word	0x4ff83f2d
10006898:	4001a000 	.word	0x4001a000
1000689c:	01fffff3 	.word	0x01fffff3
100068a0:	400d8000 	.word	0x400d8000
100068a4:	200025e4 	.word	0x200025e4
100068a8:	400da000 	.word	0x400da000

100068ac <tick_start>:
100068ac:	2301      	movs	r3, #1
100068ae:	eb00 0040 	add.w	r0, r0, r0, lsl #1
100068b2:	0080      	lsls	r0, r0, #2
100068b4:	f100 4080 	add.w	r0, r0, #1073741824	@ 0x40000000
100068b8:	f500 1084 	add.w	r0, r0, #1081344	@ 0x108000
100068bc:	6041      	str	r1, [r0, #4]
100068be:	6003      	str	r3, [r0, #0]
100068c0:	4770      	bx	lr
100068c2:	bf00      	nop

100068c4 <rom_reboot.constprop.0.isra.0>:
100068c4:	2300      	movs	r3, #0
100068c6:	b570      	push	{r4, r5, r6, lr}
100068c8:	8adb      	ldrh	r3, [r3, #22]
100068ca:	4604      	mov	r4, r0
100068cc:	460d      	mov	r5, r1
100068ce:	2200      	movs	r2, #0
100068d0:	e842 f200 	tt	r2, r2
100068d4:	0252      	lsls	r2, r2, #9
100068d6:	bf54      	ite	pl
100068d8:	2110      	movpl	r1, #16
100068da:	2104      	movmi	r1, #4
100068dc:	f244 2052 	movw	r0, #16978	@ 0x4252
100068e0:	4798      	blx	r3
100068e2:	4686      	mov	lr, r0
100068e4:	462b      	mov	r3, r5
100068e6:	4622      	mov	r2, r4
100068e8:	46f4      	mov	ip, lr
100068ea:	e8bd 4070 	ldmia.w	sp!, {r4, r5, r6, lr}
100068ee:	210a      	movs	r1, #10
100068f0:	f44f 7081 	mov.w	r0, #258	@ 0x102
100068f4:	4760      	bx	ip
100068f6:	bf00      	nop

100068f8 <rom_func_lookup>:
100068f8:	2300      	movs	r3, #0
100068fa:	8adb      	ldrh	r3, [r3, #22]
100068fc:	2200      	movs	r2, #0
100068fe:	e842 f200 	tt	r2, r2
10006902:	0252      	lsls	r2, r2, #9
10006904:	d401      	bmi.n	1000690a <rom_func_lookup+0x12>
10006906:	2110      	movs	r1, #16
10006908:	4718      	bx	r3
1000690a:	2104      	movs	r1, #4
1000690c:	4718      	bx	r3
1000690e:	bf00      	nop

10006910 <rom_reset_usb_boot_extra>:
10006910:	b508      	push	{r3, lr}
10006912:	4603      	mov	r3, r0
10006914:	4608      	mov	r0, r1
10006916:	1e19      	subs	r1, r3, #0
10006918:	db02      	blt.n	10006920 <rom_reset_usb_boot_extra+0x10>
1000691a:	b11a      	cbz	r2, 10006924 <rom_reset_usb_boot_extra+0x14>
1000691c:	f040 0030 	orr.w	r0, r0, #48	@ 0x30
10006920:	f7ff ffd0 	bl	100068c4 <rom_reboot.constprop.0.isra.0>
10006924:	f040 0020 	orr.w	r0, r0, #32
10006928:	e7fa      	b.n	10006920 <rom_reset_usb_boot_extra+0x10>
1000692a:	bf00      	nop

1000692c <runtime_init_bootrom_locking_enable>:
1000692c:	4a03      	ldr	r2, [pc, #12]	@ (1000693c <runtime_init_bootrom_locking_enable+0x10>)
1000692e:	f8d2 3828 	ldr.w	r3, [r2, #2088]	@ 0x828
10006932:	2b00      	cmp	r3, #0
10006934:	d0fb      	beq.n	1000692e <runtime_init_bootrom_locking_enable+0x2>
10006936:	f3bf 8f5f 	dmb	sy
1000693a:	4770      	bx	lr
1000693c:	400e0000 	.word	0x400e0000

10006940 <runtime_init_boot_locks_reset>:
10006940:	2100      	movs	r1, #0
10006942:	4b04      	ldr	r3, [pc, #16]	@ (10006954 <runtime_init_boot_locks_reset+0x14>)
10006944:	4a04      	ldr	r2, [pc, #16]	@ (10006958 <runtime_init_boot_locks_reset+0x18>)
10006946:	f3bf 8f5f 	dmb	sy
1000694a:	f843 1b04 	str.w	r1, [r3], #4
1000694e:	4293      	cmp	r3, r2
10006950:	d1f9      	bne.n	10006946 <runtime_init_boot_locks_reset+0x6>
10006952:	4770      	bx	lr
10006954:	400e080c 	.word	0x400e080c
10006958:	400e082c 	.word	0x400e082c

1000695c <xosc_init>:
1000695c:	b410      	push	{r4}
1000695e:	f44f 708d 	mov.w	r0, #282	@ 0x11a
10006962:	f44f 642a 	mov.w	r4, #2720	@ 0xaa0
10006966:	4a06      	ldr	r2, [pc, #24]	@ (10006980 <xosc_init+0x24>)
10006968:	4b06      	ldr	r3, [pc, #24]	@ (10006984 <xosc_init+0x28>)
1000696a:	4907      	ldr	r1, [pc, #28]	@ (10006988 <xosc_init+0x2c>)
1000696c:	6014      	str	r4, [r2, #0]
1000696e:	60d0      	str	r0, [r2, #12]
10006970:	6019      	str	r1, [r3, #0]
10006972:	6853      	ldr	r3, [r2, #4]
10006974:	2b00      	cmp	r3, #0
10006976:	dafc      	bge.n	10006972 <xosc_init+0x16>
10006978:	f85d 4b04 	ldr.w	r4, [sp], #4
1000697c:	4770      	bx	lr
1000697e:	bf00      	nop
10006980:	40048000 	.word	0x40048000
10006984:	4004a000 	.word	0x4004a000
10006988:	00fab000 	.word	0x00fab000

1000698c <first_per_core_initializer>:
1000698c:	4770      	bx	lr
1000698e:	bf00      	nop

10006990 <hard_assertion_failure>:
10006990:	b508      	push	{r3, lr}
10006992:	4801      	ldr	r0, [pc, #4]	@ (10006998 <hard_assertion_failure+0x8>)
10006994:	f7fe ff2a 	bl	100057ec <panic>
10006998:	1000d9e8 	.word	0x1000d9e8

1000699c <runtime_run_initializers>:
1000699c:	b538      	push	{r3, r4, r5, lr}
1000699e:	4c05      	ldr	r4, [pc, #20]	@ (100069b4 <runtime_run_initializers+0x18>)
100069a0:	4d05      	ldr	r5, [pc, #20]	@ (100069b8 <runtime_run_initializers+0x1c>)
100069a2:	42ac      	cmp	r4, r5
100069a4:	d204      	bcs.n	100069b0 <runtime_run_initializers+0x14>
100069a6:	f854 3b04 	ldr.w	r3, [r4], #4
100069aa:	4798      	blx	r3
100069ac:	42ac      	cmp	r4, r5
100069ae:	d3fa      	bcc.n	100069a6 <runtime_run_initializers+0xa>
100069b0:	bd38      	pop	{r3, r4, r5, pc}
100069b2:	bf00      	nop
100069b4:	1000d558 	.word	0x1000d558
100069b8:	1000d598 	.word	0x1000d598

100069bc <runtime_init_early_resets>:
100069bc:	b410      	push	{r4}
100069be:	4807      	ldr	r0, [pc, #28]	@ (100069dc <runtime_init_early_resets+0x20>)
100069c0:	4c07      	ldr	r4, [pc, #28]	@ (100069e0 <runtime_init_early_resets+0x24>)
100069c2:	4b08      	ldr	r3, [pc, #32]	@ (100069e4 <runtime_init_early_resets+0x28>)
100069c4:	4a08      	ldr	r2, [pc, #32]	@ (100069e8 <runtime_init_early_resets+0x2c>)
100069c6:	4909      	ldr	r1, [pc, #36]	@ (100069ec <runtime_init_early_resets+0x30>)
100069c8:	6004      	str	r4, [r0, #0]
100069ca:	601a      	str	r2, [r3, #0]
100069cc:	688b      	ldr	r3, [r1, #8]
100069ce:	ea32 0303 	bics.w	r3, r2, r3
100069d2:	d1fb      	bne.n	100069cc <runtime_init_early_resets+0x10>
100069d4:	f85d 4b04 	ldr.w	r4, [sp], #4
100069d8:	4770      	bx	lr
100069da:	bf00      	nop
100069dc:	40022000 	.word	0x40022000
100069e0:	efef3b7f 	.word	0xefef3b7f
100069e4:	40023000 	.word	0x40023000
100069e8:	03f3fff6 	.word	0x03f3fff6
100069ec:	40020000 	.word	0x40020000

100069f0 <runtime_init_usb_power_down>:
100069f0:	4b04      	ldr	r3, [pc, #16]	@ (10006a04 <runtime_init_usb_power_down+0x14>)
100069f2:	6cdb      	ldr	r3, [r3, #76]	@ 0x4c
100069f4:	f5b3 4f00 	cmp.w	r3, #32768	@ 0x8000
100069f8:	d103      	bne.n	10006a02 <runtime_init_usb_power_down+0x12>
100069fa:	f44f 2280 	mov.w	r2, #262144	@ 0x40000
100069fe:	4b02      	ldr	r3, [pc, #8]	@ (10006a08 <runtime_init_usb_power_down+0x18>)
10006a00:	64da      	str	r2, [r3, #76]	@ 0x4c
10006a02:	4770      	bx	lr
10006a04:	50110000 	.word	0x50110000
10006a08:	50112000 	.word	0x50112000

10006a0c <runtime_init_per_core_enable_coprocessors>:
10006a0c:	f04f 22e0 	mov.w	r2, #3758153728	@ 0xe000e000
10006a10:	4b04      	ldr	r3, [pc, #16]	@ (10006a24 <runtime_init_per_core_enable_coprocessors+0x18>)
10006a12:	f8d2 1d88 	ldr.w	r1, [r2, #3464]	@ 0xd88
10006a16:	430b      	orrs	r3, r1
10006a18:	f8c2 3d88 	str.w	r3, [r2, #3464]	@ 0xd88
10006a1c:	ee10 0430 			dcp_rcmp r0
10006a20:	4770      	bx	lr
10006a22:	bf00      	nop
10006a24:	00300303 	.word	0x00300303

10006a28 <runtime_init_post_clock_resets>:
10006a28:	f06f 4160 	mvn.w	r1, #3758096384	@ 0xe0000000
10006a2c:	4b04      	ldr	r3, [pc, #16]	@ (10006a40 <runtime_init_post_clock_resets+0x18>)
10006a2e:	4a05      	ldr	r2, [pc, #20]	@ (10006a44 <runtime_init_post_clock_resets+0x1c>)
10006a30:	6019      	str	r1, [r3, #0]
10006a32:	6893      	ldr	r3, [r2, #8]
10006a34:	43db      	mvns	r3, r3
10006a36:	f033 4360 	bics.w	r3, r3, #3758096384	@ 0xe0000000
10006a3a:	d1fa      	bne.n	10006a32 <runtime_init_post_clock_resets+0xa>
10006a3c:	4770      	bx	lr
10006a3e:	bf00      	nop
10006a40:	40023000 	.word	0x40023000
10006a44:	40020000 	.word	0x40020000

10006a48 <runtime_init_bootrom_reset>:
10006a48:	b510      	push	{r4, lr}
10006a4a:	f245 2053 	movw	r0, #21075	@ 0x5253
10006a4e:	f7ff ff53 	bl	100068f8 <rom_func_lookup>
10006a52:	e8bd 4010 	ldmia.w	sp!, {r4, lr}
10006a56:	4603      	mov	r3, r0
10006a58:	2004      	movs	r0, #4
10006a5a:	4718      	bx	r3

10006a5c <runtime_init_per_core_bootrom_reset>:
10006a5c:	b510      	push	{r4, lr}
10006a5e:	f245 2053 	movw	r0, #21075	@ 0x5253
10006a62:	f7ff ff49 	bl	100068f8 <rom_func_lookup>
10006a66:	e8bd 4010 	ldmia.w	sp!, {r4, lr}
10006a6a:	4603      	mov	r3, r0
10006a6c:	2001      	movs	r0, #1
10006a6e:	4718      	bx	r3

10006a70 <runtime_init_spin_locks_reset>:
10006a70:	f7fe bf8c 	b.w	1000598c <spin_locks_reset>

10006a74 <runtime_init_install_ram_vector_table>:
10006a74:	4914      	ldr	r1, [pc, #80]	@ (10006ac8 <runtime_init_install_ram_vector_table+0x54>)
10006a76:	4b15      	ldr	r3, [pc, #84]	@ (10006acc <runtime_init_install_ram_vector_table+0x58>)
10006a78:	b570      	push	{r4, r5, r6, lr}
10006a7a:	1a5c      	subs	r4, r3, r1
10006a7c:	10a6      	asrs	r6, r4, #2
10006a7e:	2e44      	cmp	r6, #68	@ 0x44
10006a80:	4632      	mov	r2, r6
10006a82:	bf28      	it	cs
10006a84:	2244      	movcs	r2, #68	@ 0x44
10006a86:	4d12      	ldr	r5, [pc, #72]	@ (10006ad0 <runtime_init_install_ram_vector_table+0x5c>)
10006a88:	0092      	lsls	r2, r2, #2
10006a8a:	4628      	mov	r0, r5
10006a8c:	f006 fabe 	bl	1000d00c <memcpy>
10006a90:	f5b4 7f86 	cmp.w	r4, #268	@ 0x10c
10006a94:	d813      	bhi.n	10006abe <runtime_init_install_ram_vector_table+0x4a>
10006a96:	4a0f      	ldr	r2, [pc, #60]	@ (10006ad4 <runtime_init_install_ram_vector_table+0x60>)
10006a98:	f1c6 0044 	rsb	r0, r6, #68	@ 0x44
10006a9c:	d012      	beq.n	10006ac4 <runtime_init_install_ram_vector_table+0x50>
10006a9e:	192b      	adds	r3, r5, r4
10006aa0:	0841      	lsrs	r1, r0, #1
10006aa2:	eb03 01c1 	add.w	r1, r3, r1, lsl #3
10006aa6:	e9c3 2200 	strd	r2, r2, [r3]
10006aaa:	3308      	adds	r3, #8
10006aac:	428b      	cmp	r3, r1
10006aae:	d1fa      	bne.n	10006aa6 <runtime_init_install_ram_vector_table+0x32>
10006ab0:	07c3      	lsls	r3, r0, #31
10006ab2:	d504      	bpl.n	10006abe <runtime_init_install_ram_vector_table+0x4a>
10006ab4:	f020 0001 	bic.w	r0, r0, #1
10006ab8:	4430      	add	r0, r6
10006aba:	f845 2020 	str.w	r2, [r5, r0, lsl #2]
10006abe:	4b06      	ldr	r3, [pc, #24]	@ (10006ad8 <runtime_init_install_ram_vector_table+0x64>)
10006ac0:	609d      	str	r5, [r3, #8]
10006ac2:	bd70      	pop	{r4, r5, r6, pc}
10006ac4:	2043      	movs	r0, #67	@ 0x43
10006ac6:	e7f8      	b.n	10006aba <runtime_init_install_ram_vector_table+0x46>
10006ac8:	10000000 	.word	0x10000000
10006acc:	10000110 	.word	0x10000110
10006ad0:	20000000 	.word	0x20000000
10006ad4:	10000111 	.word	0x10000111
10006ad8:	e000ed00 	.word	0xe000ed00

10006adc <runtime_init_clocks>:
10006adc:	2300      	movs	r3, #0
10006ade:	b570      	push	{r4, r5, r6, lr}
10006ae0:	4c2b      	ldr	r4, [pc, #172]	@ (10006b90 <runtime_init_clocks+0xb4>)
10006ae2:	b082      	sub	sp, #8
10006ae4:	f8c4 3084 	str.w	r3, [r4, #132]	@ 0x84
10006ae8:	f7ff ff38 	bl	1000695c <xosc_init>
10006aec:	2201      	movs	r2, #1
10006aee:	4b29      	ldr	r3, [pc, #164]	@ (10006b94 <runtime_init_clocks+0xb8>)
10006af0:	63da      	str	r2, [r3, #60]	@ 0x3c
10006af2:	6c63      	ldr	r3, [r4, #68]	@ 0x44
10006af4:	2b01      	cmp	r3, #1
10006af6:	d1fc      	bne.n	10006af2 <runtime_init_clocks+0x16>
10006af8:	2103      	movs	r1, #3
10006afa:	4a26      	ldr	r2, [pc, #152]	@ (10006b94 <runtime_init_clocks+0xb8>)
10006afc:	4b24      	ldr	r3, [pc, #144]	@ (10006b90 <runtime_init_clocks+0xb4>)
10006afe:	6311      	str	r1, [r2, #48]	@ 0x30
10006b00:	6b9c      	ldr	r4, [r3, #56]	@ 0x38
10006b02:	2c01      	cmp	r4, #1
10006b04:	d1fc      	bne.n	10006b00 <runtime_init_clocks+0x24>
10006b06:	2602      	movs	r6, #2
10006b08:	2505      	movs	r5, #5
10006b0a:	4621      	mov	r1, r4
10006b0c:	2305      	movs	r3, #5
10006b0e:	4a22      	ldr	r2, [pc, #136]	@ (10006b98 <runtime_init_clocks+0xbc>)
10006b10:	4822      	ldr	r0, [pc, #136]	@ (10006b9c <runtime_init_clocks+0xc0>)
10006b12:	9600      	str	r6, [sp, #0]
10006b14:	f7ff fe38 	bl	10006788 <pll_init>
10006b18:	4621      	mov	r1, r4
10006b1a:	462b      	mov	r3, r5
10006b1c:	4a20      	ldr	r2, [pc, #128]	@ (10006ba0 <runtime_init_clocks+0xc4>)
10006b1e:	4821      	ldr	r0, [pc, #132]	@ (10006ba4 <runtime_init_clocks+0xc8>)
10006b20:	9500      	str	r5, [sp, #0]
10006b22:	f7ff fe31 	bl	10006788 <pll_init>
10006b26:	2200      	movs	r2, #0
10006b28:	2004      	movs	r0, #4
10006b2a:	4631      	mov	r1, r6
10006b2c:	4b1e      	ldr	r3, [pc, #120]	@ (10006ba8 <runtime_init_clocks+0xcc>)
10006b2e:	f7ff fdbd 	bl	100066ac <clock_configure_undivided>
10006b32:	4621      	mov	r1, r4
10006b34:	4628      	mov	r0, r5
10006b36:	2200      	movs	r2, #0
10006b38:	4b1c      	ldr	r3, [pc, #112]	@ (10006bac <runtime_init_clocks+0xd0>)
10006b3a:	f7ff fdb7 	bl	100066ac <clock_configure_undivided>
10006b3e:	2200      	movs	r2, #0
10006b40:	2008      	movs	r0, #8
10006b42:	4611      	mov	r1, r2
10006b44:	4b1a      	ldr	r3, [pc, #104]	@ (10006bb0 <runtime_init_clocks+0xd4>)
10006b46:	f7ff fdb1 	bl	100066ac <clock_configure_undivided>
10006b4a:	2200      	movs	r2, #0
10006b4c:	2009      	movs	r0, #9
10006b4e:	4611      	mov	r1, r2
10006b50:	4b17      	ldr	r3, [pc, #92]	@ (10006bb0 <runtime_init_clocks+0xd4>)
10006b52:	f7ff fdab 	bl	100066ac <clock_configure_undivided>
10006b56:	2200      	movs	r2, #0
10006b58:	2006      	movs	r0, #6
10006b5a:	4611      	mov	r1, r2
10006b5c:	4b13      	ldr	r3, [pc, #76]	@ (10006bac <runtime_init_clocks+0xd0>)
10006b5e:	f7ff fda5 	bl	100066ac <clock_configure_undivided>
10006b62:	2200      	movs	r2, #0
10006b64:	4b11      	ldr	r3, [pc, #68]	@ (10006bac <runtime_init_clocks+0xd0>)
10006b66:	2007      	movs	r0, #7
10006b68:	4611      	mov	r1, r2
10006b6a:	f7ff fd9f 	bl	100066ac <clock_configure_undivided>
10006b6e:	2004      	movs	r0, #4
10006b70:	f7ff fe04 	bl	1000677c <clock_get_hz>
10006b74:	2400      	movs	r4, #0
10006b76:	4b0f      	ldr	r3, [pc, #60]	@ (10006bb4 <runtime_init_clocks+0xd8>)
10006b78:	fba3 3500 	umull	r3, r5, r3, r0
10006b7c:	0cad      	lsrs	r5, r5, #18
10006b7e:	b2e0      	uxtb	r0, r4
10006b80:	4629      	mov	r1, r5
10006b82:	3401      	adds	r4, #1
10006b84:	f7ff fe92 	bl	100068ac <tick_start>
10006b88:	2c06      	cmp	r4, #6
10006b8a:	d1f8      	bne.n	10006b7e <runtime_init_clocks+0xa2>
10006b8c:	b002      	add	sp, #8
10006b8e:	bd70      	pop	{r4, r5, r6, pc}
10006b90:	40010000 	.word	0x40010000
10006b94:	40013000 	.word	0x40013000
10006b98:	59682f00 	.word	0x59682f00
10006b9c:	40050000 	.word	0x40050000
10006ba0:	47868c00 	.word	0x47868c00
10006ba4:	40058000 	.word	0x40058000
10006ba8:	00b71b00 	.word	0x00b71b00
10006bac:	08f0d180 	.word	0x08f0d180
10006bb0:	02dc6c00 	.word	0x02dc6c00
10006bb4:	431bde83 	.word	0x431bde83

10006bb8 <generic_save_state>:
10006bb8:	b086      	sub	sp, #24
10006bba:	b403      	push	{r0, r1}
10006bbc:	fc51 0408 	dcp_pxmd r0, r1
10006bc0:	e9cd 0102 	strd	r0, r1, [sp, #8]
10006bc4:	fc51 0409 	dcp_pymd r0, r1
10006bc8:	e9cd 0104 	strd	r0, r1, [sp, #16]
10006bcc:	ec51 040a 	dcp_refd r0, r1
10006bd0:	e9cd 0106 	strd	r0, r1, [sp, #24]
10006bd4:	bc03      	pop	{r0, r1}
10006bd6:	47f0      	blx	lr

10006bd8 <generic_restore_state>:
10006bd8:	e8bd 5000 	ldmia.w	sp!, {ip, lr}
10006bdc:	ec4e c400 	dcp_wxmd ip, lr
10006be0:	e8bd 5000 	ldmia.w	sp!, {ip, lr}
10006be4:	ec4e c401 	dcp_wymd ip, lr
10006be8:	e8bd 5000 	ldmia.w	sp!, {ip, lr}
10006bec:	ec4e c402 	dcp_wefd ip, lr
10006bf0:	bd00      	pop	{pc}
10006bf2:	0000      	movs	r0, r0
10006bf4:	b500      	push	{lr}
10006bf6:	f7ff ffdf 	bl	10006bb8 <generic_save_state>
10006bfa:	e002      	b.n	10006c02 <__wrap___aeabi_dadd+0x6>

10006bfc <__wrap___aeabi_dadd>:
10006bfc:	fe10 f430 	dcp_pcmp APSR_nzcv
10006c00:	d4f8      	bmi.n	10006bf4 <generic_restore_state+0x1c>
10006c02:	ec41 0410 	dcp_wxup r0, r1
10006c06:	ec43 2411 	dcp_wyup r2, r3
10006c0a:	ee00 0401 			dcp_add0
10006c0e:	ee10 0401 			dcp_add1
10006c12:	ee80 0420 			dcp_nrdd
10006c16:	ec51 0410 	dcp_rdda r0, r1
10006c1a:	4770      	bx	lr
10006c1c:	b500      	push	{lr}
10006c1e:	f7ff ffcb 	bl	10006bb8 <generic_save_state>
10006c22:	e002      	b.n	10006c2a <__wrap___aeabi_dsub+0x6>

10006c24 <__wrap___aeabi_dsub>:
10006c24:	fe10 f430 	dcp_pcmp APSR_nzcv
10006c28:	d4f8      	bmi.n	10006c1c <__wrap___aeabi_dadd+0x20>
10006c2a:	ec41 0410 	dcp_wxup r0, r1
10006c2e:	ec43 2411 	dcp_wyup r2, r3
10006c32:	ee00 0401 			dcp_add0
10006c36:	ee10 0421 			dcp_sub1
10006c3a:	ee80 0420 			dcp_nrdd
10006c3e:	ec51 0430 	dcp_rdds r0, r1
10006c42:	4770      	bx	lr
10006c44:	b500      	push	{lr}
10006c46:	f7ff ffb7 	bl	10006bb8 <generic_save_state>
10006c4a:	e002      	b.n	10006c52 <__wrap___aeabi_dmul+0x6>

10006c4c <__wrap___aeabi_dmul>:
10006c4c:	fe10 f430 	dcp_pcmp APSR_nzcv
10006c50:	d4f8      	bmi.n	10006c44 <__wrap___aeabi_dsub+0x20>
10006c52:	b510      	push	{r4, lr}
10006c54:	ec41 0410 	dcp_wxup r0, r1
10006c58:	ec43 2411 	dcp_wyup r2, r3
10006c5c:	ec51 0404 	dcp_rxms r0, r1, #0x0
10006c60:	ec53 2405 	dcp_ryms r2, r3, #0x0
10006c64:	fba0 4c02 	umull	r4, ip, r0, r2
10006c68:	f05f 0e00 	movs.w	lr, #0
10006c6c:	fbe0 ce03 	umlal	ip, lr, r0, r3
10006c70:	fbe1 ce02 	umlal	ip, lr, r1, r2
10006c74:	ec4c 4420 	dcp_wxms r4, ip
10006c78:	2400      	movs	r4, #0
10006c7a:	fbe1 e403 	umlal	lr, r4, r1, r3
10006c7e:	ec44 e430 	dcp_wxmo lr, r4
10006c82:	ee80 0420 			dcp_nrdd
10006c86:	ec51 0450 	dcp_rddm r0, r1
10006c8a:	e8bd 4010 	ldmia.w	sp!, {r4, lr}
10006c8e:	4770      	bx	lr
10006c90:	b500      	push	{lr}
10006c92:	f7ff ff91 	bl	10006bb8 <generic_save_state>
10006c96:	e002      	b.n	10006c9e <__wrap___aeabi_ddiv+0x6>

10006c98 <__wrap___aeabi_ddiv>:
10006c98:	fe10 f430 	dcp_pcmp APSR_nzcv
10006c9c:	d4f8      	bmi.n	10006c90 <__wrap___aeabi_dmul+0x44>
10006c9e:	ec41 0410 	dcp_wxup r0, r1
10006ca2:	ec43 2411 	dcp_wyup r2, r3
10006ca6:	ec51 0421 	dcp_rymr r0, r1
10006caa:	fba0 1201 	umull	r1, r2, r0, r1
10006cae:	ea6f 0282 	mvn.w	r2, r2, lsl #2
10006cb2:	fb52 0010 	smmlar	r0, r2, r0, r0
10006cb6:	fb52 f212 	smmulr	r2, r2, r2
10006cba:	fb52 0010 	smmlar	r0, r2, r0, r0
10006cbe:	eba0 7cd0 	sub.w	ip, r0, r0, lsr #31
10006cc2:	ec53 2404 	dcp_rxms r2, r3, #0x0
10006cc6:	fb5c f113 	smmulr	r1, ip, r3
10006cca:	ec53 2415 	dcp_ryms r2, r3, #0x1
10006cce:	fba1 2002 	umull	r2, r0, r1, r2
10006cd2:	fb01 0003 	mla	r0, r1, r3, r0
10006cd6:	ec53 2444 	dcp_rxms r2, r3, #0x4
10006cda:	eba2 0000 	sub.w	r0, r2, r0
10006cde:	fb50 f21c 	smmulr	r2, r0, ip
10006ce2:	ea4f 1311 	mov.w	r3, r1, lsr #4
10006ce6:	eb12 7001 	adds.w	r0, r2, r1, lsl #28
10006cea:	eb43 71e2 	adc.w	r1, r3, r2, asr #31
10006cee:	ea40 5051 	orr.w	r0, r0, r1, lsr #21
10006cf2:	ea20 5091 	bic.w	r0, r0, r1, lsr #22
10006cf6:	f020 0007 	bic.w	r0, r0, #7
10006cfa:	ec53 2475 	dcp_ryms r2, r3, #0x7
10006cfe:	fba0 3c02 	umull	r3, ip, r0, r2
10006d02:	ec53 2475 	dcp_ryms r2, r3, #0x7
10006d06:	fb00 cc03 	mla	ip, r0, r3, ip
10006d0a:	fb01 cc02 	mla	ip, r1, r2, ip
10006d0e:	ec53 2404 	dcp_rxms r2, r3, #0x0
10006d12:	ebac 4c82 	sub.w	ip, ip, r2, lsl #18
10006d16:	ea40 705c 	orr.w	r0, r0, ip, lsr #29
10006d1a:	f1a0 0001 	sub.w	r0, r0, #1
10006d1e:	ec41 0440 	dcp_wxdd r0, r1
10006d22:	ee80 0420 			dcp_nrdd
10006d26:	ec51 0470 	dcp_rddd r0, r1
10006d2a:	4770      	bx	lr
10006d2c:	b500      	push	{lr}
10006d2e:	f7ff ff43 	bl	10006bb8 <generic_save_state>
10006d32:	e002      	b.n	10006d3a <__wrap___aeabi_i2d+0x6>

10006d34 <__wrap___aeabi_i2d>:
10006d34:	fe10 f430 	dcp_pcmp APSR_nzcv
10006d38:	d4f8      	bmi.n	10006d2c <__wrap___aeabi_ddiv+0x94>
10006d3a:	ec40 0470 	dcp_wxic r0, r0
10006d3e:	ee00 0401 			dcp_add0
10006d42:	ee10 0421 			dcp_sub1
10006d46:	ee80 0420 			dcp_nrdd
10006d4a:	ec51 0430 	dcp_rdds r0, r1
10006d4e:	4770      	bx	lr
10006d50:	b500      	push	{lr}
10006d52:	f7ff ff31 	bl	10006bb8 <generic_save_state>
10006d56:	e002      	b.n	10006d5e <__wrap___aeabi_ui2d+0x6>

10006d58 <__wrap___aeabi_ui2d>:
10006d58:	fe10 f430 	dcp_pcmp APSR_nzcv
10006d5c:	d4f8      	bmi.n	10006d50 <__wrap___aeabi_i2d+0x1c>
10006d5e:	ec40 0460 	dcp_wxuc r0, r0
10006d62:	ee00 0401 			dcp_add0
10006d66:	ee10 0421 			dcp_sub1
10006d6a:	ee80 0420 			dcp_nrdd
10006d6e:	ec51 0430 	dcp_rdds r0, r1
10006d72:	4770      	bx	lr
10006d74:	b500      	push	{lr}
10006d76:	f7ff ff1f 	bl	10006bb8 <generic_save_state>
10006d7a:	e002      	b.n	10006d82 <double2int_z_entry>

10006d7c <__wrap___aeabi_d2iz>:
10006d7c:	fe10 f430 	dcp_pcmp APSR_nzcv
10006d80:	d4f8      	bmi.n	10006d74 <__wrap___aeabi_ui2d+0x1c>

10006d82 <double2int_z_entry>:
10006d82:	ec41 0480 	dcp_wxdc r0, r1
10006d86:	ee00 0401 			dcp_add0
10006d8a:	ee10 0401 			dcp_add1
10006d8e:	ee80 0440 			dcp_ntdc
10006d92:	ee10 0413 			dcp_rdic r0
10006d96:	4770      	bx	lr
10006d98:	b500      	push	{lr}
10006d9a:	f7ff ff0d 	bl	10006bb8 <generic_save_state>
10006d9e:	e002      	b.n	10006da6 <double2uint_z_entry>

10006da0 <__wrap___aeabi_d2uiz>:
10006da0:	fe10 f430 	dcp_pcmp APSR_nzcv
10006da4:	d4f8      	bmi.n	10006d98 <double2int_z_entry+0x16>

10006da6 <double2uint_z_entry>:
10006da6:	ec41 0480 	dcp_wxdc r0, r1
10006daa:	ee00 0401 			dcp_add0
10006dae:	ee10 0401 			dcp_add1
10006db2:	ee80 0440 			dcp_ntdc
10006db6:	ee10 0433 			dcp_rduc r0
10006dba:	4770      	bx	lr
10006dbc:	b500      	push	{lr}
10006dbe:	f7ff fefb 	bl	10006bb8 <generic_save_state>
10006dc2:	e002      	b.n	10006dca <__wrap___aeabi_dcmpun+0x6>

10006dc4 <__wrap___aeabi_dcmpun>:
10006dc4:	fe10 f430 	dcp_pcmp APSR_nzcv
10006dc8:	d4f8      	bmi.n	10006dbc <double2uint_z_entry+0x16>
10006dca:	ec41 0410 	dcp_wxup r0, r1
10006dce:	ec43 2411 	dcp_wyup r2, r3
10006dd2:	ee00 0401 			dcp_add0
10006dd6:	ee10 0430 			dcp_rcmp r0
10006dda:	f3c0 7000 	ubfx	r0, r0, #28, #1
10006dde:	4770      	bx	lr
10006de0:	b500      	push	{lr}
10006de2:	f7ff fee9 	bl	10006bb8 <generic_save_state>
10006de6:	e002      	b.n	10006dee <__wrap___aeabi_dcmplt+0x6>

10006de8 <__wrap___aeabi_dcmplt>:
10006de8:	fe10 f430 	dcp_pcmp APSR_nzcv
10006dec:	d4f8      	bmi.n	10006de0 <__wrap___aeabi_dcmpun+0x1c>
10006dee:	ec43 2410 	dcp_wxup r2, r3
10006df2:	ec41 0411 	dcp_wyup r0, r1
10006df6:	ee00 0401 			dcp_add0
10006dfa:	ee10 f430 			dcp_rcmp APSR_nzcv
10006dfe:	bf8c      	ite	hi
10006e00:	2001      	movhi	r0, #1
10006e02:	2000      	movls	r0, #0
10006e04:	4770      	bx	lr
10006e06:	bf00      	nop
10006e08:	b500      	push	{lr}
10006e0a:	f7ff fed5 	bl	10006bb8 <generic_save_state>
10006e0e:	e002      	b.n	10006e16 <__wrap___aeabi_dcmple+0x6>

10006e10 <__wrap___aeabi_dcmple>:
10006e10:	fe10 f430 	dcp_pcmp APSR_nzcv
10006e14:	d4f8      	bmi.n	10006e08 <__wrap___aeabi_dcmplt+0x20>
10006e16:	ec43 2410 	dcp_wxup r2, r3
10006e1a:	ec41 0411 	dcp_wyup r0, r1
10006e1e:	ee00 0401 			dcp_add0
10006e22:	ee10 f430 			dcp_rcmp APSR_nzcv
10006e26:	bf2c      	ite	cs
10006e28:	2001      	movcs	r0, #1
10006e2a:	2000      	movcc	r0, #0
10006e2c:	4770      	bx	lr
10006e2e:	bf00      	nop
10006e30:	b500      	push	{lr}
10006e32:	f7ff fec1 	bl	10006bb8 <generic_save_state>
10006e36:	e002      	b.n	10006e3e <__wrap___aeabi_dcmpge+0x6>

10006e38 <__wrap___aeabi_dcmpge>:
10006e38:	fe10 f430 	dcp_pcmp APSR_nzcv
10006e3c:	d4f8      	bmi.n	10006e30 <__wrap___aeabi_dcmple+0x20>
10006e3e:	ec41 0410 	dcp_wxup r0, r1
10006e42:	ec43 2411 	dcp_wyup r2, r3
10006e46:	ee00 0401 			dcp_add0
10006e4a:	ee10 f430 			dcp_rcmp APSR_nzcv
10006e4e:	bf2c      	ite	cs
10006e50:	2001      	movcs	r0, #1
10006e52:	2000      	movcc	r0, #0
10006e54:	4770      	bx	lr
10006e56:	bf00      	nop
10006e58:	b500      	push	{lr}
10006e5a:	f7ff fead 	bl	10006bb8 <generic_save_state>
10006e5e:	e002      	b.n	10006e66 <__wrap___aeabi_dcmpgt+0x6>

10006e60 <__wrap___aeabi_dcmpgt>:
10006e60:	fe10 f430 	dcp_pcmp APSR_nzcv
10006e64:	d4f8      	bmi.n	10006e58 <__wrap___aeabi_dcmpge+0x20>
10006e66:	ec41 0410 	dcp_wxup r0, r1
10006e6a:	ec43 2411 	dcp_wyup r2, r3
10006e6e:	ee00 0401 			dcp_add0
10006e72:	ee10 f430 			dcp_rcmp APSR_nzcv
10006e76:	bf8c      	ite	hi
10006e78:	2001      	movhi	r0, #1
10006e7a:	2000      	movls	r0, #0
10006e7c:	4770      	bx	lr
10006e7e:	bf00      	nop

10006e80 <__wrap___aeabi_l2f>:
10006e80:	2200      	movs	r2, #0

10006e82 <fix642float>:
10006e82:	2900      	cmp	r1, #0
10006e84:	f280 80a9 	bge.w	10006fda <ufix642float>
10006e88:	4240      	negs	r0, r0
10006e8a:	eb61 0141 	sbc.w	r1, r1, r1, lsl #1
10006e8e:	b3b1      	cbz	r1, 10006efe <fix642float+0x7c>
10006e90:	fab1 f381 	clz	r3, r1
10006e94:	3b08      	subs	r3, #8
10006e96:	d416      	bmi.n	10006ec6 <fix642float+0x44>
10006e98:	4099      	lsls	r1, r3
10006e9a:	fa10 fc03 	lsls.w	ip, r0, r3
10006e9e:	f1c3 0320 	rsb	r3, r3, #32
10006ea2:	fa20 f003 	lsr.w	r0, r0, r3
10006ea6:	ea40 0001 	orr.w	r0, r0, r1
10006eaa:	eba2 0203 	sub.w	r2, r2, r3
10006eae:	f1c2 0295 	rsb	r2, r2, #149	@ 0x95
10006eb2:	eb1c 0c0c 	adds.w	ip, ip, ip
10006eb6:	eb40 50c2 	adc.w	r0, r0, r2, lsl #23
10006eba:	f040 4000 	orr.w	r0, r0, #2147483648	@ 0x80000000
10006ebe:	d020      	beq.n	10006f02 <fix642float+0x80>
10006ec0:	2afe      	cmp	r2, #254	@ 0xfe
10006ec2:	d216      	bcs.n	10006ef2 <fix642float+0x70>
10006ec4:	4770      	bx	lr
10006ec6:	f103 0321 	add.w	r3, r3, #33	@ 0x21
10006eca:	fa11 fc03 	lsls.w	ip, r1, r3
10006ece:	ea5c 0c00 	orrs.w	ip, ip, r0
10006ed2:	f1c3 0321 	rsb	r3, r3, #33	@ 0x21
10006ed6:	fa21 f003 	lsr.w	r0, r1, r3
10006eda:	eba3 0202 	sub.w	r2, r3, r2
10006ede:	f102 02b5 	add.w	r2, r2, #181	@ 0xb5
10006ee2:	eb40 50c2 	adc.w	r0, r0, r2, lsl #23
10006ee6:	f040 4000 	orr.w	r0, r0, #2147483648	@ 0x80000000
10006eea:	d00a      	beq.n	10006f02 <fix642float+0x80>
10006eec:	2afe      	cmp	r2, #254	@ 0xfe
10006eee:	bf38      	it	cc
10006ef0:	4770      	bxcc	lr
10006ef2:	f04f 4000 	mov.w	r0, #2147483648	@ 0x80000000
10006ef6:	bfa8      	it	ge
10006ef8:	f6cf 7080 	movtge	r0, #65408	@ 0xff80
10006efc:	4770      	bx	lr
10006efe:	4611      	mov	r1, r2
10006f00:	e00a      	b.n	10006f18 <fix2float_neg>
10006f02:	bf28      	it	cs
10006f04:	f020 0001 	biccs.w	r0, r0, #1
10006f08:	2afe      	cmp	r2, #254	@ 0xfe
10006f0a:	bf38      	it	cc
10006f0c:	4770      	bxcc	lr
10006f0e:	e7f0      	b.n	10006ef2 <fix642float+0x70>

10006f10 <fix2float>:
10006f10:	2800      	cmp	r0, #0
10006f12:	f280 8033 	bge.w	10006f7c <ufix2float>
10006f16:	4240      	negs	r0, r0

10006f18 <fix2float_neg>:
10006f18:	fab0 f380 	clz	r3, r0
10006f1c:	3b08      	subs	r3, #8
10006f1e:	d40c      	bmi.n	10006f3a <fix2float_neg+0x22>
10006f20:	4098      	lsls	r0, r3
10006f22:	eb01 0203 	add.w	r2, r1, r3
10006f26:	f1c2 0295 	rsb	r2, r2, #149	@ 0x95
10006f2a:	eb00 50c2 	add.w	r0, r0, r2, lsl #23
10006f2e:	f040 4000 	orr.w	r0, r0, #2147483648	@ 0x80000000
10006f32:	2afe      	cmp	r2, #254	@ 0xfe
10006f34:	bf38      	it	cc
10006f36:	4770      	bxcc	lr
10006f38:	e013      	b.n	10006f62 <fix2float_neg+0x4a>
10006f3a:	f103 0321 	add.w	r3, r3, #33	@ 0x21
10006f3e:	fa10 fc03 	lsls.w	ip, r0, r3
10006f42:	f1c3 0321 	rsb	r3, r3, #33	@ 0x21
10006f46:	fa20 f003 	lsr.w	r0, r0, r3
10006f4a:	eba3 0201 	sub.w	r2, r3, r1
10006f4e:	f102 0295 	add.w	r2, r2, #149	@ 0x95
10006f52:	eb40 50c2 	adc.w	r0, r0, r2, lsl #23
10006f56:	f040 4000 	orr.w	r0, r0, #2147483648	@ 0x80000000
10006f5a:	d008      	beq.n	10006f6e <fix2float_neg+0x56>
10006f5c:	2afe      	cmp	r2, #254	@ 0xfe
10006f5e:	bf38      	it	cc
10006f60:	4770      	bxcc	lr
10006f62:	f04f 4000 	mov.w	r0, #2147483648	@ 0x80000000
10006f66:	bfa8      	it	ge
10006f68:	f040 40ff 	orrge.w	r0, r0, #2139095040	@ 0x7f800000
10006f6c:	4770      	bx	lr
10006f6e:	bf28      	it	cs
10006f70:	f020 0001 	biccs.w	r0, r0, #1
10006f74:	2afe      	cmp	r2, #254	@ 0xfe
10006f76:	bf38      	it	cc
10006f78:	4770      	bxcc	lr
10006f7a:	e7f2      	b.n	10006f62 <fix2float_neg+0x4a>

10006f7c <ufix2float>:
10006f7c:	b320      	cbz	r0, 10006fc8 <ufix2float+0x4c>
10006f7e:	fab0 f380 	clz	r3, r0
10006f82:	3b08      	subs	r3, #8
10006f84:	d40a      	bmi.n	10006f9c <ufix2float+0x20>
10006f86:	4098      	lsls	r0, r3
10006f88:	eb01 0203 	add.w	r2, r1, r3
10006f8c:	f1c2 0295 	rsb	r2, r2, #149	@ 0x95
10006f90:	eb00 50c2 	add.w	r0, r0, r2, lsl #23
10006f94:	2afe      	cmp	r2, #254	@ 0xfe
10006f96:	bf38      	it	cc
10006f98:	4770      	bxcc	lr
10006f9a:	e011      	b.n	10006fc0 <ufix2float+0x44>
10006f9c:	f103 0321 	add.w	r3, r3, #33	@ 0x21
10006fa0:	fa10 fc03 	lsls.w	ip, r0, r3
10006fa4:	f1c3 0321 	rsb	r3, r3, #33	@ 0x21
10006fa8:	fa20 f003 	lsr.w	r0, r0, r3
10006fac:	eba3 0201 	sub.w	r2, r3, r1
10006fb0:	f102 0295 	add.w	r2, r2, #149	@ 0x95
10006fb4:	eb40 50c2 	adc.w	r0, r0, r2, lsl #23
10006fb8:	d007      	beq.n	10006fca <ufix2float+0x4e>
10006fba:	2afe      	cmp	r2, #254	@ 0xfe
10006fbc:	bf38      	it	cc
10006fbe:	4770      	bxcc	lr
10006fc0:	bfac      	ite	ge
10006fc2:	f04f 40ff 	movge.w	r0, #2139095040	@ 0x7f800000
10006fc6:	2000      	movlt	r0, #0
10006fc8:	4770      	bx	lr
10006fca:	bf28      	it	cs
10006fcc:	f020 0001 	biccs.w	r0, r0, #1
10006fd0:	2afe      	cmp	r2, #254	@ 0xfe
10006fd2:	bf38      	it	cc
10006fd4:	4770      	bxcc	lr
10006fd6:	e7f3      	b.n	10006fc0 <ufix2float+0x44>

10006fd8 <__wrap___aeabi_ul2f>:
10006fd8:	2200      	movs	r2, #0

10006fda <ufix642float>:
10006fda:	b389      	cbz	r1, 10007040 <ufix642float+0x66>
10006fdc:	fab1 f381 	clz	r3, r1
10006fe0:	3b08      	subs	r3, #8
10006fe2:	d414      	bmi.n	1000700e <ufix642float+0x34>
10006fe4:	4099      	lsls	r1, r3
10006fe6:	fa10 fc03 	lsls.w	ip, r0, r3
10006fea:	f1c3 0320 	rsb	r3, r3, #32
10006fee:	fa20 f003 	lsr.w	r0, r0, r3
10006ff2:	ea40 0001 	orr.w	r0, r0, r1
10006ff6:	eba2 0203 	sub.w	r2, r2, r3
10006ffa:	f1c2 0295 	rsb	r2, r2, #149	@ 0x95
10006ffe:	eb1c 0c0c 	adds.w	ip, ip, ip
10007002:	eb40 50c2 	adc.w	r0, r0, r2, lsl #23
10007006:	d01e      	beq.n	10007046 <ufix642float+0x6c>
10007008:	2afe      	cmp	r2, #254	@ 0xfe
1000700a:	d214      	bcs.n	10007036 <ufix642float+0x5c>
1000700c:	4770      	bx	lr
1000700e:	f103 0321 	add.w	r3, r3, #33	@ 0x21
10007012:	fa11 fc03 	lsls.w	ip, r1, r3
10007016:	ea5c 0c00 	orrs.w	ip, ip, r0
1000701a:	f1c3 0321 	rsb	r3, r3, #33	@ 0x21
1000701e:	fa21 f003 	lsr.w	r0, r1, r3
10007022:	eba3 0202 	sub.w	r2, r3, r2
10007026:	f102 02b5 	add.w	r2, r2, #181	@ 0xb5
1000702a:	eb40 50c2 	adc.w	r0, r0, r2, lsl #23
1000702e:	d00a      	beq.n	10007046 <ufix642float+0x6c>
10007030:	2afe      	cmp	r2, #254	@ 0xfe
10007032:	bf38      	it	cc
10007034:	4770      	bxcc	lr
10007036:	bfac      	ite	ge
10007038:	f04f 40ff 	movge.w	r0, #2139095040	@ 0x7f800000
1000703c:	2000      	movlt	r0, #0
1000703e:	4770      	bx	lr
10007040:	4611      	mov	r1, r2
10007042:	f7ff bf9b 	b.w	10006f7c <ufix2float>
10007046:	bf28      	it	cs
10007048:	f020 0001 	biccs.w	r0, r0, #1
1000704c:	2afe      	cmp	r2, #254	@ 0xfe
1000704e:	bf38      	it	cc
10007050:	4770      	bxcc	lr
10007052:	e7f0      	b.n	10007036 <ufix642float+0x5c>

10007054 <__wrap_malloc>:
10007054:	b510      	push	{r4, lr}
10007056:	4604      	mov	r4, r0
10007058:	f005 f930 	bl	1000c2bc <malloc>
1000705c:	b128      	cbz	r0, 1000706a <__wrap_malloc+0x16>
1000705e:	4603      	mov	r3, r0
10007060:	4a03      	ldr	r2, [pc, #12]	@ (10007070 <__wrap_malloc+0x1c>)
10007062:	4423      	add	r3, r4
10007064:	4293      	cmp	r3, r2
10007066:	d800      	bhi.n	1000706a <__wrap_malloc+0x16>
10007068:	bd10      	pop	{r4, pc}
1000706a:	4802      	ldr	r0, [pc, #8]	@ (10007074 <__wrap_malloc+0x20>)
1000706c:	f7fe fbbe 	bl	100057ec <panic>
10007070:	20080000 	.word	0x20080000
10007074:	1000d9f4 	.word	0x1000d9f4

10007078 <__wrap_free>:
10007078:	f005 b928 	b.w	1000c2cc <free>

1000707c <_Znaj>:
1000707c:	f7ff bfea 	b.w	10007054 <__wrap_malloc>

10007080 <_ZdaPv>:
10007080:	f7ff bffa 	b.w	10007078 <__wrap_free>

10007084 <_ZdlPvj>:
10007084:	f7ff bff8 	b.w	10007078 <__wrap_free>

10007088 <_out_buffer>:
10007088:	429a      	cmp	r2, r3
1000708a:	bf38      	it	cc
1000708c:	5488      	strbcc	r0, [r1, r2]
1000708e:	4770      	bx	lr

10007090 <_out_null>:
10007090:	4770      	bx	lr
10007092:	bf00      	nop

10007094 <_out_rev>:
10007094:	e92d 4ff0 	stmdb	sp!, {r4, r5, r6, r7, r8, r9, sl, fp, lr}
10007098:	b083      	sub	sp, #12
1000709a:	4699      	mov	r9, r3
1000709c:	e9dd ab0d 	ldrd	sl, fp, [sp, #52]	@ 0x34
100070a0:	9b0f      	ldr	r3, [sp, #60]	@ 0x3c
100070a2:	4688      	mov	r8, r1
100070a4:	4611      	mov	r1, r2
100070a6:	079a      	lsls	r2, r3, #30
100070a8:	4607      	mov	r7, r0
100070aa:	d116      	bne.n	100070da <_out_rev+0x46>
100070ac:	45da      	cmp	sl, fp
100070ae:	d23a      	bcs.n	10007126 <_out_rev+0x92>
100070b0:	460c      	mov	r4, r1
100070b2:	460d      	mov	r5, r1
100070b4:	ebab 060a 	sub.w	r6, fp, sl
100070b8:	440e      	add	r6, r1
100070ba:	4622      	mov	r2, r4
100070bc:	464b      	mov	r3, r9
100070be:	4641      	mov	r1, r8
100070c0:	2020      	movs	r0, #32
100070c2:	3401      	adds	r4, #1
100070c4:	47b8      	blx	r7
100070c6:	42b4      	cmp	r4, r6
100070c8:	d1f7      	bne.n	100070ba <_out_rev+0x26>
100070ca:	4629      	mov	r1, r5
100070cc:	f1ba 0f00 	cmp.w	sl, #0
100070d0:	d108      	bne.n	100070e4 <_out_rev+0x50>
100070d2:	4620      	mov	r0, r4
100070d4:	b003      	add	sp, #12
100070d6:	e8bd 8ff0 	ldmia.w	sp!, {r4, r5, r6, r7, r8, r9, sl, fp, pc}
100070da:	460c      	mov	r4, r1
100070dc:	f1ba 0f00 	cmp.w	sl, #0
100070e0:	d010      	beq.n	10007104 <_out_rev+0x70>
100070e2:	460e      	mov	r6, r1
100070e4:	4655      	mov	r5, sl
100070e6:	9b0c      	ldr	r3, [sp, #48]	@ 0x30
100070e8:	442e      	add	r6, r5
100070ea:	449a      	add	sl, r3
100070ec:	9101      	str	r1, [sp, #4]
100070ee:	1b72      	subs	r2, r6, r5
100070f0:	464b      	mov	r3, r9
100070f2:	3d01      	subs	r5, #1
100070f4:	4641      	mov	r1, r8
100070f6:	f81a 0d01 	ldrb.w	r0, [sl, #-1]!
100070fa:	4634      	mov	r4, r6
100070fc:	47b8      	blx	r7
100070fe:	2d00      	cmp	r5, #0
10007100:	d1f5      	bne.n	100070ee <_out_rev+0x5a>
10007102:	9901      	ldr	r1, [sp, #4]
10007104:	9b0f      	ldr	r3, [sp, #60]	@ 0x3c
10007106:	079b      	lsls	r3, r3, #30
10007108:	d5e3      	bpl.n	100070d2 <_out_rev+0x3e>
1000710a:	1a65      	subs	r5, r4, r1
1000710c:	45ab      	cmp	fp, r5
1000710e:	d9e0      	bls.n	100070d2 <_out_rev+0x3e>
10007110:	4622      	mov	r2, r4
10007112:	464b      	mov	r3, r9
10007114:	4641      	mov	r1, r8
10007116:	2020      	movs	r0, #32
10007118:	3501      	adds	r5, #1
1000711a:	47b8      	blx	r7
1000711c:	455d      	cmp	r5, fp
1000711e:	f104 0401 	add.w	r4, r4, #1
10007122:	d3f5      	bcc.n	10007110 <_out_rev+0x7c>
10007124:	e7d5      	b.n	100070d2 <_out_rev+0x3e>
10007126:	460c      	mov	r4, r1
10007128:	f1ba 0f00 	cmp.w	sl, #0
1000712c:	d1d9      	bne.n	100070e2 <_out_rev+0x4e>
1000712e:	e7d0      	b.n	100070d2 <_out_rev+0x3e>

10007130 <_ntoa_format>:
10007130:	e92d 4ff0 	stmdb	sp!, {r4, r5, r6, r7, r8, r9, sl, fp, lr}
10007134:	9f0f      	ldr	r7, [sp, #60]	@ 0x3c
10007136:	f8dd 8024 	ldr.w	r8, [sp, #36]	@ 0x24
1000713a:	f017 0f02 	tst.w	r7, #2
1000713e:	9c0a      	ldr	r4, [sp, #40]	@ 0x28
10007140:	f89d a02c 	ldrb.w	sl, [sp, #44]	@ 0x2c
10007144:	9d0e      	ldr	r5, [sp, #56]	@ 0x38
10007146:	e9dd 960c 	ldrd	r9, r6, [sp, #48]	@ 0x30
1000714a:	d144      	bne.n	100071d6 <_ntoa_format+0xa6>
1000714c:	bbf5      	cbnz	r5, 100071cc <_ntoa_format+0x9c>
1000714e:	42b4      	cmp	r4, r6
10007150:	d241      	bcs.n	100071d6 <_ntoa_format+0xa6>
10007152:	f007 0b01 	and.w	fp, r7, #1
10007156:	f104 3cff 	add.w	ip, r4, #4294967295
1000715a:	f04f 0e30 	mov.w	lr, #48	@ 0x30
1000715e:	44c4      	add	ip, r8
10007160:	e004      	b.n	1000716c <_ntoa_format+0x3c>
10007162:	3401      	adds	r4, #1
10007164:	42a6      	cmp	r6, r4
10007166:	f80c ef01 	strb.w	lr, [ip, #1]!
1000716a:	d901      	bls.n	10007170 <_ntoa_format+0x40>
1000716c:	2c20      	cmp	r4, #32
1000716e:	d1f8      	bne.n	10007162 <_ntoa_format+0x32>
10007170:	f1bb 0f00 	cmp.w	fp, #0
10007174:	f000 8088 	beq.w	10007288 <_ntoa_format+0x158>
10007178:	42a5      	cmp	r5, r4
1000717a:	d92c      	bls.n	100071d6 <_ntoa_format+0xa6>
1000717c:	f104 3cff 	add.w	ip, r4, #4294967295
10007180:	f04f 0e30 	mov.w	lr, #48	@ 0x30
10007184:	44c4      	add	ip, r8
10007186:	e004      	b.n	10007192 <_ntoa_format+0x62>
10007188:	3401      	adds	r4, #1
1000718a:	42ac      	cmp	r4, r5
1000718c:	f80c ef01 	strb.w	lr, [ip, #1]!
10007190:	d021      	beq.n	100071d6 <_ntoa_format+0xa6>
10007192:	2c20      	cmp	r4, #32
10007194:	d1f8      	bne.n	10007188 <_ntoa_format+0x58>
10007196:	f017 0f10 	tst.w	r7, #16
1000719a:	d00e      	beq.n	100071ba <_ntoa_format+0x8a>
1000719c:	f417 6f80 	tst.w	r7, #1024	@ 0x400
100071a0:	d154      	bne.n	1000724c <_ntoa_format+0x11c>
100071a2:	42a6      	cmp	r6, r4
100071a4:	d063      	beq.n	1000726e <_ntoa_format+0x13e>
100071a6:	42a5      	cmp	r5, r4
100071a8:	d061      	beq.n	1000726e <_ntoa_format+0x13e>
100071aa:	f1b9 0f10 	cmp.w	r9, #16
100071ae:	d050      	beq.n	10007252 <_ntoa_format+0x122>
100071b0:	f1b9 0f02 	cmp.w	r9, #2
100071b4:	d056      	beq.n	10007264 <_ntoa_format+0x134>
100071b6:	2c20      	cmp	r4, #32
100071b8:	d129      	bne.n	1000720e <_ntoa_format+0xde>
100071ba:	2420      	movs	r4, #32
100071bc:	e9cd 570b 	strd	r5, r7, [sp, #44]	@ 0x2c
100071c0:	e9cd 8409 	strd	r8, r4, [sp, #36]	@ 0x24
100071c4:	e8bd 4ff0 	ldmia.w	sp!, {r4, r5, r6, r7, r8, r9, sl, fp, lr}
100071c8:	f7ff bf64 	b.w	10007094 <_out_rev>
100071cc:	f017 0b01 	ands.w	fp, r7, #1
100071d0:	d134      	bne.n	1000723c <_ntoa_format+0x10c>
100071d2:	42b4      	cmp	r4, r6
100071d4:	d3bf      	bcc.n	10007156 <_ntoa_format+0x26>
100071d6:	f017 0f10 	tst.w	r7, #16
100071da:	d01e      	beq.n	1000721a <_ntoa_format+0xea>
100071dc:	f417 6f80 	tst.w	r7, #1024	@ 0x400
100071e0:	d1e3      	bne.n	100071aa <_ntoa_format+0x7a>
100071e2:	2c00      	cmp	r4, #0
100071e4:	d1dd      	bne.n	100071a2 <_ntoa_format+0x72>
100071e6:	f1b9 0f10 	cmp.w	r9, #16
100071ea:	d063      	beq.n	100072b4 <_ntoa_format+0x184>
100071ec:	f1b9 0f02 	cmp.w	r9, #2
100071f0:	d077      	beq.n	100072e2 <_ntoa_format+0x1b2>
100071f2:	2430      	movs	r4, #48	@ 0x30
100071f4:	f888 4000 	strb.w	r4, [r8]
100071f8:	2401      	movs	r4, #1
100071fa:	f1ba 0f00 	cmp.w	sl, #0
100071fe:	d111      	bne.n	10007224 <_ntoa_format+0xf4>
10007200:	077e      	lsls	r6, r7, #29
10007202:	d548      	bpl.n	10007296 <_ntoa_format+0x166>
10007204:	262b      	movs	r6, #43	@ 0x2b
10007206:	f808 6004 	strb.w	r6, [r8, r4]
1000720a:	3401      	adds	r4, #1
1000720c:	e7d6      	b.n	100071bc <_ntoa_format+0x8c>
1000720e:	4626      	mov	r6, r4
10007210:	3401      	adds	r4, #1
10007212:	f04f 0c30 	mov.w	ip, #48	@ 0x30
10007216:	f808 c006 	strb.w	ip, [r8, r6]
1000721a:	2c20      	cmp	r4, #32
1000721c:	d0cd      	beq.n	100071ba <_ntoa_format+0x8a>
1000721e:	f1ba 0f00 	cmp.w	sl, #0
10007222:	d0ed      	beq.n	10007200 <_ntoa_format+0xd0>
10007224:	262d      	movs	r6, #45	@ 0x2d
10007226:	f808 6004 	strb.w	r6, [r8, r4]
1000722a:	3401      	adds	r4, #1
1000722c:	e9cd 570b 	strd	r5, r7, [sp, #44]	@ 0x2c
10007230:	e9cd 8409 	strd	r8, r4, [sp, #36]	@ 0x24
10007234:	e8bd 4ff0 	ldmia.w	sp!, {r4, r5, r6, r7, r8, r9, sl, fp, lr}
10007238:	f7ff bf2c 	b.w	10007094 <_out_rev>
1000723c:	f1ba 0f00 	cmp.w	sl, #0
10007240:	d030      	beq.n	100072a4 <_ntoa_format+0x174>
10007242:	42b4      	cmp	r4, r6
10007244:	f105 35ff 	add.w	r5, r5, #4294967295
10007248:	d385      	bcc.n	10007156 <_ntoa_format+0x26>
1000724a:	e795      	b.n	10007178 <_ntoa_format+0x48>
1000724c:	f1b9 0f10 	cmp.w	r9, #16
10007250:	d1b3      	bne.n	100071ba <_ntoa_format+0x8a>
10007252:	06be      	lsls	r6, r7, #26
10007254:	d53b      	bpl.n	100072ce <_ntoa_format+0x19e>
10007256:	2c20      	cmp	r4, #32
10007258:	d0af      	beq.n	100071ba <_ntoa_format+0x8a>
1000725a:	2658      	movs	r6, #88	@ 0x58
1000725c:	f808 6004 	strb.w	r6, [r8, r4]
10007260:	3401      	adds	r4, #1
10007262:	e7a8      	b.n	100071b6 <_ntoa_format+0x86>
10007264:	2c20      	cmp	r4, #32
10007266:	d0a8      	beq.n	100071ba <_ntoa_format+0x8a>
10007268:	4626      	mov	r6, r4
1000726a:	3401      	adds	r4, #1
1000726c:	e007      	b.n	1000727e <_ntoa_format+0x14e>
1000726e:	1e66      	subs	r6, r4, #1
10007270:	d0b9      	beq.n	100071e6 <_ntoa_format+0xb6>
10007272:	f1b9 0f10 	cmp.w	r9, #16
10007276:	d036      	beq.n	100072e6 <_ntoa_format+0x1b6>
10007278:	f1b9 0f02 	cmp.w	r9, #2
1000727c:	d1c9      	bne.n	10007212 <_ntoa_format+0xe2>
1000727e:	f04f 0c62 	mov.w	ip, #98	@ 0x62
10007282:	f808 c006 	strb.w	ip, [r8, r6]
10007286:	e796      	b.n	100071b6 <_ntoa_format+0x86>
10007288:	f017 0f10 	tst.w	r7, #16
1000728c:	d0c5      	beq.n	1000721a <_ntoa_format+0xea>
1000728e:	f417 6f80 	tst.w	r7, #1024	@ 0x400
10007292:	d086      	beq.n	100071a2 <_ntoa_format+0x72>
10007294:	e789      	b.n	100071aa <_ntoa_format+0x7a>
10007296:	073e      	lsls	r6, r7, #28
10007298:	d590      	bpl.n	100071bc <_ntoa_format+0x8c>
1000729a:	2620      	movs	r6, #32
1000729c:	f808 6004 	strb.w	r6, [r8, r4]
100072a0:	3401      	adds	r4, #1
100072a2:	e78b      	b.n	100071bc <_ntoa_format+0x8c>
100072a4:	f017 0f0c 	tst.w	r7, #12
100072a8:	d000      	beq.n	100072ac <_ntoa_format+0x17c>
100072aa:	3d01      	subs	r5, #1
100072ac:	42b4      	cmp	r4, r6
100072ae:	f4ff af52 	bcc.w	10007156 <_ntoa_format+0x26>
100072b2:	e761      	b.n	10007178 <_ntoa_format+0x48>
100072b4:	06bc      	lsls	r4, r7, #26
100072b6:	d412      	bmi.n	100072de <_ntoa_format+0x1ae>
100072b8:	2478      	movs	r4, #120	@ 0x78
100072ba:	f888 4000 	strb.w	r4, [r8]
100072be:	2430      	movs	r4, #48	@ 0x30
100072c0:	f888 4001 	strb.w	r4, [r8, #1]
100072c4:	2402      	movs	r4, #2
100072c6:	f1ba 0f00 	cmp.w	sl, #0
100072ca:	d099      	beq.n	10007200 <_ntoa_format+0xd0>
100072cc:	e7aa      	b.n	10007224 <_ntoa_format+0xf4>
100072ce:	2c20      	cmp	r4, #32
100072d0:	f43f af73 	beq.w	100071ba <_ntoa_format+0x8a>
100072d4:	2678      	movs	r6, #120	@ 0x78
100072d6:	f808 6004 	strb.w	r6, [r8, r4]
100072da:	3401      	adds	r4, #1
100072dc:	e76b      	b.n	100071b6 <_ntoa_format+0x86>
100072de:	2458      	movs	r4, #88	@ 0x58
100072e0:	e7eb      	b.n	100072ba <_ntoa_format+0x18a>
100072e2:	2462      	movs	r4, #98	@ 0x62
100072e4:	e7e9      	b.n	100072ba <_ntoa_format+0x18a>
100072e6:	f017 0f20 	tst.w	r7, #32
100072ea:	f1a4 0c02 	sub.w	ip, r4, #2
100072ee:	d004      	beq.n	100072fa <_ntoa_format+0x1ca>
100072f0:	f04f 0e58 	mov.w	lr, #88	@ 0x58
100072f4:	f808 e00c 	strb.w	lr, [r8, ip]
100072f8:	e78b      	b.n	10007212 <_ntoa_format+0xe2>
100072fa:	f04f 0e78 	mov.w	lr, #120	@ 0x78
100072fe:	f808 e00c 	strb.w	lr, [r8, ip]
10007302:	e786      	b.n	10007212 <_ntoa_format+0xe2>

10007304 <_out_char>:
10007304:	b900      	cbnz	r0, 10007308 <_out_char+0x4>
10007306:	4770      	bx	lr
10007308:	f001 bb9a 	b.w	10008a40 <__wrap_putchar>

1000730c <_out_fct>:
1000730c:	b110      	cbz	r0, 10007314 <_out_fct+0x8>
1000730e:	e9d1 3100 	ldrd	r3, r1, [r1]
10007312:	4718      	bx	r3
10007314:	4770      	bx	lr
10007316:	bf00      	nop

10007318 <_ftoa>:
10007318:	e92d 4ff0 	stmdb	sp!, {r4, r5, r6, r7, r8, r9, sl, fp, lr}
1000731c:	b097      	sub	sp, #92	@ 0x5c
1000731e:	ed9d 7b20 	vldr	d7, [sp, #128]	@ 0x80
10007322:	e9dd 5b22 	ldrd	r5, fp, [sp, #136]	@ 0x88
10007326:	4607      	mov	r7, r0
10007328:	4688      	mov	r8, r1
1000732a:	ec51 0b17 	vmov	r0, r1, d7
1000732e:	9c24      	ldr	r4, [sp, #144]	@ 0x90
10007330:	4699      	mov	r9, r3
10007332:	920c      	str	r2, [sp, #48]	@ 0x30
10007334:	460b      	mov	r3, r1
10007336:	4602      	mov	r2, r0
10007338:	ed8d 7b04 	vstr	d7, [sp, #16]
1000733c:	9407      	str	r4, [sp, #28]
1000733e:	f7ff fd41 	bl	10006dc4 <__wrap___aeabi_dcmpun>
10007342:	2800      	cmp	r0, #0
10007344:	f040 81f4 	bne.w	10007730 <_ftoa+0x418>
10007348:	e9dd 0104 	ldrd	r0, r1, [sp, #16]
1000734c:	f04f 32ff 	mov.w	r2, #4294967295
10007350:	f46f 1380 	mvn.w	r3, #1048576	@ 0x100000
10007354:	f7ff fd48 	bl	10006de8 <__wrap___aeabi_dcmplt>
10007358:	2800      	cmp	r0, #0
1000735a:	f040 811b 	bne.w	10007594 <_ftoa+0x27c>
1000735e:	e9dd 0104 	ldrd	r0, r1, [sp, #16]
10007362:	f04f 32ff 	mov.w	r2, #4294967295
10007366:	4bac      	ldr	r3, [pc, #688]	@ (10007618 <_ftoa+0x300>)
10007368:	f7ff fd7a 	bl	10006e60 <__wrap___aeabi_dcmpgt>
1000736c:	2800      	cmp	r0, #0
1000736e:	f040 80ee 	bne.w	1000754e <_ftoa+0x236>
10007372:	e9dd 0104 	ldrd	r0, r1, [sp, #16]
10007376:	a3a4      	add	r3, pc, #656	@ (adr r3, 10007608 <_ftoa+0x2f0>)
10007378:	e9d3 2300 	ldrd	r2, r3, [r3]
1000737c:	f7ff fd70 	bl	10006e60 <__wrap___aeabi_dcmpgt>
10007380:	2800      	cmp	r0, #0
10007382:	f040 80d3 	bne.w	1000752c <_ftoa+0x214>
10007386:	e9dd 0104 	ldrd	r0, r1, [sp, #16]
1000738a:	a3a1      	add	r3, pc, #644	@ (adr r3, 10007610 <_ftoa+0x2f8>)
1000738c:	e9d3 2300 	ldrd	r2, r3, [r3]
10007390:	f7ff fd2a 	bl	10006de8 <__wrap___aeabi_dcmplt>
10007394:	2800      	cmp	r0, #0
10007396:	f040 80c9 	bne.w	1000752c <_ftoa+0x214>
1000739a:	e9dd 0104 	ldrd	r0, r1, [sp, #16]
1000739e:	2200      	movs	r2, #0
100073a0:	2300      	movs	r3, #0
100073a2:	f7ff fd21 	bl	10006de8 <__wrap___aeabi_dcmplt>
100073a6:	2800      	cmp	r0, #0
100073a8:	f040 80e8 	bne.w	1000757c <_ftoa+0x264>
100073ac:	4623      	mov	r3, r4
100073ae:	900d      	str	r0, [sp, #52]	@ 0x34
100073b0:	f413 6f80 	tst.w	r3, #1024	@ 0x400
100073b4:	bf08      	it	eq
100073b6:	2506      	moveq	r5, #6
100073b8:	2130      	movs	r1, #48	@ 0x30
100073ba:	462b      	mov	r3, r5
100073bc:	aa0e      	add	r2, sp, #56	@ 0x38
100073be:	f1a5 0620 	sub.w	r6, r5, #32
100073c2:	e005      	b.n	100073d0 <_ftoa+0xb8>
100073c4:	3b01      	subs	r3, #1
100073c6:	42b3      	cmp	r3, r6
100073c8:	f802 1b01 	strb.w	r1, [r2], #1
100073cc:	f000 8193 	beq.w	100076f6 <_ftoa+0x3de>
100073d0:	2b09      	cmp	r3, #9
100073d2:	d8f7      	bhi.n	100073c4 <_ftoa+0xac>
100073d4:	461e      	mov	r6, r3
100073d6:	1aed      	subs	r5, r5, r3
100073d8:	e9dd 0104 	ldrd	r0, r1, [sp, #16]
100073dc:	f7ff fcce 	bl	10006d7c <__wrap___aeabi_d2iz>
100073e0:	4b8e      	ldr	r3, [pc, #568]	@ (1000761c <_ftoa+0x304>)
100073e2:	4604      	mov	r4, r0
100073e4:	eb03 03c6 	add.w	r3, r3, r6, lsl #3
100073e8:	ed93 7b00 	vldr	d7, [r3]
100073ec:	ed8d 7b08 	vstr	d7, [sp, #32]
100073f0:	f7ff fca0 	bl	10006d34 <__wrap___aeabi_i2d>
100073f4:	4602      	mov	r2, r0
100073f6:	460b      	mov	r3, r1
100073f8:	e9dd 0104 	ldrd	r0, r1, [sp, #16]
100073fc:	f7ff fc12 	bl	10006c24 <__wrap___aeabi_dsub>
10007400:	e9dd 2308 	ldrd	r2, r3, [sp, #32]
10007404:	f7ff fc22 	bl	10006c4c <__wrap___aeabi_dmul>
10007408:	4602      	mov	r2, r0
1000740a:	460b      	mov	r3, r1
1000740c:	e9cd 230a 	strd	r2, r3, [sp, #40]	@ 0x28
10007410:	f7ff fcc6 	bl	10006da0 <__wrap___aeabi_d2uiz>
10007414:	4682      	mov	sl, r0
10007416:	f7ff fc9f 	bl	10006d58 <__wrap___aeabi_ui2d>
1000741a:	4602      	mov	r2, r0
1000741c:	460b      	mov	r3, r1
1000741e:	e9dd 010a 	ldrd	r0, r1, [sp, #40]	@ 0x28
10007422:	f7ff fbff 	bl	10006c24 <__wrap___aeabi_dsub>
10007426:	4602      	mov	r2, r0
10007428:	460b      	mov	r3, r1
1000742a:	e9cd 230a 	strd	r2, r3, [sp, #40]	@ 0x28
1000742e:	2200      	movs	r2, #0
10007430:	4b7b      	ldr	r3, [pc, #492]	@ (10007620 <_ftoa+0x308>)
10007432:	f7ff fd15 	bl	10006e60 <__wrap___aeabi_dcmpgt>
10007436:	2800      	cmp	r0, #0
10007438:	f000 80fe 	beq.w	10007638 <_ftoa+0x320>
1000743c:	f10a 0a01 	add.w	sl, sl, #1
10007440:	4650      	mov	r0, sl
10007442:	f7ff fc89 	bl	10006d58 <__wrap___aeabi_ui2d>
10007446:	4602      	mov	r2, r0
10007448:	460b      	mov	r3, r1
1000744a:	e9dd 0108 	ldrd	r0, r1, [sp, #32]
1000744e:	f7ff fcdf 	bl	10006e10 <__wrap___aeabi_dcmple>
10007452:	b110      	cbz	r0, 1000745a <_ftoa+0x142>
10007454:	f04f 0a00 	mov.w	sl, #0
10007458:	3401      	adds	r4, #1
1000745a:	2e00      	cmp	r6, #0
1000745c:	f000 80fd 	beq.w	1000765a <_ftoa+0x342>
10007460:	1e68      	subs	r0, r5, #1
10007462:	ab0e      	add	r3, sp, #56	@ 0x38
10007464:	f8df c1cc 	ldr.w	ip, [pc, #460]	@ 10007634 <_ftoa+0x31c>
10007468:	4418      	add	r0, r3
1000746a:	e00f      	b.n	1000748c <_ftoa+0x174>
1000746c:	fbac 210a 	umull	r2, r1, ip, sl
10007470:	08c9      	lsrs	r1, r1, #3
10007472:	eb01 0281 	add.w	r2, r1, r1, lsl #2
10007476:	ebaa 0242 	sub.w	r2, sl, r2, lsl #1
1000747a:	3230      	adds	r2, #48	@ 0x30
1000747c:	f1ba 0f09 	cmp.w	sl, #9
10007480:	f800 2f01 	strb.w	r2, [r0, #1]!
10007484:	f240 811c 	bls.w	100076c0 <_ftoa+0x3a8>
10007488:	468a      	mov	sl, r1
1000748a:	461d      	mov	r5, r3
1000748c:	2d20      	cmp	r5, #32
1000748e:	f105 0301 	add.w	r3, r5, #1
10007492:	f106 36ff 	add.w	r6, r6, #4294967295
10007496:	d1e9      	bne.n	1000746c <_ftoa+0x154>
10007498:	2520      	movs	r5, #32
1000749a:	1e69      	subs	r1, r5, #1
1000749c:	ab0e      	add	r3, sp, #56	@ 0x38
1000749e:	4861      	ldr	r0, [pc, #388]	@ (10007624 <_ftoa+0x30c>)
100074a0:	4419      	add	r1, r3
100074a2:	e010      	b.n	100074c6 <_ftoa+0x1ae>
100074a4:	fb80 6204 	smull	r6, r2, r0, r4
100074a8:	ebc3 03a2 	rsb	r3, r3, r2, asr #2
100074ac:	eb03 0283 	add.w	r2, r3, r3, lsl #2
100074b0:	eba4 0442 	sub.w	r4, r4, r2, lsl #1
100074b4:	f104 0230 	add.w	r2, r4, #48	@ 0x30
100074b8:	3501      	adds	r5, #1
100074ba:	461c      	mov	r4, r3
100074bc:	f801 2f01 	strb.w	r2, [r1, #1]!
100074c0:	2b00      	cmp	r3, #0
100074c2:	f000 80eb 	beq.w	1000769c <_ftoa+0x384>
100074c6:	2d20      	cmp	r5, #32
100074c8:	ea4f 73e4 	mov.w	r3, r4, asr #31
100074cc:	d1ea      	bne.n	100074a4 <_ftoa+0x18c>
100074ce:	9b07      	ldr	r3, [sp, #28]
100074d0:	f003 0303 	and.w	r3, r3, #3
100074d4:	2b01      	cmp	r3, #1
100074d6:	d118      	bne.n	1000750a <_ftoa+0x1f2>
100074d8:	f1bb 0f00 	cmp.w	fp, #0
100074dc:	d015      	beq.n	1000750a <_ftoa+0x1f2>
100074de:	9b0d      	ldr	r3, [sp, #52]	@ 0x34
100074e0:	2b00      	cmp	r3, #0
100074e2:	f000 810a 	beq.w	100076fa <_ftoa+0x3e2>
100074e6:	f10b 3bff 	add.w	fp, fp, #4294967295
100074ea:	f1bb 0f20 	cmp.w	fp, #32
100074ee:	d90c      	bls.n	1000750a <_ftoa+0x1f2>
100074f0:	1e6b      	subs	r3, r5, #1
100074f2:	a90e      	add	r1, sp, #56	@ 0x38
100074f4:	2230      	movs	r2, #48	@ 0x30
100074f6:	440b      	add	r3, r1
100074f8:	e005      	b.n	10007506 <_ftoa+0x1ee>
100074fa:	3501      	adds	r5, #1
100074fc:	455d      	cmp	r5, fp
100074fe:	f803 2f01 	strb.w	r2, [r3, #1]!
10007502:	f080 80d1 	bcs.w	100076a8 <_ftoa+0x390>
10007506:	2d20      	cmp	r5, #32
10007508:	d1f7      	bne.n	100074fa <_ftoa+0x1e2>
1000750a:	9b07      	ldr	r3, [sp, #28]
1000750c:	ac0e      	add	r4, sp, #56	@ 0x38
1000750e:	e9cd b302 	strd	fp, r3, [sp, #8]
10007512:	4641      	mov	r1, r8
10007514:	464b      	mov	r3, r9
10007516:	4638      	mov	r0, r7
10007518:	9a0c      	ldr	r2, [sp, #48]	@ 0x30
1000751a:	9501      	str	r5, [sp, #4]
1000751c:	9400      	str	r4, [sp, #0]
1000751e:	f7ff fdb9 	bl	10007094 <_out_rev>
10007522:	4682      	mov	sl, r0
10007524:	4650      	mov	r0, sl
10007526:	b017      	add	sp, #92	@ 0x5c
10007528:	e8bd 8ff0 	ldmia.w	sp!, {r4, r5, r6, r7, r8, r9, sl, fp, pc}
1000752c:	9b07      	ldr	r3, [sp, #28]
1000752e:	ed9d 7b04 	vldr	d7, [sp, #16]
10007532:	e9cd b323 	strd	fp, r3, [sp, #140]	@ 0x8c
10007536:	4641      	mov	r1, r8
10007538:	464b      	mov	r3, r9
1000753a:	4638      	mov	r0, r7
1000753c:	9a0c      	ldr	r2, [sp, #48]	@ 0x30
1000753e:	ed8d 7b20 	vstr	d7, [sp, #128]	@ 0x80
10007542:	9522      	str	r5, [sp, #136]	@ 0x88
10007544:	b017      	add	sp, #92	@ 0x5c
10007546:	e8bd 4ff0 	ldmia.w	sp!, {r4, r5, r6, r7, r8, r9, sl, fp, lr}
1000754a:	f000 b945 	b.w	100077d8 <_etoa>
1000754e:	0761      	lsls	r1, r4, #29
10007550:	4623      	mov	r3, r4
10007552:	bf4c      	ite	mi
10007554:	2304      	movmi	r3, #4
10007556:	2303      	movpl	r3, #3
10007558:	4641      	mov	r1, r8
1000755a:	9321      	str	r3, [sp, #132]	@ 0x84
1000755c:	4638      	mov	r0, r7
1000755e:	464b      	mov	r3, r9
10007560:	9a07      	ldr	r2, [sp, #28]
10007562:	bf48      	it	mi
10007564:	4c30      	ldrmi	r4, [pc, #192]	@ (10007628 <_ftoa+0x310>)
10007566:	e9cd b222 	strd	fp, r2, [sp, #136]	@ 0x88
1000756a:	bf58      	it	pl
1000756c:	4c2f      	ldrpl	r4, [pc, #188]	@ (1000762c <_ftoa+0x314>)
1000756e:	9a0c      	ldr	r2, [sp, #48]	@ 0x30
10007570:	9420      	str	r4, [sp, #128]	@ 0x80
10007572:	b017      	add	sp, #92	@ 0x5c
10007574:	e8bd 4ff0 	ldmia.w	sp!, {r4, r5, r6, r7, r8, r9, sl, fp, lr}
10007578:	f7ff bd8c 	b.w	10007094 <_out_rev>
1000757c:	e9dd 2304 	ldrd	r2, r3, [sp, #16]
10007580:	2000      	movs	r0, #0
10007582:	2100      	movs	r1, #0
10007584:	f7ff fb4e 	bl	10006c24 <__wrap___aeabi_dsub>
10007588:	2301      	movs	r3, #1
1000758a:	e9cd 0104 	strd	r0, r1, [sp, #16]
1000758e:	930d      	str	r3, [sp, #52]	@ 0x34
10007590:	4623      	mov	r3, r4
10007592:	e70d      	b.n	100073b0 <_ftoa+0x98>
10007594:	4623      	mov	r3, r4
10007596:	079c      	lsls	r4, r3, #30
10007598:	f040 80aa 	bne.w	100076f0 <_ftoa+0x3d8>
1000759c:	f1bb 0f04 	cmp.w	fp, #4
100075a0:	f240 80a6 	bls.w	100076f0 <_ftoa+0x3d8>
100075a4:	9b0c      	ldr	r3, [sp, #48]	@ 0x30
100075a6:	461d      	mov	r5, r3
100075a8:	1f1c      	subs	r4, r3, #4
100075aa:	eb04 0a0b 	add.w	sl, r4, fp
100075ae:	462a      	mov	r2, r5
100075b0:	464b      	mov	r3, r9
100075b2:	4641      	mov	r1, r8
100075b4:	2020      	movs	r0, #32
100075b6:	3501      	adds	r5, #1
100075b8:	47b8      	blx	r7
100075ba:	45aa      	cmp	sl, r5
100075bc:	d1f7      	bne.n	100075ae <_ftoa+0x296>
100075be:	4655      	mov	r5, sl
100075c0:	4c1b      	ldr	r4, [pc, #108]	@ (10007630 <_ftoa+0x318>)
100075c2:	1f26      	subs	r6, r4, #4
100075c4:	f814 0d01 	ldrb.w	r0, [r4, #-1]!
100075c8:	462a      	mov	r2, r5
100075ca:	464b      	mov	r3, r9
100075cc:	4641      	mov	r1, r8
100075ce:	47b8      	blx	r7
100075d0:	42b4      	cmp	r4, r6
100075d2:	f105 0501 	add.w	r5, r5, #1
100075d6:	d1f5      	bne.n	100075c4 <_ftoa+0x2ac>
100075d8:	9b07      	ldr	r3, [sp, #28]
100075da:	f10a 0a04 	add.w	sl, sl, #4
100075de:	0798      	lsls	r0, r3, #30
100075e0:	d5a0      	bpl.n	10007524 <_ftoa+0x20c>
100075e2:	9c0c      	ldr	r4, [sp, #48]	@ 0x30
100075e4:	ebaa 0304 	sub.w	r3, sl, r4
100075e8:	459b      	cmp	fp, r3
100075ea:	d99b      	bls.n	10007524 <_ftoa+0x20c>
100075ec:	4652      	mov	r2, sl
100075ee:	464b      	mov	r3, r9
100075f0:	4641      	mov	r1, r8
100075f2:	2020      	movs	r0, #32
100075f4:	f10a 0a01 	add.w	sl, sl, #1
100075f8:	47b8      	blx	r7
100075fa:	ebaa 0304 	sub.w	r3, sl, r4
100075fe:	455b      	cmp	r3, fp
10007600:	d3f4      	bcc.n	100075ec <_ftoa+0x2d4>
10007602:	e78f      	b.n	10007524 <_ftoa+0x20c>
10007604:	f3af 8000 	nop.w
10007608:	00000000 	.word	0x00000000
1000760c:	41cdcd65 	.word	0x41cdcd65
10007610:	00000000 	.word	0x00000000
10007614:	c1cdcd65 	.word	0xc1cdcd65
10007618:	7fefffff 	.word	0x7fefffff
1000761c:	100256e8 	.word	0x100256e8
10007620:	3fe00000 	.word	0x3fe00000
10007624:	66666667 	.word	0x66666667
10007628:	1000da44 	.word	0x1000da44
1000762c:	1000da4c 	.word	0x1000da4c
10007630:	1000da58 	.word	0x1000da58
10007634:	cccccccd 	.word	0xcccccccd
10007638:	2200      	movs	r2, #0
1000763a:	e9dd 010a 	ldrd	r0, r1, [sp, #40]	@ 0x28
1000763e:	4b63      	ldr	r3, [pc, #396]	@ (100077cc <_ftoa+0x4b4>)
10007640:	f7ff fbd2 	bl	10006de8 <__wrap___aeabi_dcmplt>
10007644:	2800      	cmp	r0, #0
10007646:	f47f af08 	bne.w	1000745a <_ftoa+0x142>
1000764a:	f1ba 0f00 	cmp.w	sl, #0
1000764e:	d16a      	bne.n	10007726 <_ftoa+0x40e>
10007650:	f10a 0a01 	add.w	sl, sl, #1
10007654:	2e00      	cmp	r6, #0
10007656:	f47f af03 	bne.w	10007460 <_ftoa+0x148>
1000765a:	4620      	mov	r0, r4
1000765c:	f7ff fb6a 	bl	10006d34 <__wrap___aeabi_i2d>
10007660:	4602      	mov	r2, r0
10007662:	460b      	mov	r3, r1
10007664:	e9dd 0104 	ldrd	r0, r1, [sp, #16]
10007668:	f7ff fadc 	bl	10006c24 <__wrap___aeabi_dsub>
1000766c:	4602      	mov	r2, r0
1000766e:	460b      	mov	r3, r1
10007670:	e9cd 2304 	strd	r2, r3, [sp, #16]
10007674:	2200      	movs	r2, #0
10007676:	4b55      	ldr	r3, [pc, #340]	@ (100077cc <_ftoa+0x4b4>)
10007678:	f7ff fbb6 	bl	10006de8 <__wrap___aeabi_dcmplt>
1000767c:	2800      	cmp	r0, #0
1000767e:	f47f af0c 	bne.w	1000749a <_ftoa+0x182>
10007682:	e9dd 0104 	ldrd	r0, r1, [sp, #16]
10007686:	2200      	movs	r2, #0
10007688:	4b50      	ldr	r3, [pc, #320]	@ (100077cc <_ftoa+0x4b4>)
1000768a:	f7ff fbe9 	bl	10006e60 <__wrap___aeabi_dcmpgt>
1000768e:	2800      	cmp	r0, #0
10007690:	f47f af03 	bne.w	1000749a <_ftoa+0x182>
10007694:	3401      	adds	r4, #1
10007696:	f024 0401 	bic.w	r4, r4, #1
1000769a:	e6fe      	b.n	1000749a <_ftoa+0x182>
1000769c:	9b07      	ldr	r3, [sp, #28]
1000769e:	f003 0303 	and.w	r3, r3, #3
100076a2:	2b01      	cmp	r3, #1
100076a4:	f000 8082 	beq.w	100077ac <_ftoa+0x494>
100076a8:	2d20      	cmp	r5, #32
100076aa:	f43f af2e 	beq.w	1000750a <_ftoa+0x1f2>
100076ae:	9b0d      	ldr	r3, [sp, #52]	@ 0x34
100076b0:	b37b      	cbz	r3, 10007712 <_ftoa+0x3fa>
100076b2:	222d      	movs	r2, #45	@ 0x2d
100076b4:	eb0d 0305 	add.w	r3, sp, r5
100076b8:	f883 2038 	strb.w	r2, [r3, #56]	@ 0x38
100076bc:	3501      	adds	r5, #1
100076be:	e724      	b.n	1000750a <_ftoa+0x1f2>
100076c0:	2b20      	cmp	r3, #32
100076c2:	f43f aee9 	beq.w	10007498 <_ftoa+0x180>
100076c6:	aa0e      	add	r2, sp, #56	@ 0x38
100076c8:	4415      	add	r5, r2
100076ca:	441e      	add	r6, r3
100076cc:	2230      	movs	r2, #48	@ 0x30
100076ce:	e004      	b.n	100076da <_ftoa+0x3c2>
100076d0:	2b20      	cmp	r3, #32
100076d2:	f805 2f01 	strb.w	r2, [r5, #1]!
100076d6:	f43f aedf 	beq.w	10007498 <_ftoa+0x180>
100076da:	429e      	cmp	r6, r3
100076dc:	f103 0301 	add.w	r3, r3, #1
100076e0:	d1f6      	bne.n	100076d0 <_ftoa+0x3b8>
100076e2:	222e      	movs	r2, #46	@ 0x2e
100076e4:	eb0d 0306 	add.w	r3, sp, r6
100076e8:	f883 2038 	strb.w	r2, [r3, #56]	@ 0x38
100076ec:	1c75      	adds	r5, r6, #1
100076ee:	e6d4      	b.n	1000749a <_ftoa+0x182>
100076f0:	f8dd a030 	ldr.w	sl, [sp, #48]	@ 0x30
100076f4:	e763      	b.n	100075be <_ftoa+0x2a6>
100076f6:	2520      	movs	r5, #32
100076f8:	e66e      	b.n	100073d8 <_ftoa+0xc0>
100076fa:	9b07      	ldr	r3, [sp, #28]
100076fc:	f013 0f0c 	tst.w	r3, #12
10007700:	d050      	beq.n	100077a4 <_ftoa+0x48c>
10007702:	f10b 3bff 	add.w	fp, fp, #4294967295
10007706:	45ab      	cmp	fp, r5
10007708:	f63f aef2 	bhi.w	100074f0 <_ftoa+0x1d8>
1000770c:	2d20      	cmp	r5, #32
1000770e:	f43f aefc 	beq.w	1000750a <_ftoa+0x1f2>
10007712:	9b07      	ldr	r3, [sp, #28]
10007714:	075a      	lsls	r2, r3, #29
10007716:	d501      	bpl.n	1000771c <_ftoa+0x404>
10007718:	222b      	movs	r2, #43	@ 0x2b
1000771a:	e7cb      	b.n	100076b4 <_ftoa+0x39c>
1000771c:	071b      	lsls	r3, r3, #28
1000771e:	f57f aef4 	bpl.w	1000750a <_ftoa+0x1f2>
10007722:	2220      	movs	r2, #32
10007724:	e7c6      	b.n	100076b4 <_ftoa+0x39c>
10007726:	f01a 0f01 	tst.w	sl, #1
1000772a:	f43f ae96 	beq.w	1000745a <_ftoa+0x142>
1000772e:	e78f      	b.n	10007650 <_ftoa+0x338>
10007730:	07a6      	lsls	r6, r4, #30
10007732:	d134      	bne.n	1000779e <_ftoa+0x486>
10007734:	f1bb 0f03 	cmp.w	fp, #3
10007738:	d931      	bls.n	1000779e <_ftoa+0x486>
1000773a:	9b0c      	ldr	r3, [sp, #48]	@ 0x30
1000773c:	461d      	mov	r5, r3
1000773e:	1edc      	subs	r4, r3, #3
10007740:	eb04 0a0b 	add.w	sl, r4, fp
10007744:	462a      	mov	r2, r5
10007746:	464b      	mov	r3, r9
10007748:	4641      	mov	r1, r8
1000774a:	2020      	movs	r0, #32
1000774c:	3501      	adds	r5, #1
1000774e:	47b8      	blx	r7
10007750:	4555      	cmp	r5, sl
10007752:	d1f7      	bne.n	10007744 <_ftoa+0x42c>
10007754:	4655      	mov	r5, sl
10007756:	4c1e      	ldr	r4, [pc, #120]	@ (100077d0 <_ftoa+0x4b8>)
10007758:	1ee6      	subs	r6, r4, #3
1000775a:	f814 0d01 	ldrb.w	r0, [r4, #-1]!
1000775e:	462a      	mov	r2, r5
10007760:	464b      	mov	r3, r9
10007762:	4641      	mov	r1, r8
10007764:	47b8      	blx	r7
10007766:	42a6      	cmp	r6, r4
10007768:	f105 0501 	add.w	r5, r5, #1
1000776c:	d1f5      	bne.n	1000775a <_ftoa+0x442>
1000776e:	9b07      	ldr	r3, [sp, #28]
10007770:	f10a 0a03 	add.w	sl, sl, #3
10007774:	079d      	lsls	r5, r3, #30
10007776:	f57f aed5 	bpl.w	10007524 <_ftoa+0x20c>
1000777a:	9c0c      	ldr	r4, [sp, #48]	@ 0x30
1000777c:	ebaa 0304 	sub.w	r3, sl, r4
10007780:	459b      	cmp	fp, r3
10007782:	f67f aecf 	bls.w	10007524 <_ftoa+0x20c>
10007786:	4652      	mov	r2, sl
10007788:	464b      	mov	r3, r9
1000778a:	4641      	mov	r1, r8
1000778c:	2020      	movs	r0, #32
1000778e:	f10a 0a01 	add.w	sl, sl, #1
10007792:	47b8      	blx	r7
10007794:	ebaa 0304 	sub.w	r3, sl, r4
10007798:	459b      	cmp	fp, r3
1000779a:	d8f4      	bhi.n	10007786 <_ftoa+0x46e>
1000779c:	e6c2      	b.n	10007524 <_ftoa+0x20c>
1000779e:	f8dd a030 	ldr.w	sl, [sp, #48]	@ 0x30
100077a2:	e7d7      	b.n	10007754 <_ftoa+0x43c>
100077a4:	45ab      	cmp	fp, r5
100077a6:	f63f aea3 	bhi.w	100074f0 <_ftoa+0x1d8>
100077aa:	e6ae      	b.n	1000750a <_ftoa+0x1f2>
100077ac:	f1bb 0f00 	cmp.w	fp, #0
100077b0:	f43f af7a 	beq.w	100076a8 <_ftoa+0x390>
100077b4:	9b0d      	ldr	r3, [sp, #52]	@ 0x34
100077b6:	2b00      	cmp	r3, #0
100077b8:	d09f      	beq.n	100076fa <_ftoa+0x3e2>
100077ba:	f10b 3bff 	add.w	fp, fp, #4294967295
100077be:	455d      	cmp	r5, fp
100077c0:	f4ff ae96 	bcc.w	100074f0 <_ftoa+0x1d8>
100077c4:	2d20      	cmp	r5, #32
100077c6:	f47f af74 	bne.w	100076b2 <_ftoa+0x39a>
100077ca:	e69e      	b.n	1000750a <_ftoa+0x1f2>
100077cc:	3fe00000 	.word	0x3fe00000
100077d0:	1000da53 	.word	0x1000da53
100077d4:	00000000 	.word	0x00000000

100077d8 <_etoa>:
100077d8:	e92d 4ff0 	stmdb	sp!, {r4, r5, r6, r7, r8, r9, sl, fp, lr}
100077dc:	b09f      	sub	sp, #124	@ 0x7c
100077de:	9e2a      	ldr	r6, [sp, #168]	@ 0xa8
100077e0:	e9dd 4528 	ldrd	r4, r5, [sp, #160]	@ 0xa0
100077e4:	4607      	mov	r7, r0
100077e6:	4693      	mov	fp, r2
100077e8:	9108      	str	r1, [sp, #32]
100077ea:	9309      	str	r3, [sp, #36]	@ 0x24
100077ec:	4622      	mov	r2, r4
100077ee:	462b      	mov	r3, r5
100077f0:	4620      	mov	r0, r4
100077f2:	4629      	mov	r1, r5
100077f4:	960e      	str	r6, [sp, #56]	@ 0x38
100077f6:	e9dd a62b 	ldrd	sl, r6, [sp, #172]	@ 0xac
100077fa:	f7ff fae3 	bl	10006dc4 <__wrap___aeabi_dcmpun>
100077fe:	2800      	cmp	r0, #0
10007800:	f040 80be 	bne.w	10007980 <_etoa+0x1a8>
10007804:	4620      	mov	r0, r4
10007806:	4629      	mov	r1, r5
10007808:	f04f 32ff 	mov.w	r2, #4294967295
1000780c:	4b78      	ldr	r3, [pc, #480]	@ (100079f0 <_etoa+0x218>)
1000780e:	f7ff fb27 	bl	10006e60 <__wrap___aeabi_dcmpgt>
10007812:	2800      	cmp	r0, #0
10007814:	f040 80b4 	bne.w	10007980 <_etoa+0x1a8>
10007818:	4620      	mov	r0, r4
1000781a:	4629      	mov	r1, r5
1000781c:	f04f 32ff 	mov.w	r2, #4294967295
10007820:	f46f 1380 	mvn.w	r3, #1048576	@ 0x100000
10007824:	f7ff fae0 	bl	10006de8 <__wrap___aeabi_dcmplt>
10007828:	2800      	cmp	r0, #0
1000782a:	f040 80a9 	bne.w	10007980 <_etoa+0x1a8>
1000782e:	4620      	mov	r0, r4
10007830:	4629      	mov	r1, r5
10007832:	2200      	movs	r2, #0
10007834:	2300      	movs	r3, #0
10007836:	f7ff fad7 	bl	10006de8 <__wrap___aeabi_dcmplt>
1000783a:	2800      	cmp	r0, #0
1000783c:	f040 81d5 	bne.w	10007bea <_etoa+0x412>
10007840:	e9cd 450a 	strd	r4, r5, [sp, #40]	@ 0x28
10007844:	e9dd 230a 	ldrd	r2, r3, [sp, #40]	@ 0x28
10007848:	4690      	mov	r8, r2
1000784a:	4699      	mov	r9, r3
1000784c:	f406 6200 	and.w	r2, r6, #2048	@ 0x800
10007850:	f416 6380 	ands.w	r3, r6, #1024	@ 0x400
10007854:	920f      	str	r2, [sp, #60]	@ 0x3c
10007856:	9313      	str	r3, [sp, #76]	@ 0x4c
10007858:	f040 80a1 	bne.w	1000799e <_etoa+0x1c6>
1000785c:	ea58 0309 	orrs.w	r3, r8, r9
10007860:	f040 80ca 	bne.w	100079f8 <_etoa+0x220>
10007864:	2a00      	cmp	r2, #0
10007866:	f040 81e3 	bne.w	10007c30 <_etoa+0x458>
1000786a:	2306      	movs	r3, #6
1000786c:	930e      	str	r3, [sp, #56]	@ 0x38
1000786e:	f016 0202 	ands.w	r2, r6, #2
10007872:	9210      	str	r2, [sp, #64]	@ 0x40
10007874:	f040 81d4 	bne.w	10007c20 <_etoa+0x448>
10007878:	4653      	mov	r3, sl
1000787a:	2b04      	cmp	r3, #4
1000787c:	bf38      	it	cc
1000787e:	2304      	movcc	r3, #4
10007880:	920c      	str	r2, [sp, #48]	@ 0x30
10007882:	2204      	movs	r2, #4
10007884:	3b04      	subs	r3, #4
10007886:	9212      	str	r2, [sp, #72]	@ 0x48
10007888:	930f      	str	r3, [sp, #60]	@ 0x3c
1000788a:	4620      	mov	r0, r4
1000788c:	4629      	mov	r1, r5
1000788e:	2200      	movs	r2, #0
10007890:	2300      	movs	r3, #0
10007892:	f7ff faa9 	bl	10006de8 <__wrap___aeabi_dcmplt>
10007896:	2800      	cmp	r0, #0
10007898:	f040 81f3 	bne.w	10007c82 <_etoa+0x4aa>
1000789c:	ed9d 7b0a 	vldr	d7, [sp, #40]	@ 0x28
100078a0:	9b0f      	ldr	r3, [sp, #60]	@ 0x3c
100078a2:	465a      	mov	r2, fp
100078a4:	9303      	str	r3, [sp, #12]
100078a6:	9b0e      	ldr	r3, [sp, #56]	@ 0x38
100078a8:	ed8d 7b00 	vstr	d7, [sp]
100078ac:	9302      	str	r3, [sp, #8]
100078ae:	f426 6300 	bic.w	r3, r6, #2048	@ 0x800
100078b2:	9304      	str	r3, [sp, #16]
100078b4:	4638      	mov	r0, r7
100078b6:	9b09      	ldr	r3, [sp, #36]	@ 0x24
100078b8:	9908      	ldr	r1, [sp, #32]
100078ba:	f7ff fd2d 	bl	10007318 <_ftoa>
100078be:	4602      	mov	r2, r0
100078c0:	f016 0f20 	tst.w	r6, #32
100078c4:	9b09      	ldr	r3, [sp, #36]	@ 0x24
100078c6:	9908      	ldr	r1, [sp, #32]
100078c8:	bf0c      	ite	eq
100078ca:	2065      	moveq	r0, #101	@ 0x65
100078cc:	2045      	movne	r0, #69	@ 0x45
100078ce:	f102 0801 	add.w	r8, r2, #1
100078d2:	47b8      	blx	r7
100078d4:	9a0c      	ldr	r2, [sp, #48]	@ 0x30
100078d6:	9b12      	ldr	r3, [sp, #72]	@ 0x48
100078d8:	ac16      	add	r4, sp, #88	@ 0x58
100078da:	1e5d      	subs	r5, r3, #1
100078dc:	ea82 73e2 	eor.w	r3, r2, r2, asr #31
100078e0:	eba3 73e2 	sub.w	r3, r3, r2, asr #31
100078e4:	0fd1      	lsrs	r1, r2, #31
100078e6:	2600      	movs	r6, #0
100078e8:	4622      	mov	r2, r4
100078ea:	4699      	mov	r9, r3
100078ec:	f8df c104 	ldr.w	ip, [pc, #260]	@ 100079f4 <_etoa+0x21c>
100078f0:	e001      	b.n	100078f6 <_etoa+0x11e>
100078f2:	2e20      	cmp	r6, #32
100078f4:	d010      	beq.n	10007918 <_etoa+0x140>
100078f6:	46ce      	mov	lr, r9
100078f8:	fbac 3009 	umull	r3, r0, ip, r9
100078fc:	08c0      	lsrs	r0, r0, #3
100078fe:	eb00 0380 	add.w	r3, r0, r0, lsl #2
10007902:	eba9 0343 	sub.w	r3, r9, r3, lsl #1
10007906:	3330      	adds	r3, #48	@ 0x30
10007908:	f1be 0f09 	cmp.w	lr, #9
1000790c:	4681      	mov	r9, r0
1000790e:	f106 0601 	add.w	r6, r6, #1
10007912:	f802 3b01 	strb.w	r3, [r2], #1
10007916:	d8ec      	bhi.n	100078f2 <_etoa+0x11a>
10007918:	2305      	movs	r3, #5
1000791a:	2000      	movs	r0, #0
1000791c:	9306      	str	r3, [sp, #24]
1000791e:	230a      	movs	r3, #10
10007920:	9505      	str	r5, [sp, #20]
10007922:	9400      	str	r4, [sp, #0]
10007924:	9d09      	ldr	r5, [sp, #36]	@ 0x24
10007926:	9c08      	ldr	r4, [sp, #32]
10007928:	4642      	mov	r2, r8
1000792a:	e9cd 3003 	strd	r3, r0, [sp, #12]
1000792e:	e9cd 6101 	strd	r6, r1, [sp, #4]
10007932:	462b      	mov	r3, r5
10007934:	4621      	mov	r1, r4
10007936:	4638      	mov	r0, r7
10007938:	f7ff fbfa 	bl	10007130 <_ntoa_format>
1000793c:	9a10      	ldr	r2, [sp, #64]	@ 0x40
1000793e:	4680      	mov	r8, r0
10007940:	b1d2      	cbz	r2, 10007978 <_etoa+0x1a0>
10007942:	eba0 060b 	sub.w	r6, r0, fp
10007946:	45b2      	cmp	sl, r6
10007948:	d916      	bls.n	10007978 <_etoa+0x1a0>
1000794a:	eb0b 0206 	add.w	r2, fp, r6
1000794e:	462b      	mov	r3, r5
10007950:	4621      	mov	r1, r4
10007952:	2020      	movs	r0, #32
10007954:	3601      	adds	r6, #1
10007956:	47b8      	blx	r7
10007958:	45b2      	cmp	sl, r6
1000795a:	d8f6      	bhi.n	1000794a <_etoa+0x172>
1000795c:	f10b 33ff 	add.w	r3, fp, #4294967295
10007960:	4453      	add	r3, sl
10007962:	f1cb 0201 	rsb	r2, fp, #1
10007966:	eba3 0308 	sub.w	r3, r3, r8
1000796a:	4442      	add	r2, r8
1000796c:	4592      	cmp	sl, r2
1000796e:	bf38      	it	cc
10007970:	2300      	movcc	r3, #0
10007972:	f108 0801 	add.w	r8, r8, #1
10007976:	4498      	add	r8, r3
10007978:	4640      	mov	r0, r8
1000797a:	b01f      	add	sp, #124	@ 0x7c
1000797c:	e8bd 8ff0 	ldmia.w	sp!, {r4, r5, r6, r7, r8, r9, sl, fp, pc}
10007980:	465a      	mov	r2, fp
10007982:	4638      	mov	r0, r7
10007984:	e9cd 4528 	strd	r4, r5, [sp, #160]	@ 0xa0
10007988:	e9cd a62b 	strd	sl, r6, [sp, #172]	@ 0xac
1000798c:	9c0e      	ldr	r4, [sp, #56]	@ 0x38
1000798e:	9b09      	ldr	r3, [sp, #36]	@ 0x24
10007990:	9908      	ldr	r1, [sp, #32]
10007992:	942a      	str	r4, [sp, #168]	@ 0xa8
10007994:	b01f      	add	sp, #124	@ 0x7c
10007996:	e8bd 4ff0 	ldmia.w	sp!, {r4, r5, r6, r7, r8, r9, sl, fp, lr}
1000799a:	f7ff bcbd 	b.w	10007318 <_ftoa>
1000799e:	ea58 0309 	orrs.w	r3, r8, r9
100079a2:	d12b      	bne.n	100079fc <_etoa+0x224>
100079a4:	2a00      	cmp	r2, #0
100079a6:	f43f af62 	beq.w	1000786e <_etoa+0x96>
100079aa:	2300      	movs	r3, #0
100079ac:	930c      	str	r3, [sp, #48]	@ 0x30
100079ae:	9b0e      	ldr	r3, [sp, #56]	@ 0x38
100079b0:	9a0c      	ldr	r2, [sp, #48]	@ 0x30
100079b2:	4293      	cmp	r3, r2
100079b4:	f300 81b9 	bgt.w	10007d2a <_etoa+0x552>
100079b8:	f04f 0800 	mov.w	r8, #0
100079bc:	4620      	mov	r0, r4
100079be:	4629      	mov	r1, r5
100079c0:	2200      	movs	r2, #0
100079c2:	2300      	movs	r3, #0
100079c4:	f7ff fa10 	bl	10006de8 <__wrap___aeabi_dcmplt>
100079c8:	2800      	cmp	r0, #0
100079ca:	f040 8113 	bne.w	10007bf4 <_etoa+0x41c>
100079ce:	ed9d 7b0a 	vldr	d7, [sp, #40]	@ 0x28
100079d2:	f426 6600 	bic.w	r6, r6, #2048	@ 0x800
100079d6:	f446 6680 	orr.w	r6, r6, #1024	@ 0x400
100079da:	ed8d 7b28 	vstr	d7, [sp, #160]	@ 0xa0
100079de:	465a      	mov	r2, fp
100079e0:	4638      	mov	r0, r7
100079e2:	e9cd 8a2a 	strd	r8, sl, [sp, #168]	@ 0xa8
100079e6:	9b09      	ldr	r3, [sp, #36]	@ 0x24
100079e8:	9908      	ldr	r1, [sp, #32]
100079ea:	962c      	str	r6, [sp, #176]	@ 0xb0
100079ec:	e7d2      	b.n	10007994 <_etoa+0x1bc>
100079ee:	bf00      	nop
100079f0:	7fefffff 	.word	0x7fefffff
100079f4:	cccccccd 	.word	0xcccccccd
100079f8:	2306      	movs	r3, #6
100079fa:	930e      	str	r3, [sp, #56]	@ 0x38
100079fc:	f3c9 500a 	ubfx	r0, r9, #20, #11
10007a00:	f2a0 30ff 	subw	r0, r0, #1023	@ 0x3ff
10007a04:	f7ff f996 	bl	10006d34 <__wrap___aeabi_i2d>
10007a08:	a3c1      	add	r3, pc, #772	@ (adr r3, 10007d10 <_etoa+0x538>)
10007a0a:	e9d3 2300 	ldrd	r2, r3, [r3]
10007a0e:	f7ff f91d 	bl	10006c4c <__wrap___aeabi_dmul>
10007a12:	a3c1      	add	r3, pc, #772	@ (adr r3, 10007d18 <_etoa+0x540>)
10007a14:	e9d3 2300 	ldrd	r2, r3, [r3]
10007a18:	f7ff f8f0 	bl	10006bfc <__wrap___aeabi_dadd>
10007a1c:	f3c9 0913 	ubfx	r9, r9, #0, #20
10007a20:	e9cd 010c 	strd	r0, r1, [sp, #48]	@ 0x30
10007a24:	f049 517f 	orr.w	r1, r9, #1069547520	@ 0x3fc00000
10007a28:	4640      	mov	r0, r8
10007a2a:	2200      	movs	r2, #0
10007a2c:	4bb2      	ldr	r3, [pc, #712]	@ (10007cf8 <_etoa+0x520>)
10007a2e:	f441 1140 	orr.w	r1, r1, #3145728	@ 0x300000
10007a32:	f7ff f8f7 	bl	10006c24 <__wrap___aeabi_dsub>
10007a36:	a3a4      	add	r3, pc, #656	@ (adr r3, 10007cc8 <_etoa+0x4f0>)
10007a38:	e9d3 2300 	ldrd	r2, r3, [r3]
10007a3c:	f7ff f906 	bl	10006c4c <__wrap___aeabi_dmul>
10007a40:	4602      	mov	r2, r0
10007a42:	460b      	mov	r3, r1
10007a44:	e9dd 010c 	ldrd	r0, r1, [sp, #48]	@ 0x30
10007a48:	f7ff f8d8 	bl	10006bfc <__wrap___aeabi_dadd>
10007a4c:	f7ff f996 	bl	10006d7c <__wrap___aeabi_d2iz>
10007a50:	900c      	str	r0, [sp, #48]	@ 0x30
10007a52:	f7ff f96f 	bl	10006d34 <__wrap___aeabi_i2d>
10007a56:	a39e      	add	r3, pc, #632	@ (adr r3, 10007cd0 <_etoa+0x4f8>)
10007a58:	e9d3 2300 	ldrd	r2, r3, [r3]
10007a5c:	4680      	mov	r8, r0
10007a5e:	4689      	mov	r9, r1
10007a60:	f7ff f8f4 	bl	10006c4c <__wrap___aeabi_dmul>
10007a64:	2200      	movs	r2, #0
10007a66:	4ba5      	ldr	r3, [pc, #660]	@ (10007cfc <_etoa+0x524>)
10007a68:	f7ff f8c8 	bl	10006bfc <__wrap___aeabi_dadd>
10007a6c:	f7ff f986 	bl	10006d7c <__wrap___aeabi_d2iz>
10007a70:	4603      	mov	r3, r0
10007a72:	4649      	mov	r1, r9
10007a74:	4640      	mov	r0, r8
10007a76:	9312      	str	r3, [sp, #72]	@ 0x48
10007a78:	a397      	add	r3, pc, #604	@ (adr r3, 10007cd8 <_etoa+0x500>)
10007a7a:	e9d3 2300 	ldrd	r2, r3, [r3]
10007a7e:	f7ff f8e5 	bl	10006c4c <__wrap___aeabi_dmul>
10007a82:	4680      	mov	r8, r0
10007a84:	9812      	ldr	r0, [sp, #72]	@ 0x48
10007a86:	4689      	mov	r9, r1
10007a88:	f7ff f954 	bl	10006d34 <__wrap___aeabi_i2d>
10007a8c:	a394      	add	r3, pc, #592	@ (adr r3, 10007ce0 <_etoa+0x508>)
10007a8e:	e9d3 2300 	ldrd	r2, r3, [r3]
10007a92:	f7ff f8db 	bl	10006c4c <__wrap___aeabi_dmul>
10007a96:	4602      	mov	r2, r0
10007a98:	460b      	mov	r3, r1
10007a9a:	4640      	mov	r0, r8
10007a9c:	4649      	mov	r1, r9
10007a9e:	f7ff f8c1 	bl	10006c24 <__wrap___aeabi_dsub>
10007aa2:	4602      	mov	r2, r0
10007aa4:	460b      	mov	r3, r1
10007aa6:	4680      	mov	r8, r0
10007aa8:	4689      	mov	r9, r1
10007aaa:	f7ff f8cf 	bl	10006c4c <__wrap___aeabi_dmul>
10007aae:	4642      	mov	r2, r8
10007ab0:	464b      	mov	r3, r9
10007ab2:	e9cd 0110 	strd	r0, r1, [sp, #64]	@ 0x40
10007ab6:	4640      	mov	r0, r8
10007ab8:	4649      	mov	r1, r9
10007aba:	f7ff f89f 	bl	10006bfc <__wrap___aeabi_dadd>
10007abe:	2200      	movs	r2, #0
10007ac0:	e9cd 0114 	strd	r0, r1, [sp, #80]	@ 0x50
10007ac4:	e9dd 0110 	ldrd	r0, r1, [sp, #64]	@ 0x40
10007ac8:	4b8d      	ldr	r3, [pc, #564]	@ (10007d00 <_etoa+0x528>)
10007aca:	f7ff f8e5 	bl	10006c98 <__wrap___aeabi_ddiv>
10007ace:	2200      	movs	r2, #0
10007ad0:	4b8c      	ldr	r3, [pc, #560]	@ (10007d04 <_etoa+0x52c>)
10007ad2:	f7ff f893 	bl	10006bfc <__wrap___aeabi_dadd>
10007ad6:	4602      	mov	r2, r0
10007ad8:	460b      	mov	r3, r1
10007ada:	e9dd 0110 	ldrd	r0, r1, [sp, #64]	@ 0x40
10007ade:	f7ff f8db 	bl	10006c98 <__wrap___aeabi_ddiv>
10007ae2:	2200      	movs	r2, #0
10007ae4:	4b88      	ldr	r3, [pc, #544]	@ (10007d08 <_etoa+0x530>)
10007ae6:	f7ff f889 	bl	10006bfc <__wrap___aeabi_dadd>
10007aea:	4602      	mov	r2, r0
10007aec:	460b      	mov	r3, r1
10007aee:	e9dd 0110 	ldrd	r0, r1, [sp, #64]	@ 0x40
10007af2:	f7ff f8d1 	bl	10006c98 <__wrap___aeabi_ddiv>
10007af6:	4642      	mov	r2, r8
10007af8:	464b      	mov	r3, r9
10007afa:	4680      	mov	r8, r0
10007afc:	4689      	mov	r9, r1
10007afe:	2000      	movs	r0, #0
10007b00:	f04f 4180 	mov.w	r1, #1073741824	@ 0x40000000
10007b04:	f7ff f88e 	bl	10006c24 <__wrap___aeabi_dsub>
10007b08:	4602      	mov	r2, r0
10007b0a:	460b      	mov	r3, r1
10007b0c:	4640      	mov	r0, r8
10007b0e:	4649      	mov	r1, r9
10007b10:	f7ff f874 	bl	10006bfc <__wrap___aeabi_dadd>
10007b14:	4602      	mov	r2, r0
10007b16:	460b      	mov	r3, r1
10007b18:	e9dd 0114 	ldrd	r0, r1, [sp, #80]	@ 0x50
10007b1c:	f7ff f8bc 	bl	10006c98 <__wrap___aeabi_ddiv>
10007b20:	2200      	movs	r2, #0
10007b22:	4b7a      	ldr	r3, [pc, #488]	@ (10007d0c <_etoa+0x534>)
10007b24:	f7ff f86a 	bl	10006bfc <__wrap___aeabi_dadd>
10007b28:	9b12      	ldr	r3, [sp, #72]	@ 0x48
10007b2a:	2200      	movs	r2, #0
10007b2c:	f203 3cff 	addw	ip, r3, #1023	@ 0x3ff
10007b30:	ea4f 530c 	mov.w	r3, ip, lsl #20
10007b34:	f7ff f88a 	bl	10006c4c <__wrap___aeabi_dmul>
10007b38:	4680      	mov	r8, r0
10007b3a:	4689      	mov	r9, r1
10007b3c:	e9dd 010a 	ldrd	r0, r1, [sp, #40]	@ 0x28
10007b40:	4642      	mov	r2, r8
10007b42:	464b      	mov	r3, r9
10007b44:	f7ff f950 	bl	10006de8 <__wrap___aeabi_dcmplt>
10007b48:	b150      	cbz	r0, 10007b60 <_etoa+0x388>
10007b4a:	9b0c      	ldr	r3, [sp, #48]	@ 0x30
10007b4c:	4640      	mov	r0, r8
10007b4e:	3b01      	subs	r3, #1
10007b50:	4649      	mov	r1, r9
10007b52:	930c      	str	r3, [sp, #48]	@ 0x30
10007b54:	2200      	movs	r2, #0
10007b56:	4b6b      	ldr	r3, [pc, #428]	@ (10007d04 <_etoa+0x52c>)
10007b58:	f7ff f89e 	bl	10006c98 <__wrap___aeabi_ddiv>
10007b5c:	4680      	mov	r8, r0
10007b5e:	4689      	mov	r9, r1
10007b60:	9a0c      	ldr	r2, [sp, #48]	@ 0x30
10007b62:	4643      	mov	r3, r8
10007b64:	3263      	adds	r2, #99	@ 0x63
10007b66:	2ac6      	cmp	r2, #198	@ 0xc6
10007b68:	f006 0202 	and.w	r2, r6, #2
10007b6c:	9210      	str	r2, [sp, #64]	@ 0x40
10007b6e:	4649      	mov	r1, r9
10007b70:	9a0f      	ldr	r2, [sp, #60]	@ 0x3c
10007b72:	d82c      	bhi.n	10007bce <_etoa+0x3f6>
10007b74:	2a00      	cmp	r2, #0
10007b76:	d05e      	beq.n	10007c36 <_etoa+0x45e>
10007b78:	2204      	movs	r2, #4
10007b7a:	9212      	str	r2, [sp, #72]	@ 0x48
10007b7c:	430b      	orrs	r3, r1
10007b7e:	f43f af16 	beq.w	100079ae <_etoa+0x1d6>
10007b82:	e9dd 010a 	ldrd	r0, r1, [sp, #40]	@ 0x28
10007b86:	a358      	add	r3, pc, #352	@ (adr r3, 10007ce8 <_etoa+0x510>)
10007b88:	e9d3 2300 	ldrd	r2, r3, [r3]
10007b8c:	f7ff f954 	bl	10006e38 <__wrap___aeabi_dcmpge>
10007b90:	b148      	cbz	r0, 10007ba6 <_etoa+0x3ce>
10007b92:	e9dd 010a 	ldrd	r0, r1, [sp, #40]	@ 0x28
10007b96:	a356      	add	r3, pc, #344	@ (adr r3, 10007cf0 <_etoa+0x518>)
10007b98:	e9d3 2300 	ldrd	r2, r3, [r3]
10007b9c:	f7ff f924 	bl	10006de8 <__wrap___aeabi_dcmplt>
10007ba0:	2800      	cmp	r0, #0
10007ba2:	f47f af04 	bne.w	100079ae <_etoa+0x1d6>
10007ba6:	9b0e      	ldr	r3, [sp, #56]	@ 0x38
10007ba8:	2b00      	cmp	r3, #0
10007baa:	d050      	beq.n	10007c4e <_etoa+0x476>
10007bac:	9a13      	ldr	r2, [sp, #76]	@ 0x4c
10007bae:	2a00      	cmp	r2, #0
10007bb0:	d07d      	beq.n	10007cae <_etoa+0x4d6>
10007bb2:	3b01      	subs	r3, #1
10007bb4:	930e      	str	r3, [sp, #56]	@ 0x38
10007bb6:	9b12      	ldr	r3, [sp, #72]	@ 0x48
10007bb8:	459a      	cmp	sl, r3
10007bba:	d905      	bls.n	10007bc8 <_etoa+0x3f0>
10007bbc:	9b10      	ldr	r3, [sp, #64]	@ 0x40
10007bbe:	2b00      	cmp	r3, #0
10007bc0:	f000 80ae 	beq.w	10007d20 <_etoa+0x548>
10007bc4:	2302      	movs	r3, #2
10007bc6:	9310      	str	r3, [sp, #64]	@ 0x40
10007bc8:	2300      	movs	r3, #0
10007bca:	930f      	str	r3, [sp, #60]	@ 0x3c
10007bcc:	e044      	b.n	10007c58 <_etoa+0x480>
10007bce:	bb22      	cbnz	r2, 10007c1a <_etoa+0x442>
10007bd0:	f1ba 0f05 	cmp.w	sl, #5
10007bd4:	d94f      	bls.n	10007c76 <_etoa+0x49e>
10007bd6:	f006 0302 	and.w	r3, r6, #2
10007bda:	2b00      	cmp	r3, #0
10007bdc:	d149      	bne.n	10007c72 <_etoa+0x49a>
10007bde:	2305      	movs	r3, #5
10007be0:	9312      	str	r3, [sp, #72]	@ 0x48
10007be2:	f1aa 0305 	sub.w	r3, sl, #5
10007be6:	930f      	str	r3, [sp, #60]	@ 0x3c
10007be8:	e03a      	b.n	10007c60 <_etoa+0x488>
10007bea:	f105 4300 	add.w	r3, r5, #2147483648	@ 0x80000000
10007bee:	940a      	str	r4, [sp, #40]	@ 0x28
10007bf0:	930b      	str	r3, [sp, #44]	@ 0x2c
10007bf2:	e627      	b.n	10007844 <_etoa+0x6c>
10007bf4:	f426 6600 	bic.w	r6, r6, #2048	@ 0x800
10007bf8:	f446 6680 	orr.w	r6, r6, #1024	@ 0x400
10007bfc:	4638      	mov	r0, r7
10007bfe:	962c      	str	r6, [sp, #176]	@ 0xb0
10007c00:	e9dd 670a 	ldrd	r6, r7, [sp, #40]	@ 0x28
10007c04:	4634      	mov	r4, r6
10007c06:	f107 4500 	add.w	r5, r7, #2147483648	@ 0x80000000
10007c0a:	465a      	mov	r2, fp
10007c0c:	e9cd 8a2a 	strd	r8, sl, [sp, #168]	@ 0xa8
10007c10:	e9cd 4528 	strd	r4, r5, [sp, #160]	@ 0xa0
10007c14:	9b09      	ldr	r3, [sp, #36]	@ 0x24
10007c16:	9908      	ldr	r1, [sp, #32]
10007c18:	e6bc      	b.n	10007994 <_etoa+0x1bc>
10007c1a:	2205      	movs	r2, #5
10007c1c:	9212      	str	r2, [sp, #72]	@ 0x48
10007c1e:	e7ad      	b.n	10007b7c <_etoa+0x3a4>
10007c20:	2300      	movs	r3, #0
10007c22:	2202      	movs	r2, #2
10007c24:	e9cd 320f 	strd	r3, r2, [sp, #60]	@ 0x3c
10007c28:	2204      	movs	r2, #4
10007c2a:	930c      	str	r3, [sp, #48]	@ 0x30
10007c2c:	9212      	str	r2, [sp, #72]	@ 0x48
10007c2e:	e62c      	b.n	1000788a <_etoa+0xb2>
10007c30:	f04f 0805 	mov.w	r8, #5
10007c34:	e6c2      	b.n	100079bc <_etoa+0x1e4>
10007c36:	f1ba 0f04 	cmp.w	sl, #4
10007c3a:	d91f      	bls.n	10007c7c <_etoa+0x4a4>
10007c3c:	9b10      	ldr	r3, [sp, #64]	@ 0x40
10007c3e:	2b00      	cmp	r3, #0
10007c40:	d178      	bne.n	10007d34 <_etoa+0x55c>
10007c42:	2304      	movs	r3, #4
10007c44:	9312      	str	r3, [sp, #72]	@ 0x48
10007c46:	f1aa 0304 	sub.w	r3, sl, #4
10007c4a:	930f      	str	r3, [sp, #60]	@ 0x3c
10007c4c:	e004      	b.n	10007c58 <_etoa+0x480>
10007c4e:	9b12      	ldr	r3, [sp, #72]	@ 0x48
10007c50:	459a      	cmp	sl, r3
10007c52:	d831      	bhi.n	10007cb8 <_etoa+0x4e0>
10007c54:	9b0e      	ldr	r3, [sp, #56]	@ 0x38
10007c56:	930f      	str	r3, [sp, #60]	@ 0x3c
10007c58:	9b0c      	ldr	r3, [sp, #48]	@ 0x30
10007c5a:	2b00      	cmp	r3, #0
10007c5c:	f43f ae15 	beq.w	1000788a <_etoa+0xb2>
10007c60:	e9dd 010a 	ldrd	r0, r1, [sp, #40]	@ 0x28
10007c64:	4642      	mov	r2, r8
10007c66:	464b      	mov	r3, r9
10007c68:	f7ff f816 	bl	10006c98 <__wrap___aeabi_ddiv>
10007c6c:	e9cd 010a 	strd	r0, r1, [sp, #40]	@ 0x28
10007c70:	e60b      	b.n	1000788a <_etoa+0xb2>
10007c72:	2302      	movs	r3, #2
10007c74:	9310      	str	r3, [sp, #64]	@ 0x40
10007c76:	2305      	movs	r3, #5
10007c78:	9312      	str	r3, [sp, #72]	@ 0x48
10007c7a:	e7f1      	b.n	10007c60 <_etoa+0x488>
10007c7c:	2304      	movs	r3, #4
10007c7e:	9312      	str	r3, [sp, #72]	@ 0x48
10007c80:	e7ea      	b.n	10007c58 <_etoa+0x480>
10007c82:	e9dd 450a 	ldrd	r4, r5, [sp, #40]	@ 0x28
10007c86:	46a0      	mov	r8, r4
10007c88:	9b0f      	ldr	r3, [sp, #60]	@ 0x3c
10007c8a:	f105 4900 	add.w	r9, r5, #2147483648	@ 0x80000000
10007c8e:	9303      	str	r3, [sp, #12]
10007c90:	9b0e      	ldr	r3, [sp, #56]	@ 0x38
10007c92:	465a      	mov	r2, fp
10007c94:	9302      	str	r3, [sp, #8]
10007c96:	f426 6300 	bic.w	r3, r6, #2048	@ 0x800
10007c9a:	9304      	str	r3, [sp, #16]
10007c9c:	4638      	mov	r0, r7
10007c9e:	e9cd 8900 	strd	r8, r9, [sp]
10007ca2:	9b09      	ldr	r3, [sp, #36]	@ 0x24
10007ca4:	9908      	ldr	r1, [sp, #32]
10007ca6:	f7ff fb37 	bl	10007318 <_ftoa>
10007caa:	4602      	mov	r2, r0
10007cac:	e608      	b.n	100078c0 <_etoa+0xe8>
10007cae:	9b12      	ldr	r3, [sp, #72]	@ 0x48
10007cb0:	459a      	cmp	sl, r3
10007cb2:	d844      	bhi.n	10007d3e <_etoa+0x566>
10007cb4:	920f      	str	r2, [sp, #60]	@ 0x3c
10007cb6:	e7cf      	b.n	10007c58 <_etoa+0x480>
10007cb8:	9b10      	ldr	r3, [sp, #64]	@ 0x40
10007cba:	b38b      	cbz	r3, 10007d20 <_etoa+0x548>
10007cbc:	9b0e      	ldr	r3, [sp, #56]	@ 0x38
10007cbe:	930f      	str	r3, [sp, #60]	@ 0x3c
10007cc0:	2302      	movs	r3, #2
10007cc2:	9310      	str	r3, [sp, #64]	@ 0x40
10007cc4:	e7c8      	b.n	10007c58 <_etoa+0x480>
10007cc6:	bf00      	nop
10007cc8:	636f4361 	.word	0x636f4361
10007ccc:	3fd287a7 	.word	0x3fd287a7
10007cd0:	0979a371 	.word	0x0979a371
10007cd4:	400a934f 	.word	0x400a934f
10007cd8:	bbb55516 	.word	0xbbb55516
10007cdc:	40026bb1 	.word	0x40026bb1
10007ce0:	fefa39ef 	.word	0xfefa39ef
10007ce4:	3fe62e42 	.word	0x3fe62e42
10007ce8:	eb1c432d 	.word	0xeb1c432d
10007cec:	3f1a36e2 	.word	0x3f1a36e2
10007cf0:	00000000 	.word	0x00000000
10007cf4:	412e8480 	.word	0x412e8480
10007cf8:	3ff80000 	.word	0x3ff80000
10007cfc:	3fe00000 	.word	0x3fe00000
10007d00:	402c0000 	.word	0x402c0000
10007d04:	40240000 	.word	0x40240000
10007d08:	40180000 	.word	0x40180000
10007d0c:	3ff00000 	.word	0x3ff00000
10007d10:	509f79fb 	.word	0x509f79fb
10007d14:	3fd34413 	.word	0x3fd34413
10007d18:	8b60c8b3 	.word	0x8b60c8b3
10007d1c:	3fc68a28 	.word	0x3fc68a28
10007d20:	9b12      	ldr	r3, [sp, #72]	@ 0x48
10007d22:	ebaa 0303 	sub.w	r3, sl, r3
10007d26:	930f      	str	r3, [sp, #60]	@ 0x3c
10007d28:	e796      	b.n	10007c58 <_etoa+0x480>
10007d2a:	eba3 0802 	sub.w	r8, r3, r2
10007d2e:	f108 38ff 	add.w	r8, r8, #4294967295
10007d32:	e643      	b.n	100079bc <_etoa+0x1e4>
10007d34:	2304      	movs	r3, #4
10007d36:	9312      	str	r3, [sp, #72]	@ 0x48
10007d38:	2302      	movs	r3, #2
10007d3a:	9310      	str	r3, [sp, #64]	@ 0x40
10007d3c:	e78c      	b.n	10007c58 <_etoa+0x480>
10007d3e:	9b10      	ldr	r3, [sp, #64]	@ 0x40
10007d40:	2b00      	cmp	r3, #0
10007d42:	d0ed      	beq.n	10007d20 <_etoa+0x548>
10007d44:	2302      	movs	r3, #2
10007d46:	920f      	str	r2, [sp, #60]	@ 0x3c
10007d48:	9310      	str	r3, [sp, #64]	@ 0x40
10007d4a:	e785      	b.n	10007c58 <_etoa+0x480>

10007d4c <_vsnprintf>:
10007d4c:	e92d 4ff0 	stmdb	sp!, {r4, r5, r6, r7, r8, r9, sl, fp, lr}
10007d50:	b09b      	sub	sp, #108	@ 0x6c
10007d52:	9c24      	ldr	r4, [sp, #144]	@ 0x90
10007d54:	4d95      	ldr	r5, [pc, #596]	@ (10007fac <_vsnprintf+0x260>)
10007d56:	940a      	str	r4, [sp, #40]	@ 0x28
10007d58:	4c95      	ldr	r4, [pc, #596]	@ (10007fb0 <_vsnprintf+0x264>)
10007d5a:	f1b1 0a00 	subs.w	sl, r1, #0
10007d5e:	bf18      	it	ne
10007d60:	4683      	movne	fp, r0
10007d62:	6025      	str	r5, [r4, #0]
10007d64:	7818      	ldrb	r0, [r3, #0]
10007d66:	4c93      	ldr	r4, [pc, #588]	@ (10007fb4 <_vsnprintf+0x268>)
10007d68:	4691      	mov	r9, r2
10007d6a:	bf08      	it	eq
10007d6c:	46a3      	moveq	fp, r4
10007d6e:	9309      	str	r3, [sp, #36]	@ 0x24
10007d70:	2800      	cmp	r0, #0
10007d72:	f000 8293 	beq.w	1000829c <_vsnprintf+0x550>
10007d76:	f04f 0800 	mov.w	r8, #0
10007d7a:	e00a      	b.n	10007d92 <_vsnprintf+0x46>
10007d7c:	4642      	mov	r2, r8
10007d7e:	464b      	mov	r3, r9
10007d80:	4651      	mov	r1, sl
10007d82:	f108 0801 	add.w	r8, r8, #1
10007d86:	47d8      	blx	fp
10007d88:	9b09      	ldr	r3, [sp, #36]	@ 0x24
10007d8a:	7818      	ldrb	r0, [r3, #0]
10007d8c:	2800      	cmp	r0, #0
10007d8e:	f000 80ce 	beq.w	10007f2e <_vsnprintf+0x1e2>
10007d92:	9b09      	ldr	r3, [sp, #36]	@ 0x24
10007d94:	2825      	cmp	r0, #37	@ 0x25
10007d96:	f103 0301 	add.w	r3, r3, #1
10007d9a:	9309      	str	r3, [sp, #36]	@ 0x24
10007d9c:	d1ee      	bne.n	10007d7c <_vsnprintf+0x30>
10007d9e:	461c      	mov	r4, r3
10007da0:	2300      	movs	r3, #0
10007da2:	4622      	mov	r2, r4
10007da4:	f812 0b01 	ldrb.w	r0, [r2], #1
10007da8:	f1a0 0120 	sub.w	r1, r0, #32
10007dac:	2910      	cmp	r1, #16
10007dae:	d80a      	bhi.n	10007dc6 <_vsnprintf+0x7a>
10007db0:	e8df f001 	tbb	[pc, r1]
10007db4:	3c090940 	.word	0x3c090940
10007db8:	09090909 	.word	0x09090909
10007dbc:	38090909 	.word	0x38090909
10007dc0:	09093409 	.word	0x09093409
10007dc4:	30          	.byte	0x30
10007dc5:	00          	.byte	0x00
10007dc6:	f1a0 0130 	sub.w	r1, r0, #48	@ 0x30
10007dca:	2909      	cmp	r1, #9
10007dcc:	9409      	str	r4, [sp, #36]	@ 0x24
10007dce:	f240 808a 	bls.w	10007ee6 <_vsnprintf+0x19a>
10007dd2:	282a      	cmp	r0, #42	@ 0x2a
10007dd4:	f000 80f0 	beq.w	10007fb8 <_vsnprintf+0x26c>
10007dd8:	2500      	movs	r5, #0
10007dda:	282e      	cmp	r0, #46	@ 0x2e
10007ddc:	f000 8096 	beq.w	10007f0c <_vsnprintf+0x1c0>
10007de0:	2600      	movs	r6, #0
10007de2:	f1a0 0168 	sub.w	r1, r0, #104	@ 0x68
10007de6:	2912      	cmp	r1, #18
10007de8:	d82d      	bhi.n	10007e46 <_vsnprintf+0xfa>
10007dea:	e8df f011 	tbh	[pc, r1, lsl #1]
10007dee:	0149      	.short	0x0149
10007df0:	0143002c 	.word	0x0143002c
10007df4:	0138002c 	.word	0x0138002c
10007df8:	002c002c 	.word	0x002c002c
10007dfc:	002c002c 	.word	0x002c002c
10007e00:	002c002c 	.word	0x002c002c
10007e04:	0027002c 	.word	0x0027002c
10007e08:	002c002c 	.word	0x002c002c
10007e0c:	002c002c 	.word	0x002c002c
10007e10:	0027002c 	.word	0x0027002c
10007e14:	4614      	mov	r4, r2
10007e16:	f043 0301 	orr.w	r3, r3, #1
10007e1a:	e7c2      	b.n	10007da2 <_vsnprintf+0x56>
10007e1c:	4614      	mov	r4, r2
10007e1e:	f043 0302 	orr.w	r3, r3, #2
10007e22:	e7be      	b.n	10007da2 <_vsnprintf+0x56>
10007e24:	4614      	mov	r4, r2
10007e26:	f043 0304 	orr.w	r3, r3, #4
10007e2a:	e7ba      	b.n	10007da2 <_vsnprintf+0x56>
10007e2c:	4614      	mov	r4, r2
10007e2e:	f043 0310 	orr.w	r3, r3, #16
10007e32:	e7b6      	b.n	10007da2 <_vsnprintf+0x56>
10007e34:	4614      	mov	r4, r2
10007e36:	f043 0308 	orr.w	r3, r3, #8
10007e3a:	e7b2      	b.n	10007da2 <_vsnprintf+0x56>
10007e3c:	9909      	ldr	r1, [sp, #36]	@ 0x24
10007e3e:	7848      	ldrb	r0, [r1, #1]
10007e40:	f443 7380 	orr.w	r3, r3, #256	@ 0x100
10007e44:	3201      	adds	r2, #1
10007e46:	2867      	cmp	r0, #103	@ 0x67
10007e48:	9209      	str	r2, [sp, #36]	@ 0x24
10007e4a:	d87e      	bhi.n	10007f4a <_vsnprintf+0x1fe>
10007e4c:	2824      	cmp	r0, #36	@ 0x24
10007e4e:	f240 80c1 	bls.w	10007fd4 <_vsnprintf+0x288>
10007e52:	f1a0 0225 	sub.w	r2, r0, #37	@ 0x25
10007e56:	2a42      	cmp	r2, #66	@ 0x42
10007e58:	f200 80bc 	bhi.w	10007fd4 <_vsnprintf+0x288>
10007e5c:	e8df f012 	tbh	[pc, r2, lsl #1]
10007e60:	00ba0150 	.word	0x00ba0150
10007e64:	00ba00ba 	.word	0x00ba00ba
10007e68:	00ba00ba 	.word	0x00ba00ba
10007e6c:	00ba00ba 	.word	0x00ba00ba
10007e70:	00ba00ba 	.word	0x00ba00ba
10007e74:	00ba00ba 	.word	0x00ba00ba
10007e78:	00ba00ba 	.word	0x00ba00ba
10007e7c:	00ba00ba 	.word	0x00ba00ba
10007e80:	00ba00ba 	.word	0x00ba00ba
10007e84:	00ba00ba 	.word	0x00ba00ba
10007e88:	00ba00ba 	.word	0x00ba00ba
10007e8c:	00ba00ba 	.word	0x00ba00ba
10007e90:	00ba00ba 	.word	0x00ba00ba
10007e94:	00ba00ba 	.word	0x00ba00ba
10007e98:	00ba00ba 	.word	0x00ba00ba
10007e9c:	00ba00ba 	.word	0x00ba00ba
10007ea0:	01370119 	.word	0x01370119
10007ea4:	00ba0119 	.word	0x00ba0119
10007ea8:	00ba00ba 	.word	0x00ba00ba
10007eac:	00ba00ba 	.word	0x00ba00ba
10007eb0:	00ba00ba 	.word	0x00ba00ba
10007eb4:	00ba00ba 	.word	0x00ba00ba
10007eb8:	00ba00ba 	.word	0x00ba00ba
10007ebc:	00ba00ba 	.word	0x00ba00ba
10007ec0:	00ba00ba 	.word	0x00ba00ba
10007ec4:	01bc00ba 	.word	0x01bc00ba
10007ec8:	00ba00ba 	.word	0x00ba00ba
10007ecc:	00ba00ba 	.word	0x00ba00ba
10007ed0:	00ba00ba 	.word	0x00ba00ba
10007ed4:	00ba00ba 	.word	0x00ba00ba
10007ed8:	01bc00ba 	.word	0x01bc00ba
10007edc:	01bc0158 	.word	0x01bc0158
10007ee0:	01370119 	.word	0x01370119
10007ee4:	0119      	.short	0x0119
10007ee6:	2500      	movs	r5, #0
10007ee8:	e000      	b.n	10007eec <_vsnprintf+0x1a0>
10007eea:	3201      	adds	r2, #1
10007eec:	eb05 0585 	add.w	r5, r5, r5, lsl #2
10007ef0:	eb00 0545 	add.w	r5, r0, r5, lsl #1
10007ef4:	7810      	ldrb	r0, [r2, #0]
10007ef6:	3d30      	subs	r5, #48	@ 0x30
10007ef8:	f1a0 0130 	sub.w	r1, r0, #48	@ 0x30
10007efc:	2909      	cmp	r1, #9
10007efe:	d9f4      	bls.n	10007eea <_vsnprintf+0x19e>
10007f00:	282e      	cmp	r0, #46	@ 0x2e
10007f02:	9209      	str	r2, [sp, #36]	@ 0x24
10007f04:	f102 0201 	add.w	r2, r2, #1
10007f08:	f47f af6a 	bne.w	10007de0 <_vsnprintf+0x94>
10007f0c:	9909      	ldr	r1, [sp, #36]	@ 0x24
10007f0e:	f443 6380 	orr.w	r3, r3, #1024	@ 0x400
10007f12:	7848      	ldrb	r0, [r1, #1]
10007f14:	4611      	mov	r1, r2
10007f16:	f1a0 0630 	sub.w	r6, r0, #48	@ 0x30
10007f1a:	2e09      	cmp	r6, #9
10007f1c:	f240 8121 	bls.w	10008162 <_vsnprintf+0x416>
10007f20:	282a      	cmp	r0, #42	@ 0x2a
10007f22:	f000 812f 	beq.w	10008184 <_vsnprintf+0x438>
10007f26:	9209      	str	r2, [sp, #36]	@ 0x24
10007f28:	2600      	movs	r6, #0
10007f2a:	3201      	adds	r2, #1
10007f2c:	e759      	b.n	10007de2 <_vsnprintf+0x96>
10007f2e:	4644      	mov	r4, r8
10007f30:	45c1      	cmp	r9, r8
10007f32:	d801      	bhi.n	10007f38 <_vsnprintf+0x1ec>
10007f34:	f109 38ff 	add.w	r8, r9, #4294967295
10007f38:	464b      	mov	r3, r9
10007f3a:	4642      	mov	r2, r8
10007f3c:	4651      	mov	r1, sl
10007f3e:	2000      	movs	r0, #0
10007f40:	47d8      	blx	fp
10007f42:	4620      	mov	r0, r4
10007f44:	b01b      	add	sp, #108	@ 0x6c
10007f46:	e8bd 8ff0 	ldmia.w	sp!, {r4, r5, r6, r7, r8, r9, sl, fp, pc}
10007f4a:	f1a0 0269 	sub.w	r2, r0, #105	@ 0x69
10007f4e:	b2d2      	uxtb	r2, r2
10007f50:	2a0f      	cmp	r2, #15
10007f52:	d83f      	bhi.n	10007fd4 <_vsnprintf+0x288>
10007f54:	2101      	movs	r1, #1
10007f56:	f249 0741 	movw	r7, #36929	@ 0x9041
10007f5a:	4091      	lsls	r1, r2
10007f5c:	4039      	ands	r1, r7
10007f5e:	f040 80f3 	bne.w	10008148 <_vsnprintf+0x3fc>
10007f62:	2a0a      	cmp	r2, #10
10007f64:	d03d      	beq.n	10007fe2 <_vsnprintf+0x296>
10007f66:	2a07      	cmp	r2, #7
10007f68:	d134      	bne.n	10007fd4 <_vsnprintf+0x288>
10007f6a:	9d0a      	ldr	r5, [sp, #40]	@ 0x28
10007f6c:	f855 2b04 	ldr.w	r2, [r5], #4
10007f70:	2a00      	cmp	r2, #0
10007f72:	f000 8113 	beq.w	1000819c <_vsnprintf+0x450>
10007f76:	f043 0021 	orr.w	r0, r3, #33	@ 0x21
10007f7a:	ab12      	add	r3, sp, #72	@ 0x48
10007f7c:	461f      	mov	r7, r3
10007f7e:	930b      	str	r3, [sp, #44]	@ 0x2c
10007f80:	e003      	b.n	10007f8a <_vsnprintf+0x23e>
10007f82:	2920      	cmp	r1, #32
10007f84:	f000 8114 	beq.w	100081b0 <_vsnprintf+0x464>
10007f88:	461a      	mov	r2, r3
10007f8a:	f002 040f 	and.w	r4, r2, #15
10007f8e:	4623      	mov	r3, r4
10007f90:	2c09      	cmp	r4, #9
10007f92:	bf94      	ite	ls
10007f94:	3330      	addls	r3, #48	@ 0x30
10007f96:	3337      	addhi	r3, #55	@ 0x37
10007f98:	2a0f      	cmp	r2, #15
10007f9a:	f807 3b01 	strb.w	r3, [r7], #1
10007f9e:	f101 0101 	add.w	r1, r1, #1
10007fa2:	ea4f 1312 	mov.w	r3, r2, lsr #4
10007fa6:	d8ec      	bhi.n	10007f82 <_vsnprintf+0x236>
10007fa8:	e102      	b.n	100081b0 <_vsnprintf+0x464>
10007faa:	bf00      	nop
10007fac:	10007d4d 	.word	0x10007d4d
10007fb0:	200025e0 	.word	0x200025e0
10007fb4:	10007091 	.word	0x10007091
10007fb8:	990a      	ldr	r1, [sp, #40]	@ 0x28
10007fba:	9809      	ldr	r0, [sp, #36]	@ 0x24
10007fbc:	f851 5b04 	ldr.w	r5, [r1], #4
10007fc0:	7840      	ldrb	r0, [r0, #1]
10007fc2:	2d00      	cmp	r5, #0
10007fc4:	e9cd 2109 	strd	r2, r1, [sp, #36]	@ 0x24
10007fc8:	bfbc      	itt	lt
10007fca:	f043 0302 	orrlt.w	r3, r3, #2
10007fce:	426d      	neglt	r5, r5
10007fd0:	3201      	adds	r2, #1
10007fd2:	e702      	b.n	10007dda <_vsnprintf+0x8e>
10007fd4:	4642      	mov	r2, r8
10007fd6:	464b      	mov	r3, r9
10007fd8:	4651      	mov	r1, sl
10007fda:	f108 0801 	add.w	r8, r8, #1
10007fde:	47d8      	blx	fp
10007fe0:	e6d2      	b.n	10007d88 <_vsnprintf+0x3c>
10007fe2:	990a      	ldr	r1, [sp, #40]	@ 0x28
10007fe4:	2e00      	cmp	r6, #0
10007fe6:	f851 7b04 	ldr.w	r7, [r1], #4
10007fea:	bf18      	it	ne
10007fec:	4632      	movne	r2, r6
10007fee:	7838      	ldrb	r0, [r7, #0]
10007ff0:	bf08      	it	eq
10007ff2:	f04f 32ff 	moveq.w	r2, #4294967295
10007ff6:	2800      	cmp	r0, #0
10007ff8:	f000 837b 	beq.w	100086f2 <_vsnprintf+0x9a6>
10007ffc:	18bc      	adds	r4, r7, r2
10007ffe:	46a4      	mov	ip, r4
10008000:	463a      	mov	r2, r7
10008002:	e004      	b.n	1000800e <_vsnprintf+0x2c2>
10008004:	f812 4f01 	ldrb.w	r4, [r2, #1]!
10008008:	2c00      	cmp	r4, #0
1000800a:	f000 813f 	beq.w	1000828c <_vsnprintf+0x540>
1000800e:	4594      	cmp	ip, r2
10008010:	d1f8      	bne.n	10008004 <_vsnprintf+0x2b8>
10008012:	4664      	mov	r4, ip
10008014:	1be4      	subs	r4, r4, r7
10008016:	055a      	lsls	r2, r3, #21
10008018:	f140 8122 	bpl.w	10008260 <_vsnprintf+0x514>
1000801c:	42b4      	cmp	r4, r6
1000801e:	bf28      	it	cs
10008020:	4634      	movcs	r4, r6
10008022:	f013 0302 	ands.w	r3, r3, #2
10008026:	f000 8288 	beq.w	1000853a <_vsnprintf+0x7ee>
1000802a:	2302      	movs	r3, #2
1000802c:	e9cd 510a 	strd	r5, r1, [sp, #40]	@ 0x28
10008030:	4642      	mov	r2, r8
10008032:	461d      	mov	r5, r3
10008034:	4446      	add	r6, r8
10008036:	e008      	b.n	1000804a <_vsnprintf+0x2fe>
10008038:	464b      	mov	r3, r9
1000803a:	4651      	mov	r1, sl
1000803c:	47d8      	blx	fp
1000803e:	f817 0f01 	ldrb.w	r0, [r7, #1]!
10008042:	f108 0801 	add.w	r8, r8, #1
10008046:	b110      	cbz	r0, 1000804e <_vsnprintf+0x302>
10008048:	4642      	mov	r2, r8
1000804a:	4546      	cmp	r6, r8
1000804c:	d1f4      	bne.n	10008038 <_vsnprintf+0x2ec>
1000804e:	462b      	mov	r3, r5
10008050:	990b      	ldr	r1, [sp, #44]	@ 0x2c
10008052:	9d0a      	ldr	r5, [sp, #40]	@ 0x28
10008054:	2b00      	cmp	r3, #0
10008056:	f040 8141 	bne.w	100082dc <_vsnprintf+0x590>
1000805a:	910a      	str	r1, [sp, #40]	@ 0x28
1000805c:	e694      	b.n	10007d88 <_vsnprintf+0x3c>
1000805e:	9909      	ldr	r1, [sp, #36]	@ 0x24
10008060:	7848      	ldrb	r0, [r1, #1]
10008062:	286c      	cmp	r0, #108	@ 0x6c
10008064:	f47f aeec 	bne.w	10007e40 <_vsnprintf+0xf4>
10008068:	460a      	mov	r2, r1
1000806a:	7888      	ldrb	r0, [r1, #2]
1000806c:	f443 7340 	orr.w	r3, r3, #768	@ 0x300
10008070:	3203      	adds	r2, #3
10008072:	e6e8      	b.n	10007e46 <_vsnprintf+0xfa>
10008074:	9909      	ldr	r1, [sp, #36]	@ 0x24
10008076:	f443 7300 	orr.w	r3, r3, #512	@ 0x200
1000807a:	7848      	ldrb	r0, [r1, #1]
1000807c:	3201      	adds	r2, #1
1000807e:	e6e2      	b.n	10007e46 <_vsnprintf+0xfa>
10008080:	9909      	ldr	r1, [sp, #36]	@ 0x24
10008082:	7848      	ldrb	r0, [r1, #1]
10008084:	2868      	cmp	r0, #104	@ 0x68
10008086:	f000 8103 	beq.w	10008290 <_vsnprintf+0x544>
1000808a:	f043 0380 	orr.w	r3, r3, #128	@ 0x80
1000808e:	3201      	adds	r2, #1
10008090:	e6d9      	b.n	10007e46 <_vsnprintf+0xfa>
10008092:	2867      	cmp	r0, #103	@ 0x67
10008094:	f000 80d9 	beq.w	1000824a <_vsnprintf+0x4fe>
10008098:	2847      	cmp	r0, #71	@ 0x47
1000809a:	f000 80dc 	beq.w	10008256 <_vsnprintf+0x50a>
1000809e:	2845      	cmp	r0, #69	@ 0x45
100080a0:	f000 80db 	beq.w	1000825a <_vsnprintf+0x50e>
100080a4:	e9cd 5303 	strd	r5, r3, [sp, #12]
100080a8:	9b0a      	ldr	r3, [sp, #40]	@ 0x28
100080aa:	9602      	str	r6, [sp, #8]
100080ac:	3307      	adds	r3, #7
100080ae:	f023 0307 	bic.w	r3, r3, #7
100080b2:	461c      	mov	r4, r3
100080b4:	4642      	mov	r2, r8
100080b6:	e8f4 6702 	ldrd	r6, r7, [r4], #8
100080ba:	464b      	mov	r3, r9
100080bc:	4651      	mov	r1, sl
100080be:	4658      	mov	r0, fp
100080c0:	e9cd 6700 	strd	r6, r7, [sp]
100080c4:	940a      	str	r4, [sp, #40]	@ 0x28
100080c6:	f7ff fb87 	bl	100077d8 <_etoa>
100080ca:	4680      	mov	r8, r0
100080cc:	e65c      	b.n	10007d88 <_vsnprintf+0x3c>
100080ce:	2846      	cmp	r0, #70	@ 0x46
100080d0:	bf08      	it	eq
100080d2:	f043 0320 	orreq.w	r3, r3, #32
100080d6:	e9cd 5303 	strd	r5, r3, [sp, #12]
100080da:	9b0a      	ldr	r3, [sp, #40]	@ 0x28
100080dc:	9602      	str	r6, [sp, #8]
100080de:	3307      	adds	r3, #7
100080e0:	f023 0307 	bic.w	r3, r3, #7
100080e4:	461c      	mov	r4, r3
100080e6:	4642      	mov	r2, r8
100080e8:	e8f4 6702 	ldrd	r6, r7, [r4], #8
100080ec:	464b      	mov	r3, r9
100080ee:	4651      	mov	r1, sl
100080f0:	4658      	mov	r0, fp
100080f2:	e9cd 6700 	strd	r6, r7, [sp]
100080f6:	940a      	str	r4, [sp, #40]	@ 0x28
100080f8:	f7ff f90e 	bl	10007318 <_ftoa>
100080fc:	4680      	mov	r8, r0
100080fe:	e643      	b.n	10007d88 <_vsnprintf+0x3c>
10008100:	4642      	mov	r2, r8
10008102:	464b      	mov	r3, r9
10008104:	4651      	mov	r1, sl
10008106:	2025      	movs	r0, #37	@ 0x25
10008108:	f108 0801 	add.w	r8, r8, #1
1000810c:	47d8      	blx	fp
1000810e:	e63b      	b.n	10007d88 <_vsnprintf+0x3c>
10008110:	9a0a      	ldr	r2, [sp, #40]	@ 0x28
10008112:	0799      	lsls	r1, r3, #30
10008114:	f102 0404 	add.w	r4, r2, #4
10008118:	f108 0601 	add.w	r6, r8, #1
1000811c:	f140 80c6 	bpl.w	100082ac <_vsnprintf+0x560>
10008120:	7810      	ldrb	r0, [r2, #0]
10008122:	464b      	mov	r3, r9
10008124:	4642      	mov	r2, r8
10008126:	4651      	mov	r1, sl
10008128:	47d8      	blx	fp
1000812a:	2d01      	cmp	r5, #1
1000812c:	bf88      	it	hi
1000812e:	44a8      	addhi	r8, r5
10008130:	f240 81bd 	bls.w	100084ae <_vsnprintf+0x762>
10008134:	4632      	mov	r2, r6
10008136:	464b      	mov	r3, r9
10008138:	4651      	mov	r1, sl
1000813a:	2020      	movs	r0, #32
1000813c:	3601      	adds	r6, #1
1000813e:	47d8      	blx	fp
10008140:	4546      	cmp	r6, r8
10008142:	d1f7      	bne.n	10008134 <_vsnprintf+0x3e8>
10008144:	940a      	str	r4, [sp, #40]	@ 0x28
10008146:	e61f      	b.n	10007d88 <_vsnprintf+0x3c>
10008148:	286f      	cmp	r0, #111	@ 0x6f
1000814a:	f000 8081 	beq.w	10008250 <_vsnprintf+0x504>
1000814e:	f240 8248 	bls.w	100085e2 <_vsnprintf+0x896>
10008152:	2878      	cmp	r0, #120	@ 0x78
10008154:	f000 8190 	beq.w	10008478 <_vsnprintf+0x72c>
10008158:	270a      	movs	r7, #10
1000815a:	f023 0310 	bic.w	r3, r3, #16
1000815e:	46bc      	mov	ip, r7
10008160:	e041      	b.n	100081e6 <_vsnprintf+0x49a>
10008162:	2600      	movs	r6, #0
10008164:	eb06 0686 	add.w	r6, r6, r6, lsl #2
10008168:	eb00 0046 	add.w	r0, r0, r6, lsl #1
1000816c:	f1a0 0630 	sub.w	r6, r0, #48	@ 0x30
10008170:	f811 0f01 	ldrb.w	r0, [r1, #1]!
10008174:	f1a0 0230 	sub.w	r2, r0, #48	@ 0x30
10008178:	2a09      	cmp	r2, #9
1000817a:	d9f3      	bls.n	10008164 <_vsnprintf+0x418>
1000817c:	460a      	mov	r2, r1
1000817e:	9109      	str	r1, [sp, #36]	@ 0x24
10008180:	3201      	adds	r2, #1
10008182:	e62e      	b.n	10007de2 <_vsnprintf+0x96>
10008184:	e9dd 2109 	ldrd	r2, r1, [sp, #36]	@ 0x24
10008188:	f851 6b04 	ldr.w	r6, [r1], #4
1000818c:	7890      	ldrb	r0, [r2, #2]
1000818e:	3202      	adds	r2, #2
10008190:	9209      	str	r2, [sp, #36]	@ 0x24
10008192:	910a      	str	r1, [sp, #40]	@ 0x28
10008194:	3201      	adds	r2, #1
10008196:	ea26 76e6 	bic.w	r6, r6, r6, asr #31
1000819a:	e622      	b.n	10007de2 <_vsnprintf+0x96>
1000819c:	f023 0010 	bic.w	r0, r3, #16
100081a0:	f413 6280 	ands.w	r2, r3, #1024	@ 0x400
100081a4:	f040 0021 	orr.w	r0, r0, #33	@ 0x21
100081a8:	f43f aee7 	beq.w	10007f7a <_vsnprintf+0x22e>
100081ac:	ab12      	add	r3, sp, #72	@ 0x48
100081ae:	930b      	str	r3, [sp, #44]	@ 0x2c
100081b0:	9b0b      	ldr	r3, [sp, #44]	@ 0x2c
100081b2:	9006      	str	r0, [sp, #24]
100081b4:	9300      	str	r3, [sp, #0]
100081b6:	2308      	movs	r3, #8
100081b8:	2010      	movs	r0, #16
100081ba:	9305      	str	r3, [sp, #20]
100081bc:	2300      	movs	r3, #0
100081be:	4642      	mov	r2, r8
100081c0:	e9cd 3002 	strd	r3, r0, [sp, #8]
100081c4:	9101      	str	r1, [sp, #4]
100081c6:	464b      	mov	r3, r9
100081c8:	4651      	mov	r1, sl
100081ca:	4658      	mov	r0, fp
100081cc:	9604      	str	r6, [sp, #16]
100081ce:	f7fe ffaf 	bl	10007130 <_ntoa_format>
100081d2:	950a      	str	r5, [sp, #40]	@ 0x28
100081d4:	4680      	mov	r8, r0
100081d6:	e5d7      	b.n	10007d88 <_vsnprintf+0x3c>
100081d8:	2858      	cmp	r0, #88	@ 0x58
100081da:	d062      	beq.n	100082a2 <_vsnprintf+0x556>
100081dc:	2862      	cmp	r0, #98	@ 0x62
100081de:	f040 808f 	bne.w	10008300 <_vsnprintf+0x5b4>
100081e2:	2702      	movs	r7, #2
100081e4:	46bc      	mov	ip, r7
100081e6:	f413 6080 	ands.w	r0, r3, #1024	@ 0x400
100081ea:	f000 80dd 	beq.w	100083a8 <_vsnprintf+0x65c>
100081ee:	f023 030d 	bic.w	r3, r3, #13
100081f2:	f413 7200 	ands.w	r2, r3, #512	@ 0x200
100081f6:	f040 8181 	bne.w	100084fc <_vsnprintf+0x7b0>
100081fa:	990a      	ldr	r1, [sp, #40]	@ 0x28
100081fc:	1d0f      	adds	r7, r1, #4
100081fe:	f413 7180 	ands.w	r1, r3, #256	@ 0x100
10008202:	f040 8237 	bne.w	10008674 <_vsnprintf+0x928>
10008206:	065c      	lsls	r4, r3, #25
10008208:	9a0a      	ldr	r2, [sp, #40]	@ 0x28
1000820a:	f140 813b 	bpl.w	10008484 <_vsnprintf+0x738>
1000820e:	7812      	ldrb	r2, [r2, #0]
10008210:	2a00      	cmp	r2, #0
10008212:	f040 814e 	bne.w	100084b2 <_vsnprintf+0x766>
10008216:	f023 0310 	bic.w	r3, r3, #16
1000821a:	2800      	cmp	r0, #0
1000821c:	f000 8149 	beq.w	100084b2 <_vsnprintf+0x766>
10008220:	4611      	mov	r1, r2
10008222:	aa12      	add	r2, sp, #72	@ 0x48
10008224:	920b      	str	r2, [sp, #44]	@ 0x2c
10008226:	e9cd 5305 	strd	r5, r3, [sp, #20]
1000822a:	e9cd c603 	strd	ip, r6, [sp, #12]
1000822e:	9101      	str	r1, [sp, #4]
10008230:	9b0b      	ldr	r3, [sp, #44]	@ 0x2c
10008232:	4642      	mov	r2, r8
10008234:	9300      	str	r3, [sp, #0]
10008236:	2300      	movs	r3, #0
10008238:	4651      	mov	r1, sl
1000823a:	9302      	str	r3, [sp, #8]
1000823c:	4658      	mov	r0, fp
1000823e:	464b      	mov	r3, r9
10008240:	f7fe ff76 	bl	10007130 <_ntoa_format>
10008244:	970a      	str	r7, [sp, #40]	@ 0x28
10008246:	4680      	mov	r8, r0
10008248:	e59e      	b.n	10007d88 <_vsnprintf+0x3c>
1000824a:	f443 6300 	orr.w	r3, r3, #2048	@ 0x800
1000824e:	e729      	b.n	100080a4 <_vsnprintf+0x358>
10008250:	2708      	movs	r7, #8
10008252:	46bc      	mov	ip, r7
10008254:	e7c7      	b.n	100081e6 <_vsnprintf+0x49a>
10008256:	f443 6300 	orr.w	r3, r3, #2048	@ 0x800
1000825a:	f043 0320 	orr.w	r3, r3, #32
1000825e:	e721      	b.n	100080a4 <_vsnprintf+0x358>
10008260:	f013 0302 	ands.w	r3, r3, #2
10008264:	f000 818e 	beq.w	10008584 <_vsnprintf+0x838>
10008268:	2302      	movs	r3, #2
1000826a:	950a      	str	r5, [sp, #40]	@ 0x28
1000826c:	461e      	mov	r6, r3
1000826e:	460d      	mov	r5, r1
10008270:	4642      	mov	r2, r8
10008272:	464b      	mov	r3, r9
10008274:	4651      	mov	r1, sl
10008276:	47d8      	blx	fp
10008278:	f817 0f01 	ldrb.w	r0, [r7, #1]!
1000827c:	f108 0801 	add.w	r8, r8, #1
10008280:	2800      	cmp	r0, #0
10008282:	d1f5      	bne.n	10008270 <_vsnprintf+0x524>
10008284:	4629      	mov	r1, r5
10008286:	4633      	mov	r3, r6
10008288:	9d0a      	ldr	r5, [sp, #40]	@ 0x28
1000828a:	e6e3      	b.n	10008054 <_vsnprintf+0x308>
1000828c:	1bd4      	subs	r4, r2, r7
1000828e:	e6c2      	b.n	10008016 <_vsnprintf+0x2ca>
10008290:	460a      	mov	r2, r1
10008292:	7888      	ldrb	r0, [r1, #2]
10008294:	f043 03c0 	orr.w	r3, r3, #192	@ 0xc0
10008298:	3203      	adds	r2, #3
1000829a:	e5d4      	b.n	10007e46 <_vsnprintf+0xfa>
1000829c:	4604      	mov	r4, r0
1000829e:	4680      	mov	r8, r0
100082a0:	e646      	b.n	10007f30 <_vsnprintf+0x1e4>
100082a2:	2710      	movs	r7, #16
100082a4:	f043 0320 	orr.w	r3, r3, #32
100082a8:	46bc      	mov	ip, r7
100082aa:	e79c      	b.n	100081e6 <_vsnprintf+0x49a>
100082ac:	2d01      	cmp	r5, #1
100082ae:	f240 80f8 	bls.w	100084a2 <_vsnprintf+0x756>
100082b2:	4646      	mov	r6, r8
100082b4:	f108 37ff 	add.w	r7, r8, #4294967295
100082b8:	442f      	add	r7, r5
100082ba:	4632      	mov	r2, r6
100082bc:	464b      	mov	r3, r9
100082be:	4651      	mov	r1, sl
100082c0:	2020      	movs	r0, #32
100082c2:	3601      	adds	r6, #1
100082c4:	47d8      	blx	fp
100082c6:	42be      	cmp	r6, r7
100082c8:	d1f7      	bne.n	100082ba <_vsnprintf+0x56e>
100082ca:	9b0a      	ldr	r3, [sp, #40]	@ 0x28
100082cc:	4632      	mov	r2, r6
100082ce:	7818      	ldrb	r0, [r3, #0]
100082d0:	4651      	mov	r1, sl
100082d2:	464b      	mov	r3, r9
100082d4:	47d8      	blx	fp
100082d6:	44a8      	add	r8, r5
100082d8:	940a      	str	r4, [sp, #40]	@ 0x28
100082da:	e555      	b.n	10007d88 <_vsnprintf+0x3c>
100082dc:	4646      	mov	r6, r8
100082de:	42a5      	cmp	r5, r4
100082e0:	f67f aebb 	bls.w	1000805a <_vsnprintf+0x30e>
100082e4:	44a8      	add	r8, r5
100082e6:	eba8 0804 	sub.w	r8, r8, r4
100082ea:	460c      	mov	r4, r1
100082ec:	4632      	mov	r2, r6
100082ee:	464b      	mov	r3, r9
100082f0:	4651      	mov	r1, sl
100082f2:	2020      	movs	r0, #32
100082f4:	3601      	adds	r6, #1
100082f6:	47d8      	blx	fp
100082f8:	4546      	cmp	r6, r8
100082fa:	d1f7      	bne.n	100082ec <_vsnprintf+0x5a0>
100082fc:	4621      	mov	r1, r4
100082fe:	e6ac      	b.n	1000805a <_vsnprintf+0x30e>
10008300:	f413 6280 	ands.w	r2, r3, #1024	@ 0x400
10008304:	f000 80bb 	beq.w	1000847e <_vsnprintf+0x732>
10008308:	f44f 6280 	mov.w	r2, #1024	@ 0x400
1000830c:	f023 0c11 	bic.w	ip, r3, #17
10008310:	f41c 7700 	ands.w	r7, ip, #512	@ 0x200
10008314:	9b0a      	ldr	r3, [sp, #40]	@ 0x28
10008316:	d14a      	bne.n	100083ae <_vsnprintf+0x662>
10008318:	f41c 7080 	ands.w	r0, ip, #256	@ 0x100
1000831c:	f103 0404 	add.w	r4, r3, #4
10008320:	f040 8134 	bne.w	1000858c <_vsnprintf+0x840>
10008324:	f01c 0f40 	tst.w	ip, #64	@ 0x40
10008328:	f040 80a3 	bne.w	10008472 <_vsnprintf+0x726>
1000832c:	f01c 0f80 	tst.w	ip, #128	@ 0x80
10008330:	f000 81d3 	beq.w	100086da <_vsnprintf+0x98e>
10008334:	f9b3 1000 	ldrsh.w	r1, [r3]
10008338:	ea81 77e1 	eor.w	r7, r1, r1, asr #31
1000833c:	eba7 77e1 	sub.w	r7, r7, r1, asr #31
10008340:	b2bf      	uxth	r7, r7
10008342:	0fcb      	lsrs	r3, r1, #31
10008344:	2900      	cmp	r1, #0
10008346:	f000 8156 	beq.w	100085f6 <_vsnprintf+0x8aa>
1000834a:	463a      	mov	r2, r7
1000834c:	a912      	add	r1, sp, #72	@ 0x48
1000834e:	460f      	mov	r7, r1
10008350:	f8df e3d8 	ldr.w	lr, [pc, #984]	@ 1000872c <_vsnprintf+0x9e0>
10008354:	910b      	str	r1, [sp, #44]	@ 0x2c
10008356:	930a      	str	r3, [sp, #40]	@ 0x28
10008358:	950c      	str	r5, [sp, #48]	@ 0x30
1000835a:	e001      	b.n	10008360 <_vsnprintf+0x614>
1000835c:	2820      	cmp	r0, #32
1000835e:	d00f      	beq.n	10008380 <_vsnprintf+0x634>
10008360:	4615      	mov	r5, r2
10008362:	fbae 1302 	umull	r1, r3, lr, r2
10008366:	08db      	lsrs	r3, r3, #3
10008368:	eb03 0183 	add.w	r1, r3, r3, lsl #2
1000836c:	eba2 0141 	sub.w	r1, r2, r1, lsl #1
10008370:	3130      	adds	r1, #48	@ 0x30
10008372:	2d09      	cmp	r5, #9
10008374:	461a      	mov	r2, r3
10008376:	f100 0001 	add.w	r0, r0, #1
1000837a:	f807 1b01 	strb.w	r1, [r7], #1
1000837e:	d8ed      	bhi.n	1000835c <_vsnprintf+0x610>
10008380:	9b0a      	ldr	r3, [sp, #40]	@ 0x28
10008382:	9d0c      	ldr	r5, [sp, #48]	@ 0x30
10008384:	e9cd 5c05 	strd	r5, ip, [sp, #20]
10008388:	e9cd 0301 	strd	r0, r3, [sp, #4]
1000838c:	9604      	str	r6, [sp, #16]
1000838e:	9b0b      	ldr	r3, [sp, #44]	@ 0x2c
10008390:	4642      	mov	r2, r8
10008392:	9300      	str	r3, [sp, #0]
10008394:	230a      	movs	r3, #10
10008396:	4651      	mov	r1, sl
10008398:	9303      	str	r3, [sp, #12]
1000839a:	4658      	mov	r0, fp
1000839c:	464b      	mov	r3, r9
1000839e:	f7fe fec7 	bl	10007130 <_ntoa_format>
100083a2:	940a      	str	r4, [sp, #40]	@ 0x28
100083a4:	4680      	mov	r8, r0
100083a6:	e4ef      	b.n	10007d88 <_vsnprintf+0x3c>
100083a8:	f023 030c 	bic.w	r3, r3, #12
100083ac:	e721      	b.n	100081f2 <_vsnprintf+0x4a6>
100083ae:	3307      	adds	r3, #7
100083b0:	f023 0307 	bic.w	r3, r3, #7
100083b4:	4619      	mov	r1, r3
100083b6:	4608      	mov	r0, r1
100083b8:	685b      	ldr	r3, [r3, #4]
100083ba:	f850 1b08 	ldr.w	r1, [r0], #8
100083be:	0fdf      	lsrs	r7, r3, #31
100083c0:	900a      	str	r0, [sp, #40]	@ 0x28
100083c2:	ea51 0003 	orrs.w	r0, r1, r3
100083c6:	d162      	bne.n	1000848e <_vsnprintf+0x742>
100083c8:	2a00      	cmp	r2, #0
100083ca:	f040 819f 	bne.w	1000870c <_vsnprintf+0x9c0>
100083ce:	4613      	mov	r3, r2
100083d0:	4611      	mov	r1, r2
100083d2:	aa12      	add	r2, sp, #72	@ 0x48
100083d4:	e9cd 750c 	strd	r7, r5, [sp, #48]	@ 0x30
100083d8:	2000      	movs	r0, #0
100083da:	4615      	mov	r5, r2
100083dc:	e9cd 680e 	strd	r6, r8, [sp, #56]	@ 0x38
100083e0:	f8df e348 	ldr.w	lr, [pc, #840]	@ 1000872c <_vsnprintf+0x9e0>
100083e4:	920b      	str	r2, [sp, #44]	@ 0x2c
100083e6:	e001      	b.n	100083ec <_vsnprintf+0x6a0>
100083e8:	2820      	cmp	r0, #32
100083ea:	d02d      	beq.n	10008448 <_vsnprintf+0x6fc>
100083ec:	185a      	adds	r2, r3, r1
100083ee:	f142 0200 	adc.w	r2, r2, #0
100083f2:	fbae 7802 	umull	r7, r8, lr, r2
100083f6:	f028 0703 	bic.w	r7, r8, #3
100083fa:	eb07 0798 	add.w	r7, r7, r8, lsr #2
100083fe:	1bd2      	subs	r2, r2, r7
10008400:	461e      	mov	r6, r3
10008402:	1a9b      	subs	r3, r3, r2
10008404:	f161 0700 	sbc.w	r7, r1, #0
10008408:	460c      	mov	r4, r1
1000840a:	f04f 31cc 	mov.w	r1, #3435973836	@ 0xcccccccc
1000840e:	fb01 f103 	mul.w	r1, r1, r3
10008412:	fb0e 1107 	mla	r1, lr, r7, r1
10008416:	fba3 730e 	umull	r7, r3, r3, lr
1000841a:	4419      	add	r1, r3
1000841c:	2305      	movs	r3, #5
1000841e:	f007 0801 	and.w	r8, r7, #1
10008422:	fba8 3803 	umull	r3, r8, r8, r3
10008426:	189b      	adds	r3, r3, r2
10008428:	2e0a      	cmp	r6, #10
1000842a:	f103 0330 	add.w	r3, r3, #48	@ 0x30
1000842e:	ea4f 0757 	mov.w	r7, r7, lsr #1
10008432:	f174 0400 	sbcs.w	r4, r4, #0
10008436:	f805 3b01 	strb.w	r3, [r5], #1
1000843a:	f100 0001 	add.w	r0, r0, #1
1000843e:	ea47 73c1 	orr.w	r3, r7, r1, lsl #31
10008442:	ea4f 0151 	mov.w	r1, r1, lsr #1
10008446:	d2cf      	bcs.n	100083e8 <_vsnprintf+0x69c>
10008448:	e9dd 750c 	ldrd	r7, r5, [sp, #48]	@ 0x30
1000844c:	e9dd 680e 	ldrd	r6, r8, [sp, #56]	@ 0x38
10008450:	9b0b      	ldr	r3, [sp, #44]	@ 0x2c
10008452:	4642      	mov	r2, r8
10008454:	9300      	str	r3, [sp, #0]
10008456:	230a      	movs	r3, #10
10008458:	e9cd 5c05 	strd	r5, ip, [sp, #20]
1000845c:	e9cd 0701 	strd	r0, r7, [sp, #4]
10008460:	9604      	str	r6, [sp, #16]
10008462:	9303      	str	r3, [sp, #12]
10008464:	464b      	mov	r3, r9
10008466:	4651      	mov	r1, sl
10008468:	4658      	mov	r0, fp
1000846a:	f7fe fe61 	bl	10007130 <_ntoa_format>
1000846e:	4680      	mov	r8, r0
10008470:	e48a      	b.n	10007d88 <_vsnprintf+0x3c>
10008472:	7819      	ldrb	r1, [r3, #0]
10008474:	460f      	mov	r7, r1
10008476:	e764      	b.n	10008342 <_vsnprintf+0x5f6>
10008478:	2710      	movs	r7, #16
1000847a:	46bc      	mov	ip, r7
1000847c:	e6b3      	b.n	100081e6 <_vsnprintf+0x49a>
1000847e:	f023 0c10 	bic.w	ip, r3, #16
10008482:	e745      	b.n	10008310 <_vsnprintf+0x5c4>
10008484:	061c      	lsls	r4, r3, #24
10008486:	bf4c      	ite	mi
10008488:	8812      	ldrhmi	r2, [r2, #0]
1000848a:	6812      	ldrpl	r2, [r2, #0]
1000848c:	e6c0      	b.n	10008210 <_vsnprintf+0x4c4>
1000848e:	460a      	mov	r2, r1
10008490:	1e19      	subs	r1, r3, #0
10008492:	db01      	blt.n	10008498 <_vsnprintf+0x74c>
10008494:	4613      	mov	r3, r2
10008496:	e79c      	b.n	100083d2 <_vsnprintf+0x686>
10008498:	4252      	negs	r2, r2
1000849a:	4613      	mov	r3, r2
1000849c:	eb61 0141 	sbc.w	r1, r1, r1, lsl #1
100084a0:	e797      	b.n	100083d2 <_vsnprintf+0x686>
100084a2:	4613      	mov	r3, r2
100084a4:	4651      	mov	r1, sl
100084a6:	7818      	ldrb	r0, [r3, #0]
100084a8:	4642      	mov	r2, r8
100084aa:	464b      	mov	r3, r9
100084ac:	47d8      	blx	fp
100084ae:	46b0      	mov	r8, r6
100084b0:	e648      	b.n	10008144 <_vsnprintf+0x3f8>
100084b2:	f013 0f20 	tst.w	r3, #32
100084b6:	bf14      	ite	ne
100084b8:	2041      	movne	r0, #65	@ 0x41
100084ba:	2061      	moveq	r0, #97	@ 0x61
100084bc:	ac12      	add	r4, sp, #72	@ 0x48
100084be:	46a6      	mov	lr, r4
100084c0:	940b      	str	r4, [sp, #44]	@ 0x2c
100084c2:	930a      	str	r3, [sp, #40]	@ 0x28
100084c4:	f1a0 040a 	sub.w	r4, r0, #10
100084c8:	950c      	str	r5, [sp, #48]	@ 0x30
100084ca:	e002      	b.n	100084d2 <_vsnprintf+0x786>
100084cc:	2920      	cmp	r1, #32
100084ce:	d012      	beq.n	100084f6 <_vsnprintf+0x7aa>
100084d0:	462a      	mov	r2, r5
100084d2:	fbb2 f5fc 	udiv	r5, r2, ip
100084d6:	fb0c 2015 	mls	r0, ip, r5, r2
100084da:	b2c3      	uxtb	r3, r0
100084dc:	2809      	cmp	r0, #9
100084de:	f103 0030 	add.w	r0, r3, #48	@ 0x30
100084e2:	bf8a      	itet	hi
100084e4:	191b      	addhi	r3, r3, r4
100084e6:	b2c3      	uxtbls	r3, r0
100084e8:	b2db      	uxtbhi	r3, r3
100084ea:	4562      	cmp	r2, ip
100084ec:	f80e 3b01 	strb.w	r3, [lr], #1
100084f0:	f101 0101 	add.w	r1, r1, #1
100084f4:	d2ea      	bcs.n	100084cc <_vsnprintf+0x780>
100084f6:	9b0a      	ldr	r3, [sp, #40]	@ 0x28
100084f8:	9d0c      	ldr	r5, [sp, #48]	@ 0x30
100084fa:	e694      	b.n	10008226 <_vsnprintf+0x4da>
100084fc:	9a0a      	ldr	r2, [sp, #40]	@ 0x28
100084fe:	3207      	adds	r2, #7
10008500:	f022 0207 	bic.w	r2, r2, #7
10008504:	6851      	ldr	r1, [r2, #4]
10008506:	f852 4b08 	ldr.w	r4, [r2], #8
1000850a:	468e      	mov	lr, r1
1000850c:	920a      	str	r2, [sp, #40]	@ 0x28
1000850e:	ea54 0201 	orrs.w	r2, r4, r1
10008512:	d176      	bne.n	10008602 <_vsnprintf+0x8b6>
10008514:	f023 0310 	bic.w	r3, r3, #16
10008518:	2800      	cmp	r0, #0
1000851a:	d072      	beq.n	10008602 <_vsnprintf+0x8b6>
1000851c:	2200      	movs	r2, #0
1000851e:	4611      	mov	r1, r2
10008520:	aa12      	add	r2, sp, #72	@ 0x48
10008522:	920b      	str	r2, [sp, #44]	@ 0x2c
10008524:	e9cd 5305 	strd	r5, r3, [sp, #20]
10008528:	9b0b      	ldr	r3, [sp, #44]	@ 0x2c
1000852a:	4642      	mov	r2, r8
1000852c:	9300      	str	r3, [sp, #0]
1000852e:	2300      	movs	r3, #0
10008530:	e9cd c603 	strd	ip, r6, [sp, #12]
10008534:	9101      	str	r1, [sp, #4]
10008536:	9302      	str	r3, [sp, #8]
10008538:	e794      	b.n	10008464 <_vsnprintf+0x718>
1000853a:	42a5      	cmp	r5, r4
1000853c:	bf98      	it	ls
1000853e:	3401      	addls	r4, #1
10008540:	f67f ad74 	bls.w	1000802c <_vsnprintf+0x2e0>
10008544:	f44f 6380 	mov.w	r3, #1024	@ 0x400
10008548:	e9cd 750a 	strd	r7, r5, [sp, #40]	@ 0x28
1000854c:	eb05 0208 	add.w	r2, r5, r8
10008550:	461f      	mov	r7, r3
10008552:	460d      	mov	r5, r1
10008554:	1b14      	subs	r4, r2, r4
10008556:	4642      	mov	r2, r8
10008558:	464b      	mov	r3, r9
1000855a:	4651      	mov	r1, sl
1000855c:	2020      	movs	r0, #32
1000855e:	f108 0801 	add.w	r8, r8, #1
10008562:	47d8      	blx	fp
10008564:	45a0      	cmp	r8, r4
10008566:	d1f6      	bne.n	10008556 <_vsnprintf+0x80a>
10008568:	463b      	mov	r3, r7
1000856a:	9f0a      	ldr	r7, [sp, #40]	@ 0x28
1000856c:	4629      	mov	r1, r5
1000856e:	7838      	ldrb	r0, [r7, #0]
10008570:	9d0b      	ldr	r5, [sp, #44]	@ 0x2c
10008572:	1c6c      	adds	r4, r5, #1
10008574:	2800      	cmp	r0, #0
10008576:	f43f ad70 	beq.w	1000805a <_vsnprintf+0x30e>
1000857a:	2b00      	cmp	r3, #0
1000857c:	f43f ae75 	beq.w	1000826a <_vsnprintf+0x51e>
10008580:	2300      	movs	r3, #0
10008582:	e553      	b.n	1000802c <_vsnprintf+0x2e0>
10008584:	42a5      	cmp	r5, r4
10008586:	d8df      	bhi.n	10008548 <_vsnprintf+0x7fc>
10008588:	3401      	adds	r4, #1
1000858a:	e66e      	b.n	1000826a <_vsnprintf+0x51e>
1000858c:	6819      	ldr	r1, [r3, #0]
1000858e:	0fcb      	lsrs	r3, r1, #31
10008590:	2900      	cmp	r1, #0
10008592:	f000 80a8 	beq.w	100086e6 <_vsnprintf+0x99a>
10008596:	ea81 72e1 	eor.w	r2, r1, r1, asr #31
1000859a:	eba2 72e1 	sub.w	r2, r2, r1, asr #31
1000859e:	a912      	add	r1, sp, #72	@ 0x48
100085a0:	4608      	mov	r0, r1
100085a2:	f8df e188 	ldr.w	lr, [pc, #392]	@ 1000872c <_vsnprintf+0x9e0>
100085a6:	910b      	str	r1, [sp, #44]	@ 0x2c
100085a8:	930a      	str	r3, [sp, #40]	@ 0x28
100085aa:	950c      	str	r5, [sp, #48]	@ 0x30
100085ac:	e001      	b.n	100085b2 <_vsnprintf+0x866>
100085ae:	2f20      	cmp	r7, #32
100085b0:	d00f      	beq.n	100085d2 <_vsnprintf+0x886>
100085b2:	4615      	mov	r5, r2
100085b4:	fbae 1302 	umull	r1, r3, lr, r2
100085b8:	08db      	lsrs	r3, r3, #3
100085ba:	eb03 0183 	add.w	r1, r3, r3, lsl #2
100085be:	eba2 0141 	sub.w	r1, r2, r1, lsl #1
100085c2:	3130      	adds	r1, #48	@ 0x30
100085c4:	2d09      	cmp	r5, #9
100085c6:	461a      	mov	r2, r3
100085c8:	f107 0701 	add.w	r7, r7, #1
100085cc:	f800 1b01 	strb.w	r1, [r0], #1
100085d0:	d8ed      	bhi.n	100085ae <_vsnprintf+0x862>
100085d2:	9b0a      	ldr	r3, [sp, #40]	@ 0x28
100085d4:	9d0c      	ldr	r5, [sp, #48]	@ 0x30
100085d6:	e9cd 5c05 	strd	r5, ip, [sp, #20]
100085da:	e9cd 7301 	strd	r7, r3, [sp, #4]
100085de:	9604      	str	r6, [sp, #16]
100085e0:	e6d5      	b.n	1000838e <_vsnprintf+0x642>
100085e2:	2869      	cmp	r0, #105	@ 0x69
100085e4:	f023 0c10 	bic.w	ip, r3, #16
100085e8:	f040 808c 	bne.w	10008704 <_vsnprintf+0x9b8>
100085ec:	f413 6280 	ands.w	r2, r3, #1024	@ 0x400
100085f0:	f43f ae8e 	beq.w	10008310 <_vsnprintf+0x5c4>
100085f4:	e688      	b.n	10008308 <_vsnprintf+0x5bc>
100085f6:	2a00      	cmp	r2, #0
100085f8:	f43f aea8 	beq.w	1000834c <_vsnprintf+0x600>
100085fc:	aa12      	add	r2, sp, #72	@ 0x48
100085fe:	920b      	str	r2, [sp, #44]	@ 0x2c
10008600:	e6c0      	b.n	10008384 <_vsnprintf+0x638>
10008602:	f013 0f20 	tst.w	r3, #32
10008606:	bf14      	ite	ne
10008608:	2241      	movne	r2, #65	@ 0x41
1000860a:	2261      	moveq	r2, #97	@ 0x61
1000860c:	2000      	movs	r0, #0
1000860e:	a912      	add	r1, sp, #72	@ 0x48
10008610:	3a0a      	subs	r2, #10
10008612:	e9cd 680e 	strd	r6, r8, [sp, #56]	@ 0x38
10008616:	e9cd 350c 	strd	r3, r5, [sp, #48]	@ 0x30
1000861a:	f8cd b044 	str.w	fp, [sp, #68]	@ 0x44
1000861e:	4606      	mov	r6, r0
10008620:	4688      	mov	r8, r1
10008622:	4675      	mov	r5, lr
10008624:	4693      	mov	fp, r2
10008626:	910b      	str	r1, [sp, #44]	@ 0x2c
10008628:	f8cd c040 	str.w	ip, [sp, #64]	@ 0x40
1000862c:	e003      	b.n	10008636 <_vsnprintf+0x8ea>
1000862e:	2e20      	cmp	r6, #32
10008630:	d017      	beq.n	10008662 <_vsnprintf+0x916>
10008632:	4604      	mov	r4, r0
10008634:	460d      	mov	r5, r1
10008636:	4629      	mov	r1, r5
10008638:	463a      	mov	r2, r7
1000863a:	2300      	movs	r3, #0
1000863c:	4620      	mov	r0, r4
1000863e:	f004 ff67 	bl	1000d510 <____aeabi_uldivmod_veneer>
10008642:	b2d2      	uxtb	r2, r2
10008644:	2a09      	cmp	r2, #9
10008646:	f102 0330 	add.w	r3, r2, #48	@ 0x30
1000864a:	bf88      	it	hi
1000864c:	eb02 030b 	addhi.w	r3, r2, fp
10008650:	42bc      	cmp	r4, r7
10008652:	b2db      	uxtb	r3, r3
10008654:	f175 0500 	sbcs.w	r5, r5, #0
10008658:	f808 3b01 	strb.w	r3, [r8], #1
1000865c:	f106 0601 	add.w	r6, r6, #1
10008660:	d2e5      	bcs.n	1000862e <_vsnprintf+0x8e2>
10008662:	4631      	mov	r1, r6
10008664:	e9dd 350c 	ldrd	r3, r5, [sp, #48]	@ 0x30
10008668:	e9dd cb10 	ldrd	ip, fp, [sp, #64]	@ 0x40
1000866c:	f8dd 803c 	ldr.w	r8, [sp, #60]	@ 0x3c
10008670:	9e0e      	ldr	r6, [sp, #56]	@ 0x38
10008672:	e757      	b.n	10008524 <_vsnprintf+0x7d8>
10008674:	990a      	ldr	r1, [sp, #40]	@ 0x28
10008676:	6809      	ldr	r1, [r1, #0]
10008678:	b951      	cbnz	r1, 10008690 <_vsnprintf+0x944>
1000867a:	f023 0310 	bic.w	r3, r3, #16
1000867e:	b138      	cbz	r0, 10008690 <_vsnprintf+0x944>
10008680:	a912      	add	r1, sp, #72	@ 0x48
10008682:	910b      	str	r1, [sp, #44]	@ 0x2c
10008684:	e9cd 5305 	strd	r5, r3, [sp, #20]
10008688:	e9cd c603 	strd	ip, r6, [sp, #12]
1000868c:	9201      	str	r2, [sp, #4]
1000868e:	e5cf      	b.n	10008230 <_vsnprintf+0x4e4>
10008690:	f013 0f20 	tst.w	r3, #32
10008694:	bf14      	ite	ne
10008696:	2041      	movne	r0, #65	@ 0x41
10008698:	2061      	moveq	r0, #97	@ 0x61
1000869a:	ac12      	add	r4, sp, #72	@ 0x48
1000869c:	46a6      	mov	lr, r4
1000869e:	940b      	str	r4, [sp, #44]	@ 0x2c
100086a0:	930a      	str	r3, [sp, #40]	@ 0x28
100086a2:	f1a0 040a 	sub.w	r4, r0, #10
100086a6:	950c      	str	r5, [sp, #48]	@ 0x30
100086a8:	e002      	b.n	100086b0 <_vsnprintf+0x964>
100086aa:	2a20      	cmp	r2, #32
100086ac:	d012      	beq.n	100086d4 <_vsnprintf+0x988>
100086ae:	4629      	mov	r1, r5
100086b0:	fbb1 f5fc 	udiv	r5, r1, ip
100086b4:	fb0c 1015 	mls	r0, ip, r5, r1
100086b8:	b2c3      	uxtb	r3, r0
100086ba:	2809      	cmp	r0, #9
100086bc:	f103 0030 	add.w	r0, r3, #48	@ 0x30
100086c0:	bf8a      	itet	hi
100086c2:	191b      	addhi	r3, r3, r4
100086c4:	b2c3      	uxtbls	r3, r0
100086c6:	b2db      	uxtbhi	r3, r3
100086c8:	4561      	cmp	r1, ip
100086ca:	f80e 3b01 	strb.w	r3, [lr], #1
100086ce:	f102 0201 	add.w	r2, r2, #1
100086d2:	d2ea      	bcs.n	100086aa <_vsnprintf+0x95e>
100086d4:	9b0a      	ldr	r3, [sp, #40]	@ 0x28
100086d6:	9d0c      	ldr	r5, [sp, #48]	@ 0x30
100086d8:	e7d4      	b.n	10008684 <_vsnprintf+0x938>
100086da:	6819      	ldr	r1, [r3, #0]
100086dc:	ea81 77e1 	eor.w	r7, r1, r1, asr #31
100086e0:	eba7 77e1 	sub.w	r7, r7, r1, asr #31
100086e4:	e62d      	b.n	10008342 <_vsnprintf+0x5f6>
100086e6:	2a00      	cmp	r2, #0
100086e8:	f43f af59 	beq.w	1000859e <_vsnprintf+0x852>
100086ec:	aa12      	add	r2, sp, #72	@ 0x48
100086ee:	920b      	str	r2, [sp, #44]	@ 0x2c
100086f0:	e771      	b.n	100085d6 <_vsnprintf+0x88a>
100086f2:	f413 6480 	ands.w	r4, r3, #1024	@ 0x400
100086f6:	d00d      	beq.n	10008714 <_vsnprintf+0x9c8>
100086f8:	f013 0402 	ands.w	r4, r3, #2
100086fc:	d012      	beq.n	10008724 <_vsnprintf+0x9d8>
100086fe:	4604      	mov	r4, r0
10008700:	4646      	mov	r6, r8
10008702:	e5ec      	b.n	100082de <_vsnprintf+0x592>
10008704:	270a      	movs	r7, #10
10008706:	4663      	mov	r3, ip
10008708:	46bc      	mov	ip, r7
1000870a:	e56c      	b.n	100081e6 <_vsnprintf+0x49a>
1000870c:	ab12      	add	r3, sp, #72	@ 0x48
1000870e:	2000      	movs	r0, #0
10008710:	930b      	str	r3, [sp, #44]	@ 0x2c
10008712:	e69d      	b.n	10008450 <_vsnprintf+0x704>
10008714:	f013 0302 	ands.w	r3, r3, #2
10008718:	f47f ade0 	bne.w	100082dc <_vsnprintf+0x590>
1000871c:	2d00      	cmp	r5, #0
1000871e:	f47f af13 	bne.w	10008548 <_vsnprintf+0x7fc>
10008722:	e49a      	b.n	1000805a <_vsnprintf+0x30e>
10008724:	2d00      	cmp	r5, #0
10008726:	f47f af0d 	bne.w	10008544 <_vsnprintf+0x7f8>
1000872a:	e496      	b.n	1000805a <_vsnprintf+0x30e>
1000872c:	cccccccd 	.word	0xcccccccd

10008730 <__wrap_snprintf>:
10008730:	4684      	mov	ip, r0
10008732:	b40c      	push	{r2, r3}
10008734:	b510      	push	{r4, lr}
10008736:	b084      	sub	sp, #16
10008738:	ac06      	add	r4, sp, #24
1000873a:	f854 3b04 	ldr.w	r3, [r4], #4
1000873e:	460a      	mov	r2, r1
10008740:	9400      	str	r4, [sp, #0]
10008742:	4661      	mov	r1, ip
10008744:	4804      	ldr	r0, [pc, #16]	@ (10008758 <__wrap_snprintf+0x28>)
10008746:	9403      	str	r4, [sp, #12]
10008748:	f7ff fb00 	bl	10007d4c <_vsnprintf>
1000874c:	b004      	add	sp, #16
1000874e:	e8bd 4010 	ldmia.w	sp!, {r4, lr}
10008752:	b002      	add	sp, #8
10008754:	4770      	bx	lr
10008756:	bf00      	nop
10008758:	10007089 	.word	0x10007089

1000875c <vfctprintf>:
1000875c:	b570      	push	{r4, r5, r6, lr}
1000875e:	4694      	mov	ip, r2
10008760:	461e      	mov	r6, r3
10008762:	4605      	mov	r5, r0
10008764:	460c      	mov	r4, r1
10008766:	b084      	sub	sp, #16
10008768:	f04f 32ff 	mov.w	r2, #4294967295
1000876c:	4663      	mov	r3, ip
1000876e:	a902      	add	r1, sp, #8
10008770:	9600      	str	r6, [sp, #0]
10008772:	4803      	ldr	r0, [pc, #12]	@ (10008780 <vfctprintf+0x24>)
10008774:	e9cd 5402 	strd	r5, r4, [sp, #8]
10008778:	f7ff fae8 	bl	10007d4c <_vsnprintf>
1000877c:	b004      	add	sp, #16
1000877e:	bd70      	pop	{r4, r5, r6, pc}
10008780:	1000730d 	.word	0x1000730d

10008784 <weak_raw_vprintf>:
10008784:	b510      	push	{r4, lr}
10008786:	4b09      	ldr	r3, [pc, #36]	@ (100087ac <weak_raw_vprintf+0x28>)
10008788:	b084      	sub	sp, #16
1000878a:	681c      	ldr	r4, [r3, #0]
1000878c:	b14c      	cbz	r4, 100087a2 <weak_raw_vprintf+0x1e>
1000878e:	4603      	mov	r3, r0
10008790:	9100      	str	r1, [sp, #0]
10008792:	f04f 32ff 	mov.w	r2, #4294967295
10008796:	a903      	add	r1, sp, #12
10008798:	4805      	ldr	r0, [pc, #20]	@ (100087b0 <weak_raw_vprintf+0x2c>)
1000879a:	47a0      	blx	r4
1000879c:	2001      	movs	r0, #1
1000879e:	b004      	add	sp, #16
100087a0:	bd10      	pop	{r4, pc}
100087a2:	f000 f98f 	bl	10008ac4 <__wrap_puts>
100087a6:	4620      	mov	r0, r4
100087a8:	b004      	add	sp, #16
100087aa:	bd10      	pop	{r4, pc}
100087ac:	200025e0 	.word	0x200025e0
100087b0:	10007305 	.word	0x10007305

100087b4 <_exit>:
100087b4:	be00      	bkpt	0x0000
100087b6:	e7fd      	b.n	100087b4 <_exit>

100087b8 <_sbrk>:
100087b8:	4a07      	ldr	r2, [pc, #28]	@ (100087d8 <_sbrk+0x20>)
100087ba:	4603      	mov	r3, r0
100087bc:	6810      	ldr	r0, [r2, #0]
100087be:	b138      	cbz	r0, 100087d0 <_sbrk+0x18>
100087c0:	4906      	ldr	r1, [pc, #24]	@ (100087dc <_sbrk+0x24>)
100087c2:	4403      	add	r3, r0
100087c4:	428b      	cmp	r3, r1
100087c6:	bf8c      	ite	hi
100087c8:	f04f 30ff 	movhi.w	r0, #4294967295
100087cc:	6013      	strls	r3, [r2, #0]
100087ce:	4770      	bx	lr
100087d0:	4903      	ldr	r1, [pc, #12]	@ (100087e0 <_sbrk+0x28>)
100087d2:	4608      	mov	r0, r1
100087d4:	6011      	str	r1, [r2, #0]
100087d6:	e7f3      	b.n	100087c0 <_sbrk+0x8>
100087d8:	200021dc 	.word	0x200021dc
100087dc:	20080000 	.word	0x20080000
100087e0:	2000265c 	.word	0x2000265c

100087e4 <exit>:
100087e4:	b508      	push	{r3, lr}
100087e6:	f7ff ffe5 	bl	100087b4 <_exit>
100087ea:	bf00      	nop

100087ec <runtime_init>:
100087ec:	b538      	push	{r3, r4, r5, lr}
100087ee:	4c06      	ldr	r4, [pc, #24]	@ (10008808 <runtime_init+0x1c>)
100087f0:	4d06      	ldr	r5, [pc, #24]	@ (1000880c <runtime_init+0x20>)
100087f2:	f7fe f8d3 	bl	1000699c <runtime_run_initializers>
100087f6:	42ac      	cmp	r4, r5
100087f8:	d204      	bcs.n	10008804 <runtime_init+0x18>
100087fa:	f854 3b04 	ldr.w	r3, [r4], #4
100087fe:	4798      	blx	r3
10008800:	42ac      	cmp	r4, r5
10008802:	d3fa      	bcc.n	100087fa <runtime_init+0xe>
10008804:	bd38      	pop	{r3, r4, r5, pc}
10008806:	bf00      	nop
10008808:	1000d598 	.word	0x1000d598
1000880c:	1000d5a0 	.word	0x1000d5a0

10008810 <stdio_out_chars_no_crlf>:
10008810:	6803      	ldr	r3, [r0, #0]
10008812:	4608      	mov	r0, r1
10008814:	4611      	mov	r1, r2
10008816:	4718      	bx	r3

10008818 <stdio_out_chars_crlf>:
10008818:	e92d 41f0 	stmdb	sp!, {r4, r5, r6, r7, r8, lr}
1000881c:	4615      	mov	r5, r2
1000881e:	7d42      	ldrb	r2, [r0, #21]
10008820:	4607      	mov	r7, r0
10008822:	4688      	mov	r8, r1
10008824:	2a00      	cmp	r2, #0
10008826:	d046      	beq.n	100088b6 <stdio_out_chars_crlf+0x9e>
10008828:	2d00      	cmp	r5, #0
1000882a:	dd1d      	ble.n	10008868 <stdio_out_chars_crlf+0x50>
1000882c:	780b      	ldrb	r3, [r1, #0]
1000882e:	2b0a      	cmp	r3, #10
10008830:	d023      	beq.n	1000887a <stdio_out_chars_crlf+0x62>
10008832:	2d01      	cmp	r5, #1
10008834:	f04f 0c00 	mov.w	ip, #0
10008838:	d018      	beq.n	1000886c <stdio_out_chars_crlf+0x54>
1000883a:	4646      	mov	r6, r8
1000883c:	2401      	movs	r4, #1
1000883e:	f816 2f01 	ldrb.w	r2, [r6, #1]!
10008842:	4621      	mov	r1, r4
10008844:	2a0a      	cmp	r2, #10
10008846:	f104 0401 	add.w	r4, r4, #1
1000884a:	d022      	beq.n	10008892 <stdio_out_chars_crlf+0x7a>
1000884c:	42a5      	cmp	r5, r4
1000884e:	d1f6      	bne.n	1000883e <stdio_out_chars_crlf+0x26>
10008850:	4565      	cmp	r5, ip
10008852:	dc0b      	bgt.n	1000886c <stdio_out_chars_crlf+0x54>
10008854:	eb08 0305 	add.w	r3, r8, r5
10008858:	f813 3c01 	ldrb.w	r3, [r3, #-1]
1000885c:	f1a3 030d 	sub.w	r3, r3, #13
10008860:	fab3 f383 	clz	r3, r3
10008864:	095b      	lsrs	r3, r3, #5
10008866:	753b      	strb	r3, [r7, #20]
10008868:	e8bd 81f0 	ldmia.w	sp!, {r4, r5, r6, r7, r8, pc}
1000886c:	683b      	ldr	r3, [r7, #0]
1000886e:	eba5 010c 	sub.w	r1, r5, ip
10008872:	eb08 000c 	add.w	r0, r8, ip
10008876:	4798      	blx	r3
10008878:	e7ec      	b.n	10008854 <stdio_out_chars_crlf+0x3c>
1000887a:	7d03      	ldrb	r3, [r0, #20]
1000887c:	2b00      	cmp	r3, #0
1000887e:	d1d8      	bne.n	10008832 <stdio_out_chars_crlf+0x1a>
10008880:	6803      	ldr	r3, [r0, #0]
10008882:	2102      	movs	r1, #2
10008884:	480f      	ldr	r0, [pc, #60]	@ (100088c4 <stdio_out_chars_crlf+0xac>)
10008886:	4798      	blx	r3
10008888:	2d01      	cmp	r5, #1
1000888a:	d0e3      	beq.n	10008854 <stdio_out_chars_crlf+0x3c>
1000888c:	f04f 0c01 	mov.w	ip, #1
10008890:	e7d3      	b.n	1000883a <stdio_out_chars_crlf+0x22>
10008892:	f816 3c01 	ldrb.w	r3, [r6, #-1]
10008896:	2b0d      	cmp	r3, #13
10008898:	d0d8      	beq.n	1000884c <stdio_out_chars_crlf+0x34>
1000889a:	458c      	cmp	ip, r1
1000889c:	eb08 000c 	add.w	r0, r8, ip
100088a0:	eba1 010c 	sub.w	r1, r1, ip
100088a4:	da01      	bge.n	100088aa <stdio_out_chars_crlf+0x92>
100088a6:	683b      	ldr	r3, [r7, #0]
100088a8:	4798      	blx	r3
100088aa:	2102      	movs	r1, #2
100088ac:	4805      	ldr	r0, [pc, #20]	@ (100088c4 <stdio_out_chars_crlf+0xac>)
100088ae:	683b      	ldr	r3, [r7, #0]
100088b0:	4798      	blx	r3
100088b2:	46a4      	mov	ip, r4
100088b4:	e7ca      	b.n	1000884c <stdio_out_chars_crlf+0x34>
100088b6:	4629      	mov	r1, r5
100088b8:	4640      	mov	r0, r8
100088ba:	683b      	ldr	r3, [r7, #0]
100088bc:	e8bd 41f0 	ldmia.w	sp!, {r4, r5, r6, r7, r8, lr}
100088c0:	4718      	bx	r3
100088c2:	bf00      	nop
100088c4:	10025738 	.word	0x10025738

100088c8 <stdio_buffered_printer>:
100088c8:	680b      	ldr	r3, [r1, #0]
100088ca:	e92d 41f0 	stmdb	sp!, {r4, r5, r6, r7, r8, lr}
100088ce:	2b80      	cmp	r3, #128	@ 0x80
100088d0:	460d      	mov	r5, r1
100088d2:	4606      	mov	r6, r0
100088d4:	d005      	beq.n	100088e2 <stdio_buffered_printer+0x1a>
100088d6:	1c5a      	adds	r2, r3, #1
100088d8:	442b      	add	r3, r5
100088da:	602a      	str	r2, [r5, #0]
100088dc:	711e      	strb	r6, [r3, #4]
100088de:	e8bd 81f0 	ldmia.w	sp!, {r4, r5, r6, r7, r8, pc}
100088e2:	4b0f      	ldr	r3, [pc, #60]	@ (10008920 <stdio_buffered_printer+0x58>)
100088e4:	681c      	ldr	r4, [r3, #0]
100088e6:	b1a4      	cbz	r4, 10008912 <stdio_buffered_printer+0x4a>
100088e8:	4f0e      	ldr	r7, [pc, #56]	@ (10008924 <stdio_buffered_printer+0x5c>)
100088ea:	f101 0804 	add.w	r8, r1, #4
100088ee:	e001      	b.n	100088f4 <stdio_buffered_printer+0x2c>
100088f0:	6924      	ldr	r4, [r4, #16]
100088f2:	b174      	cbz	r4, 10008912 <stdio_buffered_printer+0x4a>
100088f4:	6823      	ldr	r3, [r4, #0]
100088f6:	2b00      	cmp	r3, #0
100088f8:	d0fa      	beq.n	100088f0 <stdio_buffered_printer+0x28>
100088fa:	683b      	ldr	r3, [r7, #0]
100088fc:	b10b      	cbz	r3, 10008902 <stdio_buffered_printer+0x3a>
100088fe:	42a3      	cmp	r3, r4
10008900:	d1f6      	bne.n	100088f0 <stdio_buffered_printer+0x28>
10008902:	4620      	mov	r0, r4
10008904:	4641      	mov	r1, r8
10008906:	682a      	ldr	r2, [r5, #0]
10008908:	f7ff ff86 	bl	10008818 <stdio_out_chars_crlf>
1000890c:	6924      	ldr	r4, [r4, #16]
1000890e:	2c00      	cmp	r4, #0
10008910:	d1f0      	bne.n	100088f4 <stdio_buffered_printer+0x2c>
10008912:	2300      	movs	r3, #0
10008914:	2201      	movs	r2, #1
10008916:	442b      	add	r3, r5
10008918:	602a      	str	r2, [r5, #0]
1000891a:	711e      	strb	r6, [r3, #4]
1000891c:	e8bd 81f0 	ldmia.w	sp!, {r4, r5, r6, r7, r8, pc}
10008920:	200021cc 	.word	0x200021cc
10008924:	200021d8 	.word	0x200021d8

10008928 <stdio_put_string>:
10008928:	e92d 47f0 	stmdb	sp!, {r4, r5, r6, r7, r8, r9, sl, lr}
1000892c:	b082      	sub	sp, #8
1000892e:	460d      	mov	r5, r1
10008930:	4691      	mov	r9, r2
10008932:	461c      	mov	r4, r3
10008934:	4606      	mov	r6, r0
10008936:	f7fd fe9d 	bl	10006674 <time_us_64>
1000893a:	f04f 3cff 	mov.w	ip, #4294967295
1000893e:	f06f 4700 	mvn.w	r7, #2147483648	@ 0x80000000
10008942:	4a2e      	ldr	r2, [pc, #184]	@ (100089fc <stdio_put_string+0xd4>)
10008944:	1882      	adds	r2, r0, r2
10008946:	f141 0300 	adc.w	r3, r1, #0
1000894a:	4594      	cmp	ip, r2
1000894c:	eb77 0103 	sbcs.w	r1, r7, r3
10008950:	bf3c      	itt	cc
10008952:	4662      	movcc	r2, ip
10008954:	463b      	movcc	r3, r7
10008956:	482a      	ldr	r0, [pc, #168]	@ (10008a00 <stdio_put_string+0xd8>)
10008958:	f004 fdf2 	bl	1000d540 <__mutex_try_enter_block_until_veneer>
1000895c:	1c6b      	adds	r3, r5, #1
1000895e:	4680      	mov	r8, r0
10008960:	d040      	beq.n	100089e4 <stdio_put_string+0xbc>
10008962:	b30c      	cbz	r4, 100089a8 <stdio_put_string+0x80>
10008964:	4f27      	ldr	r7, [pc, #156]	@ (10008a04 <stdio_put_string+0xdc>)
10008966:	4b28      	ldr	r3, [pc, #160]	@ (10008a08 <stdio_put_string+0xe0>)
10008968:	681c      	ldr	r4, [r3, #0]
1000896a:	b1b4      	cbz	r4, 1000899a <stdio_put_string+0x72>
1000896c:	f1b9 0f00 	cmp.w	r9, #0
10008970:	d11c      	bne.n	100089ac <stdio_put_string+0x84>
10008972:	f8df 909c 	ldr.w	r9, [pc, #156]	@ 10008a10 <stdio_put_string+0xe8>
10008976:	e001      	b.n	1000897c <stdio_put_string+0x54>
10008978:	6924      	ldr	r4, [r4, #16]
1000897a:	b174      	cbz	r4, 1000899a <stdio_put_string+0x72>
1000897c:	6823      	ldr	r3, [r4, #0]
1000897e:	2b00      	cmp	r3, #0
10008980:	d0fa      	beq.n	10008978 <stdio_put_string+0x50>
10008982:	f8d9 3000 	ldr.w	r3, [r9]
10008986:	b10b      	cbz	r3, 1000898c <stdio_put_string+0x64>
10008988:	429c      	cmp	r4, r3
1000898a:	d1f5      	bne.n	10008978 <stdio_put_string+0x50>
1000898c:	4620      	mov	r0, r4
1000898e:	462a      	mov	r2, r5
10008990:	4631      	mov	r1, r6
10008992:	47b8      	blx	r7
10008994:	6924      	ldr	r4, [r4, #16]
10008996:	2c00      	cmp	r4, #0
10008998:	d1f0      	bne.n	1000897c <stdio_put_string+0x54>
1000899a:	f1b8 0f00 	cmp.w	r8, #0
1000899e:	d126      	bne.n	100089ee <stdio_put_string+0xc6>
100089a0:	4628      	mov	r0, r5
100089a2:	b002      	add	sp, #8
100089a4:	e8bd 87f0 	ldmia.w	sp!, {r4, r5, r6, r7, r8, r9, sl, pc}
100089a8:	4f18      	ldr	r7, [pc, #96]	@ (10008a0c <stdio_put_string+0xe4>)
100089aa:	e7dc      	b.n	10008966 <stdio_put_string+0x3e>
100089ac:	f04f 0a0a 	mov.w	sl, #10
100089b0:	f8df 905c 	ldr.w	r9, [pc, #92]	@ 10008a10 <stdio_put_string+0xe8>
100089b4:	e002      	b.n	100089bc <stdio_put_string+0x94>
100089b6:	6924      	ldr	r4, [r4, #16]
100089b8:	2c00      	cmp	r4, #0
100089ba:	d0ee      	beq.n	1000899a <stdio_put_string+0x72>
100089bc:	6823      	ldr	r3, [r4, #0]
100089be:	2b00      	cmp	r3, #0
100089c0:	d0f9      	beq.n	100089b6 <stdio_put_string+0x8e>
100089c2:	f8d9 3000 	ldr.w	r3, [r9]
100089c6:	b10b      	cbz	r3, 100089cc <stdio_put_string+0xa4>
100089c8:	42a3      	cmp	r3, r4
100089ca:	d1f4      	bne.n	100089b6 <stdio_put_string+0x8e>
100089cc:	462a      	mov	r2, r5
100089ce:	4631      	mov	r1, r6
100089d0:	4620      	mov	r0, r4
100089d2:	47b8      	blx	r7
100089d4:	2201      	movs	r2, #1
100089d6:	4620      	mov	r0, r4
100089d8:	f10d 0107 	add.w	r1, sp, #7
100089dc:	f88d a007 	strb.w	sl, [sp, #7]
100089e0:	47b8      	blx	r7
100089e2:	e7e8      	b.n	100089b6 <stdio_put_string+0x8e>
100089e4:	4630      	mov	r0, r6
100089e6:	f004 fb87 	bl	1000d0f8 <strlen>
100089ea:	4605      	mov	r5, r0
100089ec:	e7b9      	b.n	10008962 <stdio_put_string+0x3a>
100089ee:	4804      	ldr	r0, [pc, #16]	@ (10008a00 <stdio_put_string+0xd8>)
100089f0:	f004 fd92 	bl	1000d518 <__mutex_exit_veneer>
100089f4:	4628      	mov	r0, r5
100089f6:	b002      	add	sp, #8
100089f8:	e8bd 87f0 	ldmia.w	sp!, {r4, r5, r6, r7, r8, r9, sl, pc}
100089fc:	000f4240 	.word	0x000f4240
10008a00:	200018b0 	.word	0x200018b0
10008a04:	10008819 	.word	0x10008819
10008a08:	200021cc 	.word	0x200021cc
10008a0c:	10008811 	.word	0x10008811
10008a10:	200021d8 	.word	0x200021d8

10008a14 <stdio_set_driver_enabled>:
10008a14:	4a08      	ldr	r2, [pc, #32]	@ (10008a38 <stdio_set_driver_enabled+0x24>)
10008a16:	6813      	ldr	r3, [r2, #0]
10008a18:	b923      	cbnz	r3, 10008a24 <stdio_set_driver_enabled+0x10>
10008a1a:	e00a      	b.n	10008a32 <stdio_set_driver_enabled+0x1e>
10008a1c:	f103 0210 	add.w	r2, r3, #16
10008a20:	691b      	ldr	r3, [r3, #16]
10008a22:	b133      	cbz	r3, 10008a32 <stdio_set_driver_enabled+0x1e>
10008a24:	4283      	cmp	r3, r0
10008a26:	d1f9      	bne.n	10008a1c <stdio_set_driver_enabled+0x8>
10008a28:	b929      	cbnz	r1, 10008a36 <stdio_set_driver_enabled+0x22>
10008a2a:	6918      	ldr	r0, [r3, #16]
10008a2c:	6010      	str	r0, [r2, #0]
10008a2e:	6119      	str	r1, [r3, #16]
10008a30:	4770      	bx	lr
10008a32:	b101      	cbz	r1, 10008a36 <stdio_set_driver_enabled+0x22>
10008a34:	6010      	str	r0, [r2, #0]
10008a36:	4770      	bx	lr
10008a38:	200021cc 	.word	0x200021cc

10008a3c <stdio_init_all>:
10008a3c:	f000 bade 	b.w	10008ffc <stdio_usb_init>

10008a40 <__wrap_putchar>:
10008a40:	b5f0      	push	{r4, r5, r6, r7, lr}
10008a42:	b083      	sub	sp, #12
10008a44:	4606      	mov	r6, r0
10008a46:	f88d 0007 	strb.w	r0, [sp, #7]
10008a4a:	f7fd fe13 	bl	10006674 <time_us_64>
10008a4e:	f04f 35ff 	mov.w	r5, #4294967295
10008a52:	f06f 4400 	mvn.w	r4, #2147483648	@ 0x80000000
10008a56:	4a17      	ldr	r2, [pc, #92]	@ (10008ab4 <__wrap_putchar+0x74>)
10008a58:	1882      	adds	r2, r0, r2
10008a5a:	f141 0300 	adc.w	r3, r1, #0
10008a5e:	4295      	cmp	r5, r2
10008a60:	eb74 0103 	sbcs.w	r1, r4, r3
10008a64:	bf3c      	itt	cc
10008a66:	4623      	movcc	r3, r4
10008a68:	462a      	movcc	r2, r5
10008a6a:	4813      	ldr	r0, [pc, #76]	@ (10008ab8 <__wrap_putchar+0x78>)
10008a6c:	f004 fd68 	bl	1000d540 <__mutex_try_enter_block_until_veneer>
10008a70:	4b12      	ldr	r3, [pc, #72]	@ (10008abc <__wrap_putchar+0x7c>)
10008a72:	4607      	mov	r7, r0
10008a74:	681c      	ldr	r4, [r3, #0]
10008a76:	b19c      	cbz	r4, 10008aa0 <__wrap_putchar+0x60>
10008a78:	4d11      	ldr	r5, [pc, #68]	@ (10008ac0 <__wrap_putchar+0x80>)
10008a7a:	e001      	b.n	10008a80 <__wrap_putchar+0x40>
10008a7c:	6924      	ldr	r4, [r4, #16]
10008a7e:	b17c      	cbz	r4, 10008aa0 <__wrap_putchar+0x60>
10008a80:	6823      	ldr	r3, [r4, #0]
10008a82:	2b00      	cmp	r3, #0
10008a84:	d0fa      	beq.n	10008a7c <__wrap_putchar+0x3c>
10008a86:	682b      	ldr	r3, [r5, #0]
10008a88:	b10b      	cbz	r3, 10008a8e <__wrap_putchar+0x4e>
10008a8a:	429c      	cmp	r4, r3
10008a8c:	d1f6      	bne.n	10008a7c <__wrap_putchar+0x3c>
10008a8e:	4620      	mov	r0, r4
10008a90:	2201      	movs	r2, #1
10008a92:	f10d 0107 	add.w	r1, sp, #7
10008a96:	f7ff febf 	bl	10008818 <stdio_out_chars_crlf>
10008a9a:	6924      	ldr	r4, [r4, #16]
10008a9c:	2c00      	cmp	r4, #0
10008a9e:	d1ef      	bne.n	10008a80 <__wrap_putchar+0x40>
10008aa0:	b917      	cbnz	r7, 10008aa8 <__wrap_putchar+0x68>
10008aa2:	4630      	mov	r0, r6
10008aa4:	b003      	add	sp, #12
10008aa6:	bdf0      	pop	{r4, r5, r6, r7, pc}
10008aa8:	4803      	ldr	r0, [pc, #12]	@ (10008ab8 <__wrap_putchar+0x78>)
10008aaa:	f004 fd35 	bl	1000d518 <__mutex_exit_veneer>
10008aae:	4630      	mov	r0, r6
10008ab0:	b003      	add	sp, #12
10008ab2:	bdf0      	pop	{r4, r5, r6, r7, pc}
10008ab4:	000f4240 	.word	0x000f4240
10008ab8:	200018b0 	.word	0x200018b0
10008abc:	200021cc 	.word	0x200021cc
10008ac0:	200021d8 	.word	0x200021d8

10008ac4 <__wrap_puts>:
10008ac4:	b538      	push	{r3, r4, r5, lr}
10008ac6:	4604      	mov	r4, r0
10008ac8:	f004 fb16 	bl	1000d0f8 <strlen>
10008acc:	2301      	movs	r3, #1
10008ace:	4605      	mov	r5, r0
10008ad0:	461a      	mov	r2, r3
10008ad2:	4620      	mov	r0, r4
10008ad4:	4629      	mov	r1, r5
10008ad6:	f7ff ff27 	bl	10008928 <stdio_put_string>
10008ada:	4b08      	ldr	r3, [pc, #32]	@ (10008afc <__wrap_puts+0x38>)
10008adc:	681c      	ldr	r4, [r3, #0]
10008ade:	b12c      	cbz	r4, 10008aec <__wrap_puts+0x28>
10008ae0:	6863      	ldr	r3, [r4, #4]
10008ae2:	b12b      	cbz	r3, 10008af0 <__wrap_puts+0x2c>
10008ae4:	4798      	blx	r3
10008ae6:	6924      	ldr	r4, [r4, #16]
10008ae8:	2c00      	cmp	r4, #0
10008aea:	d1f9      	bne.n	10008ae0 <__wrap_puts+0x1c>
10008aec:	4628      	mov	r0, r5
10008aee:	bd38      	pop	{r3, r4, r5, pc}
10008af0:	6924      	ldr	r4, [r4, #16]
10008af2:	2c00      	cmp	r4, #0
10008af4:	d1f4      	bne.n	10008ae0 <__wrap_puts+0x1c>
10008af6:	4628      	mov	r0, r5
10008af8:	bd38      	pop	{r3, r4, r5, pc}
10008afa:	bf00      	nop
10008afc:	200021cc 	.word	0x200021cc

10008b00 <__wrap_vprintf>:
10008b00:	e92d 41f0 	stmdb	sp!, {r4, r5, r6, r7, r8, lr}
10008b04:	b0a2      	sub	sp, #136	@ 0x88
10008b06:	4604      	mov	r4, r0
10008b08:	460d      	mov	r5, r1
10008b0a:	f7fd fdb3 	bl	10006674 <time_us_64>
10008b0e:	f04f 37ff 	mov.w	r7, #4294967295
10008b12:	f06f 4600 	mvn.w	r6, #2147483648	@ 0x80000000
10008b16:	4a26      	ldr	r2, [pc, #152]	@ (10008bb0 <__wrap_vprintf+0xb0>)
10008b18:	f8df 80a4 	ldr.w	r8, [pc, #164]	@ 10008bc0 <__wrap_vprintf+0xc0>
10008b1c:	1882      	adds	r2, r0, r2
10008b1e:	f141 0300 	adc.w	r3, r1, #0
10008b22:	4297      	cmp	r7, r2
10008b24:	eb76 0103 	sbcs.w	r1, r6, r3
10008b28:	bf3c      	itt	cc
10008b2a:	463a      	movcc	r2, r7
10008b2c:	4633      	movcc	r3, r6
10008b2e:	4821      	ldr	r0, [pc, #132]	@ (10008bb4 <__wrap_vprintf+0xb4>)
10008b30:	f004 fd06 	bl	1000d540 <__mutex_try_enter_block_until_veneer>
10008b34:	2700      	movs	r7, #0
10008b36:	462b      	mov	r3, r5
10008b38:	4622      	mov	r2, r4
10008b3a:	4606      	mov	r6, r0
10008b3c:	a901      	add	r1, sp, #4
10008b3e:	481e      	ldr	r0, [pc, #120]	@ (10008bb8 <__wrap_vprintf+0xb8>)
10008b40:	9701      	str	r7, [sp, #4]
10008b42:	f7ff fe0b 	bl	1000875c <vfctprintf>
10008b46:	9b01      	ldr	r3, [sp, #4]
10008b48:	4605      	mov	r5, r0
10008b4a:	f8d8 4000 	ldr.w	r4, [r8]
10008b4e:	b1c3      	cbz	r3, 10008b82 <__wrap_vprintf+0x82>
10008b50:	2c00      	cmp	r4, #0
10008b52:	d02b      	beq.n	10008bac <__wrap_vprintf+0xac>
10008b54:	4f19      	ldr	r7, [pc, #100]	@ (10008bbc <__wrap_vprintf+0xbc>)
10008b56:	e001      	b.n	10008b5c <__wrap_vprintf+0x5c>
10008b58:	6924      	ldr	r4, [r4, #16]
10008b5a:	b174      	cbz	r4, 10008b7a <__wrap_vprintf+0x7a>
10008b5c:	6823      	ldr	r3, [r4, #0]
10008b5e:	2b00      	cmp	r3, #0
10008b60:	d0fa      	beq.n	10008b58 <__wrap_vprintf+0x58>
10008b62:	683b      	ldr	r3, [r7, #0]
10008b64:	b10b      	cbz	r3, 10008b6a <__wrap_vprintf+0x6a>
10008b66:	42a3      	cmp	r3, r4
10008b68:	d1f6      	bne.n	10008b58 <__wrap_vprintf+0x58>
10008b6a:	4620      	mov	r0, r4
10008b6c:	9a01      	ldr	r2, [sp, #4]
10008b6e:	a902      	add	r1, sp, #8
10008b70:	f7ff fe52 	bl	10008818 <stdio_out_chars_crlf>
10008b74:	6924      	ldr	r4, [r4, #16]
10008b76:	2c00      	cmp	r4, #0
10008b78:	d1f0      	bne.n	10008b5c <__wrap_vprintf+0x5c>
10008b7a:	2300      	movs	r3, #0
10008b7c:	f8d8 4000 	ldr.w	r4, [r8]
10008b80:	9301      	str	r3, [sp, #4]
10008b82:	b12c      	cbz	r4, 10008b90 <__wrap_vprintf+0x90>
10008b84:	6863      	ldr	r3, [r4, #4]
10008b86:	b143      	cbz	r3, 10008b9a <__wrap_vprintf+0x9a>
10008b88:	4798      	blx	r3
10008b8a:	6924      	ldr	r4, [r4, #16]
10008b8c:	2c00      	cmp	r4, #0
10008b8e:	d1f9      	bne.n	10008b84 <__wrap_vprintf+0x84>
10008b90:	b92e      	cbnz	r6, 10008b9e <__wrap_vprintf+0x9e>
10008b92:	4628      	mov	r0, r5
10008b94:	b022      	add	sp, #136	@ 0x88
10008b96:	e8bd 81f0 	ldmia.w	sp!, {r4, r5, r6, r7, r8, pc}
10008b9a:	6924      	ldr	r4, [r4, #16]
10008b9c:	e7f1      	b.n	10008b82 <__wrap_vprintf+0x82>
10008b9e:	4805      	ldr	r0, [pc, #20]	@ (10008bb4 <__wrap_vprintf+0xb4>)
10008ba0:	f004 fcba 	bl	1000d518 <__mutex_exit_veneer>
10008ba4:	4628      	mov	r0, r5
10008ba6:	b022      	add	sp, #136	@ 0x88
10008ba8:	e8bd 81f0 	ldmia.w	sp!, {r4, r5, r6, r7, r8, pc}
10008bac:	9401      	str	r4, [sp, #4]
10008bae:	e7ef      	b.n	10008b90 <__wrap_vprintf+0x90>
10008bb0:	000f4240 	.word	0x000f4240
10008bb4:	200018b0 	.word	0x200018b0
10008bb8:	100088c9 	.word	0x100088c9
10008bbc:	200021d8 	.word	0x200021d8
10008bc0:	200021cc 	.word	0x200021cc

10008bc4 <__wrap_printf>:
10008bc4:	b40f      	push	{r0, r1, r2, r3}
10008bc6:	b500      	push	{lr}
10008bc8:	b083      	sub	sp, #12
10008bca:	a904      	add	r1, sp, #16
10008bcc:	f851 0b04 	ldr.w	r0, [r1], #4
10008bd0:	9101      	str	r1, [sp, #4]
10008bd2:	f7ff ff95 	bl	10008b00 <__wrap_vprintf>
10008bd6:	b003      	add	sp, #12
10008bd8:	f85d eb04 	ldr.w	lr, [sp], #4
10008bdc:	b004      	add	sp, #16
10008bde:	4770      	bx	lr

10008be0 <resetd_init>:
10008be0:	4770      	bx	lr
10008be2:	bf00      	nop

10008be4 <resetd_reset>:
10008be4:	2200      	movs	r2, #0
10008be6:	4b01      	ldr	r3, [pc, #4]	@ (10008bec <resetd_reset+0x8>)
10008be8:	701a      	strb	r2, [r3, #0]
10008bea:	4770      	bx	lr
10008bec:	20002658 	.word	0x20002658

10008bf0 <resetd_open>:
10008bf0:	794b      	ldrb	r3, [r1, #5]
10008bf2:	2bff      	cmp	r3, #255	@ 0xff
10008bf4:	d10b      	bne.n	10008c0e <resetd_open+0x1e>
10008bf6:	7988      	ldrb	r0, [r1, #6]
10008bf8:	b948      	cbnz	r0, 10008c0e <resetd_open+0x1e>
10008bfa:	79cb      	ldrb	r3, [r1, #7]
10008bfc:	2b01      	cmp	r3, #1
10008bfe:	d107      	bne.n	10008c10 <resetd_open+0x20>
10008c00:	2a08      	cmp	r2, #8
10008c02:	d905      	bls.n	10008c10 <resetd_open+0x20>
10008c04:	4b03      	ldr	r3, [pc, #12]	@ (10008c14 <resetd_open+0x24>)
10008c06:	788a      	ldrb	r2, [r1, #2]
10008c08:	2009      	movs	r0, #9
10008c0a:	701a      	strb	r2, [r3, #0]
10008c0c:	4770      	bx	lr
10008c0e:	2000      	movs	r0, #0
10008c10:	4770      	bx	lr
10008c12:	bf00      	nop
10008c14:	20002658 	.word	0x20002658

10008c18 <resetd_xfer_cb>:
10008c18:	2001      	movs	r0, #1
10008c1a:	4770      	bx	lr

10008c1c <resetd_control_xfer_cb>:
10008c1c:	2901      	cmp	r1, #1
10008c1e:	d001      	beq.n	10008c24 <resetd_control_xfer_cb+0x8>
10008c20:	2001      	movs	r0, #1
10008c22:	4770      	bx	lr
10008c24:	b508      	push	{r3, lr}
10008c26:	4b10      	ldr	r3, [pc, #64]	@ (10008c68 <resetd_control_xfer_cb+0x4c>)
10008c28:	8891      	ldrh	r1, [r2, #4]
10008c2a:	781b      	ldrb	r3, [r3, #0]
10008c2c:	4299      	cmp	r1, r3
10008c2e:	d001      	beq.n	10008c34 <resetd_control_xfer_cb+0x18>
10008c30:	2000      	movs	r0, #0
10008c32:	bd08      	pop	{r3, pc}
10008c34:	7853      	ldrb	r3, [r2, #1]
10008c36:	2b01      	cmp	r3, #1
10008c38:	d008      	beq.n	10008c4c <resetd_control_xfer_cb+0x30>
10008c3a:	2b02      	cmp	r3, #2
10008c3c:	d1f8      	bne.n	10008c30 <resetd_control_xfer_cb+0x14>
10008c3e:	2100      	movs	r1, #0
10008c40:	2264      	movs	r2, #100	@ 0x64
10008c42:	4608      	mov	r0, r1
10008c44:	f7fd fde6 	bl	10006814 <watchdog_reboot>
10008c48:	2001      	movs	r0, #1
10008c4a:	bd08      	pop	{r3, pc}
10008c4c:	8851      	ldrh	r1, [r2, #2]
10008c4e:	05cb      	lsls	r3, r1, #23
10008c50:	bf48      	it	mi
10008c52:	0a48      	lsrmi	r0, r1, #9
10008c54:	f3c1 2240 	ubfx	r2, r1, #9, #1
10008c58:	bf58      	it	pl
10008c5a:	f04f 30ff 	movpl.w	r0, #4294967295
10008c5e:	f001 017f 	and.w	r1, r1, #127	@ 0x7f
10008c62:	f7fd fe55 	bl	10006910 <rom_reset_usb_boot_extra>
10008c66:	bf00      	nop
10008c68:	20002658 	.word	0x20002658

10008c6c <tud_descriptor_bos_cb>:
10008c6c:	4800      	ldr	r0, [pc, #0]	@ (10008c70 <tud_descriptor_bos_cb+0x4>)
10008c6e:	4770      	bx	lr
10008c70:	10025804 	.word	0x10025804

10008c74 <tud_vendor_control_xfer_cb>:
10008c74:	2901      	cmp	r1, #1
10008c76:	d107      	bne.n	10008c88 <tud_vendor_control_xfer_cb+0x14>
10008c78:	7853      	ldrb	r3, [r2, #1]
10008c7a:	2b01      	cmp	r3, #1
10008c7c:	d102      	bne.n	10008c84 <tud_vendor_control_xfer_cb+0x10>
10008c7e:	8893      	ldrh	r3, [r2, #4]
10008c80:	2b07      	cmp	r3, #7
10008c82:	d003      	beq.n	10008c8c <tud_vendor_control_xfer_cb+0x18>
10008c84:	2000      	movs	r0, #0
10008c86:	4770      	bx	lr
10008c88:	2001      	movs	r0, #1
10008c8a:	4770      	bx	lr
10008c8c:	4611      	mov	r1, r2
10008c8e:	23a6      	movs	r3, #166	@ 0xa6
10008c90:	4a01      	ldr	r2, [pc, #4]	@ (10008c98 <tud_vendor_control_xfer_cb+0x24>)
10008c92:	f001 ba39 	b.w	1000a108 <tud_control_xfer>
10008c96:	bf00      	nop
10008c98:	1002575c 	.word	0x1002575c

10008c9c <usbd_app_driver_get_cb>:
10008c9c:	4603      	mov	r3, r0
10008c9e:	2201      	movs	r2, #1
10008ca0:	4801      	ldr	r0, [pc, #4]	@ (10008ca8 <usbd_app_driver_get_cb+0xc>)
10008ca2:	701a      	strb	r2, [r3, #0]
10008ca4:	4770      	bx	lr
10008ca6:	bf00      	nop
10008ca8:	1002573c 	.word	0x1002573c

10008cac <tud_cdc_line_coding_cb>:
10008cac:	b508      	push	{r3, lr}
10008cae:	680b      	ldr	r3, [r1, #0]
10008cb0:	f5b3 6f96 	cmp.w	r3, #1200	@ 0x4b0
10008cb4:	d000      	beq.n	10008cb8 <tud_cdc_line_coding_cb+0xc>
10008cb6:	bd08      	pop	{r3, pc}
10008cb8:	2200      	movs	r2, #0
10008cba:	f04f 30ff 	mov.w	r0, #4294967295
10008cbe:	4611      	mov	r1, r2
10008cc0:	f7fd fe26 	bl	10006910 <rom_reset_usb_boot_extra>

10008cc4 <stdio_usb_set_chars_available_callback>:
10008cc4:	4a02      	ldr	r2, [pc, #8]	@ (10008cd0 <stdio_usb_set_chars_available_callback+0xc>)
10008cc6:	4b03      	ldr	r3, [pc, #12]	@ (10008cd4 <stdio_usb_set_chars_available_callback+0x10>)
10008cc8:	6010      	str	r0, [r2, #0]
10008cca:	6019      	str	r1, [r3, #0]
10008ccc:	4770      	bx	lr
10008cce:	bf00      	nop
10008cd0:	2000216c 	.word	0x2000216c
10008cd4:	20002170 	.word	0x20002170

10008cd8 <timer_task>:
10008cd8:	4b18      	ldr	r3, [pc, #96]	@ (10008d3c <timer_task+0x64>)
10008cda:	b570      	push	{r4, r5, r6, lr}
10008cdc:	681a      	ldr	r2, [r3, #0]
10008cde:	2a00      	cmp	r2, #0
10008ce0:	d028      	beq.n	10008d34 <timer_task+0x5c>
10008ce2:	f3ef 8110 	mrs	r1, PRIMASK
10008ce6:	b672      	cpsid	i
10008ce8:	e8d2 4fcf 	ldaexb	r4, [r2]
10008cec:	2001      	movs	r0, #1
10008cee:	2c00      	cmp	r4, #0
10008cf0:	d1fa      	bne.n	10008ce8 <timer_task+0x10>
10008cf2:	e8c2 0f44 	strexb	r4, r0, [r2]
10008cf6:	2c00      	cmp	r4, #0
10008cf8:	d1f6      	bne.n	10008ce8 <timer_task+0x10>
10008cfa:	f3bf 8f5f 	dmb	sy
10008cfe:	2200      	movs	r2, #0
10008d00:	4c0f      	ldr	r4, [pc, #60]	@ (10008d40 <timer_task+0x68>)
10008d02:	6818      	ldr	r0, [r3, #0]
10008d04:	6059      	str	r1, [r3, #4]
10008d06:	7022      	strb	r2, [r4, #0]
10008d08:	e8c0 2f8f 	stlb	r2, [r0]
10008d0c:	f381 8810 	msr	PRIMASK, r1
10008d10:	2400      	movs	r4, #0
10008d12:	2500      	movs	r5, #0
10008d14:	4e0b      	ldr	r6, [pc, #44]	@ (10008d44 <timer_task+0x6c>)
10008d16:	7830      	ldrb	r0, [r6, #0]
10008d18:	f7fc fe7a 	bl	10005a10 <irq_is_enabled>
10008d1c:	b920      	cbnz	r0, 10008d28 <timer_task+0x50>
10008d1e:	2400      	movs	r4, #0
10008d20:	2500      	movs	r5, #0
10008d22:	4620      	mov	r0, r4
10008d24:	4629      	mov	r1, r5
10008d26:	bd70      	pop	{r4, r5, r6, pc}
10008d28:	7830      	ldrb	r0, [r6, #0]
10008d2a:	f7fc fe81 	bl	10005a30 <irq_set_pending>
10008d2e:	4620      	mov	r0, r4
10008d30:	4629      	mov	r1, r5
10008d32:	bd70      	pop	{r4, r5, r6, pc}
10008d34:	f44f 747a 	mov.w	r4, #1000	@ 0x3e8
10008d38:	2500      	movs	r5, #0
10008d3a:	e7eb      	b.n	10008d14 <timer_task+0x3c>
10008d3c:	20002604 	.word	0x20002604
10008d40:	2000265a 	.word	0x2000265a
10008d44:	20002659 	.word	0x20002659

10008d48 <usb_irq>:
10008d48:	4b01      	ldr	r3, [pc, #4]	@ (10008d50 <usb_irq+0x8>)
10008d4a:	7818      	ldrb	r0, [r3, #0]
10008d4c:	f7fc be70 	b.w	10005a30 <irq_set_pending>
10008d50:	20002659 	.word	0x20002659

10008d54 <stdio_usb_in_chars>:
10008d54:	b538      	push	{r3, r4, r5, lr}
10008d56:	4604      	mov	r4, r0
10008d58:	2000      	movs	r0, #0
10008d5a:	460d      	mov	r5, r1
10008d5c:	f001 fb04 	bl	1000a368 <tud_cdc_n_connected>
10008d60:	b3a8      	cbz	r0, 10008dce <stdio_usb_in_chars+0x7a>
10008d62:	2000      	movs	r0, #0
10008d64:	f001 fb16 	bl	1000a394 <tud_cdc_n_available>
10008d68:	b388      	cbz	r0, 10008dce <stdio_usb_in_chars+0x7a>
10008d6a:	f7fd fc83 	bl	10006674 <time_us_64>
10008d6e:	f04f 3eff 	mov.w	lr, #4294967295
10008d72:	f06f 4c00 	mvn.w	ip, #2147483648	@ 0x80000000
10008d76:	4a17      	ldr	r2, [pc, #92]	@ (10008dd4 <stdio_usb_in_chars+0x80>)
10008d78:	1882      	adds	r2, r0, r2
10008d7a:	f141 0300 	adc.w	r3, r1, #0
10008d7e:	4596      	cmp	lr, r2
10008d80:	eb7c 0103 	sbcs.w	r1, ip, r3
10008d84:	bf3c      	itt	cc
10008d86:	4672      	movcc	r2, lr
10008d88:	4663      	movcc	r3, ip
10008d8a:	4813      	ldr	r0, [pc, #76]	@ (10008dd8 <stdio_usb_in_chars+0x84>)
10008d8c:	f004 fbd8 	bl	1000d540 <__mutex_try_enter_block_until_veneer>
10008d90:	b1e8      	cbz	r0, 10008dce <stdio_usb_in_chars+0x7a>
10008d92:	2000      	movs	r0, #0
10008d94:	f001 fae8 	bl	1000a368 <tud_cdc_n_connected>
10008d98:	b958      	cbnz	r0, 10008db2 <stdio_usb_in_chars+0x5e>
10008d9a:	2100      	movs	r1, #0
10008d9c:	f04f 30ff 	mov.w	r0, #4294967295
10008da0:	f000 fd0a 	bl	100097b8 <tud_task_ext>
10008da4:	f06f 0402 	mvn.w	r4, #2
10008da8:	480b      	ldr	r0, [pc, #44]	@ (10008dd8 <stdio_usb_in_chars+0x84>)
10008daa:	f004 fbb5 	bl	1000d518 <__mutex_exit_veneer>
10008dae:	4620      	mov	r0, r4
10008db0:	bd38      	pop	{r3, r4, r5, pc}
10008db2:	2000      	movs	r0, #0
10008db4:	f001 faee 	bl	1000a394 <tud_cdc_n_available>
10008db8:	2800      	cmp	r0, #0
10008dba:	d0ee      	beq.n	10008d9a <stdio_usb_in_chars+0x46>
10008dbc:	4621      	mov	r1, r4
10008dbe:	462a      	mov	r2, r5
10008dc0:	2000      	movs	r0, #0
10008dc2:	f001 faf1 	bl	1000a3a8 <tud_cdc_n_read>
10008dc6:	4604      	mov	r4, r0
10008dc8:	2800      	cmp	r0, #0
10008dca:	d1ed      	bne.n	10008da8 <stdio_usb_in_chars+0x54>
10008dcc:	e7ea      	b.n	10008da4 <stdio_usb_in_chars+0x50>
10008dce:	f06f 0402 	mvn.w	r4, #2
10008dd2:	e7ec      	b.n	10008dae <stdio_usb_in_chars+0x5a>
10008dd4:	000f4240 	.word	0x000f4240
10008dd8:	20002638 	.word	0x20002638

10008ddc <stdio_usb_out_flush>:
10008ddc:	b508      	push	{r3, lr}
10008dde:	f7fd fc49 	bl	10006674 <time_us_64>
10008de2:	f04f 3eff 	mov.w	lr, #4294967295
10008de6:	f06f 4c00 	mvn.w	ip, #2147483648	@ 0x80000000
10008dea:	4a0f      	ldr	r2, [pc, #60]	@ (10008e28 <stdio_usb_out_flush+0x4c>)
10008dec:	1882      	adds	r2, r0, r2
10008dee:	f141 0300 	adc.w	r3, r1, #0
10008df2:	4596      	cmp	lr, r2
10008df4:	eb7c 0103 	sbcs.w	r1, ip, r3
10008df8:	bf3c      	itt	cc
10008dfa:	4672      	movcc	r2, lr
10008dfc:	4663      	movcc	r3, ip
10008dfe:	480b      	ldr	r0, [pc, #44]	@ (10008e2c <stdio_usb_out_flush+0x50>)
10008e00:	f004 fb9e 	bl	1000d540 <__mutex_try_enter_block_until_veneer>
10008e04:	b170      	cbz	r0, 10008e24 <stdio_usb_out_flush+0x48>
10008e06:	f04f 30ff 	mov.w	r0, #4294967295
10008e0a:	2100      	movs	r1, #0
10008e0c:	f000 fcd4 	bl	100097b8 <tud_task_ext>
10008e10:	2000      	movs	r0, #0
10008e12:	f001 fb11 	bl	1000a438 <tud_cdc_n_write_flush>
10008e16:	2800      	cmp	r0, #0
10008e18:	d1f5      	bne.n	10008e06 <stdio_usb_out_flush+0x2a>
10008e1a:	e8bd 4008 	ldmia.w	sp!, {r3, lr}
10008e1e:	4803      	ldr	r0, [pc, #12]	@ (10008e2c <stdio_usb_out_flush+0x50>)
10008e20:	f004 bb7a 	b.w	1000d518 <__mutex_exit_veneer>
10008e24:	bd08      	pop	{r3, pc}
10008e26:	bf00      	nop
10008e28:	000f4240 	.word	0x000f4240
10008e2c:	20002638 	.word	0x20002638

10008e30 <stdio_usb_out_chars>:
10008e30:	e92d 43f8 	stmdb	sp!, {r3, r4, r5, r6, r7, r8, r9, lr}
10008e34:	4680      	mov	r8, r0
10008e36:	460f      	mov	r7, r1
10008e38:	f7fd fc1c 	bl	10006674 <time_us_64>
10008e3c:	f04f 35ff 	mov.w	r5, #4294967295
10008e40:	f06f 4400 	mvn.w	r4, #2147483648	@ 0x80000000
10008e44:	4a33      	ldr	r2, [pc, #204]	@ (10008f14 <stdio_usb_out_chars+0xe4>)
10008e46:	1882      	adds	r2, r0, r2
10008e48:	f141 0300 	adc.w	r3, r1, #0
10008e4c:	4295      	cmp	r5, r2
10008e4e:	eb74 0103 	sbcs.w	r1, r4, r3
10008e52:	bf3c      	itt	cc
10008e54:	462a      	movcc	r2, r5
10008e56:	4623      	movcc	r3, r4
10008e58:	482f      	ldr	r0, [pc, #188]	@ (10008f18 <stdio_usb_out_chars+0xe8>)
10008e5a:	f004 fb71 	bl	1000d540 <__mutex_try_enter_block_until_veneer>
10008e5e:	b908      	cbnz	r0, 10008e64 <stdio_usb_out_chars+0x34>
10008e60:	e8bd 83f8 	ldmia.w	sp!, {r3, r4, r5, r6, r7, r8, r9, pc}
10008e64:	2000      	movs	r0, #0
10008e66:	f001 fa7f 	bl	1000a368 <tud_cdc_n_connected>
10008e6a:	2800      	cmp	r0, #0
10008e6c:	d047      	beq.n	10008efe <stdio_usb_out_chars+0xce>
10008e6e:	2f00      	cmp	r7, #0
10008e70:	dd40      	ble.n	10008ef4 <stdio_usb_out_chars+0xc4>
10008e72:	2500      	movs	r5, #0
10008e74:	f8df 90a8 	ldr.w	r9, [pc, #168]	@ 10008f20 <stdio_usb_out_chars+0xf0>
10008e78:	4e28      	ldr	r6, [pc, #160]	@ (10008f1c <stdio_usb_out_chars+0xec>)
10008e7a:	e013      	b.n	10008ea4 <stdio_usb_out_chars+0x74>
10008e7c:	4622      	mov	r2, r4
10008e7e:	2000      	movs	r0, #0
10008e80:	f001 fb20 	bl	1000a4c4 <tud_cdc_n_write>
10008e84:	2100      	movs	r1, #0
10008e86:	4604      	mov	r4, r0
10008e88:	f04f 30ff 	mov.w	r0, #4294967295
10008e8c:	f000 fc94 	bl	100097b8 <tud_task_ext>
10008e90:	2000      	movs	r0, #0
10008e92:	f001 fad1 	bl	1000a438 <tud_cdc_n_write_flush>
10008e96:	f7fd fbed 	bl	10006674 <time_us_64>
10008e9a:	e9c9 0100 	strd	r0, r1, [r9]
10008e9e:	4425      	add	r5, r4
10008ea0:	42af      	cmp	r7, r5
10008ea2:	dd27      	ble.n	10008ef4 <stdio_usb_out_chars+0xc4>
10008ea4:	2000      	movs	r0, #0
10008ea6:	f001 fb2d 	bl	1000a504 <tud_cdc_n_write_available>
10008eaa:	1b7c      	subs	r4, r7, r5
10008eac:	4284      	cmp	r4, r0
10008eae:	bfa8      	it	ge
10008eb0:	4604      	movge	r4, r0
10008eb2:	eb08 0105 	add.w	r1, r8, r5
10008eb6:	2c00      	cmp	r4, #0
10008eb8:	d1e0      	bne.n	10008e7c <stdio_usb_out_chars+0x4c>
10008eba:	4621      	mov	r1, r4
10008ebc:	f04f 30ff 	mov.w	r0, #4294967295
10008ec0:	f000 fc7a 	bl	100097b8 <tud_task_ext>
10008ec4:	4620      	mov	r0, r4
10008ec6:	f001 fab7 	bl	1000a438 <tud_cdc_n_write_flush>
10008eca:	4620      	mov	r0, r4
10008ecc:	f001 fa4c 	bl	1000a368 <tud_cdc_n_connected>
10008ed0:	b180      	cbz	r0, 10008ef4 <stdio_usb_out_chars+0xc4>
10008ed2:	4620      	mov	r0, r4
10008ed4:	f001 fb16 	bl	1000a504 <tud_cdc_n_write_available>
10008ed8:	2800      	cmp	r0, #0
10008eda:	d1e1      	bne.n	10008ea0 <stdio_usb_out_chars+0x70>
10008edc:	f7fd fbca 	bl	10006674 <time_us_64>
10008ee0:	f8d9 3000 	ldr.w	r3, [r9]
10008ee4:	f8d9 2004 	ldr.w	r2, [r9, #4]
10008ee8:	199b      	adds	r3, r3, r6
10008eea:	f142 0200 	adc.w	r2, r2, #0
10008eee:	4283      	cmp	r3, r0
10008ef0:	418a      	sbcs	r2, r1
10008ef2:	d2d5      	bcs.n	10008ea0 <stdio_usb_out_chars+0x70>
10008ef4:	4808      	ldr	r0, [pc, #32]	@ (10008f18 <stdio_usb_out_chars+0xe8>)
10008ef6:	e8bd 43f8 	ldmia.w	sp!, {r3, r4, r5, r6, r7, r8, r9, lr}
10008efa:	f004 bb0d 	b.w	1000d518 <__mutex_exit_veneer>
10008efe:	2000      	movs	r0, #0
10008f00:	2100      	movs	r1, #0
10008f02:	4b07      	ldr	r3, [pc, #28]	@ (10008f20 <stdio_usb_out_chars+0xf0>)
10008f04:	e9c3 0100 	strd	r0, r1, [r3]
10008f08:	e8bd 43f8 	ldmia.w	sp!, {r3, r4, r5, r6, r7, r8, r9, lr}
10008f0c:	4802      	ldr	r0, [pc, #8]	@ (10008f18 <stdio_usb_out_chars+0xe8>)
10008f0e:	f004 bb03 	b.w	1000d518 <__mutex_exit_veneer>
10008f12:	bf00      	nop
10008f14:	000f4240 	.word	0x000f4240
10008f18:	20002638 	.word	0x20002638
10008f1c:	0007a120 	.word	0x0007a120
10008f20:	20001a38 	.word	0x20001a38

10008f24 <low_priority_worker_irq>:
10008f24:	b530      	push	{r4, r5, lr}
10008f26:	2100      	movs	r1, #0
10008f28:	b085      	sub	sp, #20
10008f2a:	482e      	ldr	r0, [pc, #184]	@ (10008fe4 <low_priority_worker_irq+0xc0>)
10008f2c:	f004 fb0c 	bl	1000d548 <__mutex_try_enter_veneer>
10008f30:	b9f0      	cbnz	r0, 10008f70 <low_priority_worker_irq+0x4c>
10008f32:	4b2d      	ldr	r3, [pc, #180]	@ (10008fe8 <low_priority_worker_irq+0xc4>)
10008f34:	681a      	ldr	r2, [r3, #0]
10008f36:	b1ca      	cbz	r2, 10008f6c <low_priority_worker_irq+0x48>
10008f38:	f3ef 8110 	mrs	r1, PRIMASK
10008f3c:	b672      	cpsid	i
10008f3e:	e8d2 5fcf 	ldaexb	r5, [r2]
10008f42:	2401      	movs	r4, #1
10008f44:	2d00      	cmp	r5, #0
10008f46:	d1fa      	bne.n	10008f3e <low_priority_worker_irq+0x1a>
10008f48:	e8c2 4f45 	strexb	r5, r4, [r2]
10008f4c:	2d00      	cmp	r5, #0
10008f4e:	d1f6      	bne.n	10008f3e <low_priority_worker_irq+0x1a>
10008f50:	f3bf 8f5f 	dmb	sy
10008f54:	4c25      	ldr	r4, [pc, #148]	@ (10008fec <low_priority_worker_irq+0xc8>)
10008f56:	681d      	ldr	r5, [r3, #0]
10008f58:	7822      	ldrb	r2, [r4, #0]
10008f5a:	6059      	str	r1, [r3, #4]
10008f5c:	b2d3      	uxtb	r3, r2
10008f5e:	2201      	movs	r2, #1
10008f60:	7022      	strb	r2, [r4, #0]
10008f62:	e8c5 0f8f 	stlb	r0, [r5]
10008f66:	f381 8810 	msr	PRIMASK, r1
10008f6a:	b1cb      	cbz	r3, 10008fa0 <low_priority_worker_irq+0x7c>
10008f6c:	b005      	add	sp, #20
10008f6e:	bd30      	pop	{r4, r5, pc}
10008f70:	2100      	movs	r1, #0
10008f72:	f04f 30ff 	mov.w	r0, #4294967295
10008f76:	f000 fc1f 	bl	100097b8 <tud_task_ext>
10008f7a:	2000      	movs	r0, #0
10008f7c:	f001 fa0a 	bl	1000a394 <tud_cdc_n_available>
10008f80:	4604      	mov	r4, r0
10008f82:	4818      	ldr	r0, [pc, #96]	@ (10008fe4 <low_priority_worker_irq+0xc0>)
10008f84:	f004 fac8 	bl	1000d518 <__mutex_exit_veneer>
10008f88:	2c00      	cmp	r4, #0
10008f8a:	d0ef      	beq.n	10008f6c <low_priority_worker_irq+0x48>
10008f8c:	4b18      	ldr	r3, [pc, #96]	@ (10008ff0 <low_priority_worker_irq+0xcc>)
10008f8e:	681b      	ldr	r3, [r3, #0]
10008f90:	2b00      	cmp	r3, #0
10008f92:	d0eb      	beq.n	10008f6c <low_priority_worker_irq+0x48>
10008f94:	4a17      	ldr	r2, [pc, #92]	@ (10008ff4 <low_priority_worker_irq+0xd0>)
10008f96:	6810      	ldr	r0, [r2, #0]
10008f98:	b005      	add	sp, #20
10008f9a:	e8bd 4030 	ldmia.w	sp!, {r4, r5, lr}
10008f9e:	4718      	bx	r3
10008fa0:	f7fd f95e 	bl	10006260 <alarm_pool_get_default>
10008fa4:	4604      	mov	r4, r0
10008fa6:	f7fd fb65 	bl	10006674 <time_us_64>
10008faa:	f04f 3cff 	mov.w	ip, #4294967295
10008fae:	f06f 4500 	mvn.w	r5, #2147483648	@ 0x80000000
10008fb2:	f510 727a 	adds.w	r2, r0, #1000	@ 0x3e8
10008fb6:	f141 0300 	adc.w	r3, r1, #0
10008fba:	4594      	cmp	ip, r2
10008fbc:	eb75 0103 	sbcs.w	r1, r5, r3
10008fc0:	bf38      	it	cc
10008fc2:	462b      	movcc	r3, r5
10008fc4:	f04f 0100 	mov.w	r1, #0
10008fc8:	f04f 0501 	mov.w	r5, #1
10008fcc:	4620      	mov	r0, r4
10008fce:	4c0a      	ldr	r4, [pc, #40]	@ (10008ff8 <low_priority_worker_irq+0xd4>)
10008fd0:	bf38      	it	cc
10008fd2:	4662      	movcc	r2, ip
10008fd4:	e9cd 1501 	strd	r1, r5, [sp, #4]
10008fd8:	9400      	str	r4, [sp, #0]
10008fda:	f7fd f945 	bl	10006268 <alarm_pool_add_alarm_at>
10008fde:	b005      	add	sp, #20
10008fe0:	bd30      	pop	{r4, r5, pc}
10008fe2:	bf00      	nop
10008fe4:	20002638 	.word	0x20002638
10008fe8:	20002604 	.word	0x20002604
10008fec:	2000265a 	.word	0x2000265a
10008ff0:	2000216c 	.word	0x2000216c
10008ff4:	20002170 	.word	0x20002170
10008ff8:	10008cd9 	.word	0x10008cd9

10008ffc <stdio_usb_init>:
10008ffc:	f04f 4350 	mov.w	r3, #3489660928	@ 0xd0000000
10009000:	b530      	push	{r4, r5, lr}
10009002:	b085      	sub	sp, #20
10009004:	681c      	ldr	r4, [r3, #0]
10009006:	f7fd f92b 	bl	10006260 <alarm_pool_get_default>
1000900a:	f7fd fa3f 	bl	1000648c <alarm_pool_core_num>
1000900e:	42a0      	cmp	r0, r4
10009010:	d002      	beq.n	10009018 <stdio_usb_init+0x1c>
10009012:	2000      	movs	r0, #0
10009014:	b005      	add	sp, #20
10009016:	bd30      	pop	{r4, r5, pc}
10009018:	2100      	movs	r1, #0
1000901a:	4b2a      	ldr	r3, [pc, #168]	@ (100090c4 <stdio_usb_init+0xc8>)
1000901c:	4608      	mov	r0, r1
1000901e:	781b      	ldrb	r3, [r3, #0]
10009020:	f001 fd38 	bl	1000aa94 <tusb_rhport_init>
10009024:	4828      	ldr	r0, [pc, #160]	@ (100090c8 <stdio_usb_init+0xcc>)
10009026:	6803      	ldr	r3, [r0, #0]
10009028:	2b00      	cmp	r3, #0
1000902a:	d047      	beq.n	100090bc <stdio_usb_init+0xc0>
1000902c:	2001      	movs	r0, #1
1000902e:	f7fc fe9d 	bl	10005d6c <user_irq_claim_unused>
10009032:	4603      	mov	r3, r0
10009034:	4c25      	ldr	r4, [pc, #148]	@ (100090cc <stdio_usb_init+0xd0>)
10009036:	4926      	ldr	r1, [pc, #152]	@ (100090d0 <stdio_usb_init+0xd4>)
10009038:	b2c0      	uxtb	r0, r0
1000903a:	7023      	strb	r3, [r4, #0]
1000903c:	f7fc fd14 	bl	10005a68 <irq_set_exclusive_handler>
10009040:	7820      	ldrb	r0, [r4, #0]
10009042:	2101      	movs	r1, #1
10009044:	f7fc fcce 	bl	100059e4 <irq_set_enabled>
10009048:	200e      	movs	r0, #14
1000904a:	f7fc fcfd 	bl	10005a48 <irq_has_shared_handler>
1000904e:	bb40      	cbnz	r0, 100090a2 <stdio_usb_init+0xa6>
10009050:	4b20      	ldr	r3, [pc, #128]	@ (100090d4 <stdio_usb_init+0xd8>)
10009052:	2501      	movs	r5, #1
10009054:	e9c3 0000 	strd	r0, r0, [r3]
10009058:	f7fd f902 	bl	10006260 <alarm_pool_get_default>
1000905c:	4604      	mov	r4, r0
1000905e:	f7fd fb09 	bl	10006674 <time_us_64>
10009062:	f04f 3eff 	mov.w	lr, #4294967295
10009066:	f06f 4c00 	mvn.w	ip, #2147483648	@ 0x80000000
1000906a:	f510 727a 	adds.w	r2, r0, #1000	@ 0x3e8
1000906e:	f141 0300 	adc.w	r3, r1, #0
10009072:	4596      	cmp	lr, r2
10009074:	eb7c 0103 	sbcs.w	r1, ip, r3
10009078:	f04f 0100 	mov.w	r1, #0
1000907c:	4620      	mov	r0, r4
1000907e:	4c16      	ldr	r4, [pc, #88]	@ (100090d8 <stdio_usb_init+0xdc>)
10009080:	bf3c      	itt	cc
10009082:	4672      	movcc	r2, lr
10009084:	4663      	movcc	r3, ip
10009086:	e9cd 1501 	strd	r1, r5, [sp, #4]
1000908a:	9400      	str	r4, [sp, #0]
1000908c:	f7fd f8ec 	bl	10006268 <alarm_pool_add_alarm_at>
10009090:	2800      	cmp	r0, #0
10009092:	dbbe      	blt.n	10009012 <stdio_usb_init+0x16>
10009094:	2101      	movs	r1, #1
10009096:	4811      	ldr	r0, [pc, #68]	@ (100090dc <stdio_usb_init+0xe0>)
10009098:	f7ff fcbc 	bl	10008a14 <stdio_set_driver_enabled>
1000909c:	2001      	movs	r0, #1
1000909e:	b005      	add	sp, #20
100090a0:	bd30      	pop	{r4, r5, pc}
100090a2:	2001      	movs	r0, #1
100090a4:	f7fc fc5a 	bl	1000595c <spin_lock_claim_unused>
100090a8:	4601      	mov	r1, r0
100090aa:	480a      	ldr	r0, [pc, #40]	@ (100090d4 <stdio_usb_init+0xd8>)
100090ac:	f7fc feba 	bl	10005e24 <critical_section_init_with_lock_num>
100090b0:	2200      	movs	r2, #0
100090b2:	200e      	movs	r0, #14
100090b4:	490a      	ldr	r1, [pc, #40]	@ (100090e0 <stdio_usb_init+0xe4>)
100090b6:	f7fc fd07 	bl	10005ac8 <irq_add_shared_handler>
100090ba:	e7eb      	b.n	10009094 <stdio_usb_init+0x98>
100090bc:	f7fc fe96 	bl	10005dec <mutex_init>
100090c0:	e7b4      	b.n	1000902c <stdio_usb_init+0x30>
100090c2:	bf00      	nop
100090c4:	10025948 	.word	0x10025948
100090c8:	20002638 	.word	0x20002638
100090cc:	20002659 	.word	0x20002659
100090d0:	10008f25 	.word	0x10008f25
100090d4:	20002604 	.word	0x20002604
100090d8:	10008cd9 	.word	0x10008cd9
100090dc:	20001314 	.word	0x20001314
100090e0:	10008d49 	.word	0x10008d49

100090e4 <tud_descriptor_device_cb>:
100090e4:	4800      	ldr	r0, [pc, #0]	@ (100090e8 <tud_descriptor_device_cb+0x4>)
100090e6:	4770      	bx	lr
100090e8:	100258a0 	.word	0x100258a0

100090ec <tud_descriptor_configuration_cb>:
100090ec:	4800      	ldr	r0, [pc, #0]	@ (100090f0 <tud_descriptor_configuration_cb+0x4>)
100090ee:	4770      	bx	lr
100090f0:	1002584c 	.word	0x1002584c

100090f4 <tud_descriptor_string_cb>:
100090f4:	b538      	push	{r3, r4, r5, lr}
100090f6:	4b18      	ldr	r3, [pc, #96]	@ (10009158 <tud_descriptor_string_cb+0x64>)
100090f8:	4604      	mov	r4, r0
100090fa:	781a      	ldrb	r2, [r3, #0]
100090fc:	b30a      	cbz	r2, 10009142 <tud_descriptor_string_cb+0x4e>
100090fe:	b944      	cbnz	r4, 10009112 <tud_descriptor_string_cb+0x1e>
10009100:	f240 4209 	movw	r2, #1033	@ 0x409
10009104:	f44f 7341 	mov.w	r3, #772	@ 0x304
10009108:	4d14      	ldr	r5, [pc, #80]	@ (1000915c <tud_descriptor_string_cb+0x68>)
1000910a:	806a      	strh	r2, [r5, #2]
1000910c:	4813      	ldr	r0, [pc, #76]	@ (1000915c <tud_descriptor_string_cb+0x68>)
1000910e:	802b      	strh	r3, [r5, #0]
10009110:	bd38      	pop	{r3, r4, r5, pc}
10009112:	2c05      	cmp	r4, #5
10009114:	d81d      	bhi.n	10009152 <tud_descriptor_string_cb+0x5e>
10009116:	4b12      	ldr	r3, [pc, #72]	@ (10009160 <tud_descriptor_string_cb+0x6c>)
10009118:	4d10      	ldr	r5, [pc, #64]	@ (1000915c <tud_descriptor_string_cb+0x68>)
1000911a:	f853 1024 	ldr.w	r1, [r3, r4, lsl #2]
1000911e:	4628      	mov	r0, r5
10009120:	2300      	movs	r3, #0
10009122:	3901      	subs	r1, #1
10009124:	e003      	b.n	1000912e <tud_descriptor_string_cb+0x3a>
10009126:	2b13      	cmp	r3, #19
10009128:	f820 2f02 	strh.w	r2, [r0, #2]!
1000912c:	d00e      	beq.n	1000914c <tud_descriptor_string_cb+0x58>
1000912e:	f811 2f01 	ldrb.w	r2, [r1, #1]!
10009132:	3301      	adds	r3, #1
10009134:	b2db      	uxtb	r3, r3
10009136:	2a00      	cmp	r2, #0
10009138:	d1f5      	bne.n	10009126 <tud_descriptor_string_cb+0x32>
1000913a:	005b      	lsls	r3, r3, #1
1000913c:	f443 7340 	orr.w	r3, r3, #768	@ 0x300
10009140:	e7e4      	b.n	1000910c <tud_descriptor_string_cb+0x18>
10009142:	2111      	movs	r1, #17
10009144:	4618      	mov	r0, r3
10009146:	f000 f825 	bl	10009194 <pico_get_unique_board_id_string>
1000914a:	e7d8      	b.n	100090fe <tud_descriptor_string_cb+0xa>
1000914c:	f44f 734a 	mov.w	r3, #808	@ 0x328
10009150:	e7dc      	b.n	1000910c <tud_descriptor_string_cb+0x18>
10009152:	2000      	movs	r0, #0
10009154:	bd38      	pop	{r3, r4, r5, pc}
10009156:	bf00      	nop
10009158:	20002640 	.word	0x20002640
1000915c:	200021a4 	.word	0x200021a4
10009160:	10025834 	.word	0x10025834

10009164 <_retrieve_unique_id_on_boot>:
10009164:	b500      	push	{lr}
10009166:	f245 3047 	movw	r0, #21319	@ 0x5347
1000916a:	b08b      	sub	sp, #44	@ 0x2c
1000916c:	f7fd fbc4 	bl	100068f8 <rom_func_lookup>
10009170:	2201      	movs	r2, #1
10009172:	4603      	mov	r3, r0
10009174:	2109      	movs	r1, #9
10009176:	a801      	add	r0, sp, #4
10009178:	4798      	blx	r3
1000917a:	e9dd 3203 	ldrd	r3, r2, [sp, #12]
1000917e:	4904      	ldr	r1, [pc, #16]	@ (10009190 <_retrieve_unique_id_on_boot+0x2c>)
10009180:	ba12      	rev	r2, r2
10009182:	ba1b      	rev	r3, r3
10009184:	e9c1 2300 	strd	r2, r3, [r1]
10009188:	b00b      	add	sp, #44	@ 0x2c
1000918a:	f85d fb04 	ldr.w	pc, [sp], #4
1000918e:	bf00      	nop
10009190:	2000262c 	.word	0x2000262c

10009194 <pico_get_unique_board_id_string>:
10009194:	2901      	cmp	r1, #1
10009196:	f101 33ff 	add.w	r3, r1, #4294967295
1000919a:	f000 80b3 	beq.w	10009304 <pico_get_unique_board_id_string+0x170>
1000919e:	495d      	ldr	r1, [pc, #372]	@ (10009314 <pico_get_unique_board_id_string+0x180>)
100091a0:	780a      	ldrb	r2, [r1, #0]
100091a2:	ea4f 1c12 	mov.w	ip, r2, lsr #4
100091a6:	2a9f      	cmp	r2, #159	@ 0x9f
100091a8:	bf8c      	ite	hi
100091aa:	f10c 0c37 	addhi.w	ip, ip, #55	@ 0x37
100091ae:	f10c 0c30 	addls.w	ip, ip, #48	@ 0x30
100091b2:	2b01      	cmp	r3, #1
100091b4:	f880 c000 	strb.w	ip, [r0]
100091b8:	f000 80a7 	beq.w	1000930a <pico_get_unique_board_id_string+0x176>
100091bc:	f002 020f 	and.w	r2, r2, #15
100091c0:	2a09      	cmp	r2, #9
100091c2:	bf8c      	ite	hi
100091c4:	3237      	addhi	r2, #55	@ 0x37
100091c6:	3230      	addls	r2, #48	@ 0x30
100091c8:	2b02      	cmp	r3, #2
100091ca:	7042      	strb	r2, [r0, #1]
100091cc:	f000 809d 	beq.w	1000930a <pico_get_unique_board_id_string+0x176>
100091d0:	784a      	ldrb	r2, [r1, #1]
100091d2:	ea4f 1c12 	mov.w	ip, r2, lsr #4
100091d6:	2a9f      	cmp	r2, #159	@ 0x9f
100091d8:	bf8c      	ite	hi
100091da:	f10c 0c37 	addhi.w	ip, ip, #55	@ 0x37
100091de:	f10c 0c30 	addls.w	ip, ip, #48	@ 0x30
100091e2:	2b03      	cmp	r3, #3
100091e4:	f880 c002 	strb.w	ip, [r0, #2]
100091e8:	f000 808f 	beq.w	1000930a <pico_get_unique_board_id_string+0x176>
100091ec:	f002 020f 	and.w	r2, r2, #15
100091f0:	2a09      	cmp	r2, #9
100091f2:	bf8c      	ite	hi
100091f4:	3237      	addhi	r2, #55	@ 0x37
100091f6:	3230      	addls	r2, #48	@ 0x30
100091f8:	2b04      	cmp	r3, #4
100091fa:	70c2      	strb	r2, [r0, #3]
100091fc:	f000 8085 	beq.w	1000930a <pico_get_unique_board_id_string+0x176>
10009200:	788a      	ldrb	r2, [r1, #2]
10009202:	ea4f 1c12 	mov.w	ip, r2, lsr #4
10009206:	2a9f      	cmp	r2, #159	@ 0x9f
10009208:	bf8c      	ite	hi
1000920a:	f10c 0c37 	addhi.w	ip, ip, #55	@ 0x37
1000920e:	f10c 0c30 	addls.w	ip, ip, #48	@ 0x30
10009212:	2b05      	cmp	r3, #5
10009214:	f880 c004 	strb.w	ip, [r0, #4]
10009218:	d077      	beq.n	1000930a <pico_get_unique_board_id_string+0x176>
1000921a:	f002 020f 	and.w	r2, r2, #15
1000921e:	2a09      	cmp	r2, #9
10009220:	bf8c      	ite	hi
10009222:	3237      	addhi	r2, #55	@ 0x37
10009224:	3230      	addls	r2, #48	@ 0x30
10009226:	2b06      	cmp	r3, #6
10009228:	7142      	strb	r2, [r0, #5]
1000922a:	d06e      	beq.n	1000930a <pico_get_unique_board_id_string+0x176>
1000922c:	78ca      	ldrb	r2, [r1, #3]
1000922e:	ea4f 1c12 	mov.w	ip, r2, lsr #4
10009232:	2a9f      	cmp	r2, #159	@ 0x9f
10009234:	bf8c      	ite	hi
10009236:	f10c 0c37 	addhi.w	ip, ip, #55	@ 0x37
1000923a:	f10c 0c30 	addls.w	ip, ip, #48	@ 0x30
1000923e:	2b07      	cmp	r3, #7
10009240:	f880 c006 	strb.w	ip, [r0, #6]
10009244:	d061      	beq.n	1000930a <pico_get_unique_board_id_string+0x176>
10009246:	f002 020f 	and.w	r2, r2, #15
1000924a:	2a09      	cmp	r2, #9
1000924c:	bf8c      	ite	hi
1000924e:	3237      	addhi	r2, #55	@ 0x37
10009250:	3230      	addls	r2, #48	@ 0x30
10009252:	2b08      	cmp	r3, #8
10009254:	71c2      	strb	r2, [r0, #7]
10009256:	d058      	beq.n	1000930a <pico_get_unique_board_id_string+0x176>
10009258:	790a      	ldrb	r2, [r1, #4]
1000925a:	ea4f 1c12 	mov.w	ip, r2, lsr #4
1000925e:	2a9f      	cmp	r2, #159	@ 0x9f
10009260:	bf8c      	ite	hi
10009262:	f10c 0c37 	addhi.w	ip, ip, #55	@ 0x37
10009266:	f10c 0c30 	addls.w	ip, ip, #48	@ 0x30
1000926a:	2b09      	cmp	r3, #9
1000926c:	f880 c008 	strb.w	ip, [r0, #8]
10009270:	d04b      	beq.n	1000930a <pico_get_unique_board_id_string+0x176>
10009272:	f002 020f 	and.w	r2, r2, #15
10009276:	2a09      	cmp	r2, #9
10009278:	bf8c      	ite	hi
1000927a:	3237      	addhi	r2, #55	@ 0x37
1000927c:	3230      	addls	r2, #48	@ 0x30
1000927e:	2b0a      	cmp	r3, #10
10009280:	7242      	strb	r2, [r0, #9]
10009282:	d042      	beq.n	1000930a <pico_get_unique_board_id_string+0x176>
10009284:	794a      	ldrb	r2, [r1, #5]
10009286:	ea4f 1c12 	mov.w	ip, r2, lsr #4
1000928a:	2a9f      	cmp	r2, #159	@ 0x9f
1000928c:	bf8c      	ite	hi
1000928e:	f10c 0c37 	addhi.w	ip, ip, #55	@ 0x37
10009292:	f10c 0c30 	addls.w	ip, ip, #48	@ 0x30
10009296:	2b0b      	cmp	r3, #11
10009298:	f880 c00a 	strb.w	ip, [r0, #10]
1000929c:	d035      	beq.n	1000930a <pico_get_unique_board_id_string+0x176>
1000929e:	f002 020f 	and.w	r2, r2, #15
100092a2:	2a09      	cmp	r2, #9
100092a4:	bf8c      	ite	hi
100092a6:	3237      	addhi	r2, #55	@ 0x37
100092a8:	3230      	addls	r2, #48	@ 0x30
100092aa:	2b0c      	cmp	r3, #12
100092ac:	72c2      	strb	r2, [r0, #11]
100092ae:	d02c      	beq.n	1000930a <pico_get_unique_board_id_string+0x176>
100092b0:	798a      	ldrb	r2, [r1, #6]
100092b2:	ea4f 1c12 	mov.w	ip, r2, lsr #4
100092b6:	2a9f      	cmp	r2, #159	@ 0x9f
100092b8:	bf8c      	ite	hi
100092ba:	f10c 0c37 	addhi.w	ip, ip, #55	@ 0x37
100092be:	f10c 0c30 	addls.w	ip, ip, #48	@ 0x30
100092c2:	2b0d      	cmp	r3, #13
100092c4:	f880 c00c 	strb.w	ip, [r0, #12]
100092c8:	d01f      	beq.n	1000930a <pico_get_unique_board_id_string+0x176>
100092ca:	f002 020f 	and.w	r2, r2, #15
100092ce:	2a09      	cmp	r2, #9
100092d0:	bf8c      	ite	hi
100092d2:	3237      	addhi	r2, #55	@ 0x37
100092d4:	3230      	addls	r2, #48	@ 0x30
100092d6:	2b0e      	cmp	r3, #14
100092d8:	7342      	strb	r2, [r0, #13]
100092da:	d016      	beq.n	1000930a <pico_get_unique_board_id_string+0x176>
100092dc:	79ca      	ldrb	r2, [r1, #7]
100092de:	0911      	lsrs	r1, r2, #4
100092e0:	2a9f      	cmp	r2, #159	@ 0x9f
100092e2:	bf8c      	ite	hi
100092e4:	3137      	addhi	r1, #55	@ 0x37
100092e6:	3130      	addls	r1, #48	@ 0x30
100092e8:	2b0f      	cmp	r3, #15
100092ea:	7381      	strb	r1, [r0, #14]
100092ec:	d00d      	beq.n	1000930a <pico_get_unique_board_id_string+0x176>
100092ee:	f002 020f 	and.w	r2, r2, #15
100092f2:	2a09      	cmp	r2, #9
100092f4:	bf94      	ite	ls
100092f6:	3230      	addls	r2, #48	@ 0x30
100092f8:	3237      	addhi	r2, #55	@ 0x37
100092fa:	2b10      	cmp	r3, #16
100092fc:	73c2      	strb	r2, [r0, #15]
100092fe:	bf18      	it	ne
10009300:	3010      	addne	r0, #16
10009302:	d002      	beq.n	1000930a <pico_get_unique_board_id_string+0x176>
10009304:	2300      	movs	r3, #0
10009306:	7003      	strb	r3, [r0, #0]
10009308:	4770      	bx	lr
1000930a:	4418      	add	r0, r3
1000930c:	2300      	movs	r3, #0
1000930e:	7003      	strb	r3, [r0, #0]
10009310:	4770      	bx	lr
10009312:	bf00      	nop
10009314:	2000262c 	.word	0x2000262c

10009318 <dcd_init>:
10009318:	b570      	push	{r4, r5, r6, lr}
1000931a:	f000 f92d 	bl	10009578 <rp2040_usb_init>
1000931e:	230c      	movs	r3, #12
10009320:	2640      	movs	r6, #64	@ 0x40
10009322:	4c19      	ldr	r4, [pc, #100]	@ (10009388 <dcd_init+0x70>)
10009324:	22ff      	movs	r2, #255	@ 0xff
10009326:	67a3      	str	r3, [r4, #120]	@ 0x78
10009328:	200e      	movs	r0, #14
1000932a:	4918      	ldr	r1, [pc, #96]	@ (1000938c <dcd_init+0x74>)
1000932c:	f7fc fbcc 	bl	10005ac8 <irq_add_shared_handler>
10009330:	4632      	mov	r2, r6
10009332:	2100      	movs	r1, #0
10009334:	4816      	ldr	r0, [pc, #88]	@ (10009390 <dcd_init+0x78>)
10009336:	f003 fac7 	bl	1000c8c8 <memset>
1000933a:	2501      	movs	r5, #1
1000933c:	2300      	movs	r3, #0
1000933e:	2180      	movs	r1, #128	@ 0x80
10009340:	4813      	ldr	r0, [pc, #76]	@ (10009390 <dcd_init+0x78>)
10009342:	4a14      	ldr	r2, [pc, #80]	@ (10009394 <dcd_init+0x7c>)
10009344:	8441      	strh	r1, [r0, #34]	@ 0x22
10009346:	7045      	strb	r5, [r0, #1]
10009348:	8306      	strh	r6, [r0, #24]
1000934a:	8706      	strh	r6, [r0, #56]	@ 0x38
1000934c:	6082      	str	r2, [r0, #8]
1000934e:	6043      	str	r3, [r0, #4]
10009350:	6013      	str	r3, [r2, #0]
10009352:	f842 3c04 	str.w	r3, [r2, #-4]
10009356:	f880 3021 	strb.w	r3, [r0, #33]	@ 0x21
1000935a:	f880 303b 	strb.w	r3, [r0, #59]	@ 0x3b
1000935e:	6243      	str	r3, [r0, #36]	@ 0x24
10009360:	4b0d      	ldr	r3, [pc, #52]	@ (10009398 <dcd_init+0x80>)
10009362:	f04f 5600 	mov.w	r6, #536870912	@ 0x20000000
10009366:	60c3      	str	r3, [r0, #12]
10009368:	62c3      	str	r3, [r0, #44]	@ 0x2c
1000936a:	3b80      	subs	r3, #128	@ 0x80
1000936c:	6283      	str	r3, [r0, #40]	@ 0x28
1000936e:	f004 f8c3 	bl	1000d4f8 <__reset_non_control_endpoints_veneer>
10009372:	f44f 3280 	mov.w	r2, #65536	@ 0x10000
10009376:	4909      	ldr	r1, [pc, #36]	@ (1000939c <dcd_init+0x84>)
10009378:	4b09      	ldr	r3, [pc, #36]	@ (100093a0 <dcd_init+0x88>)
1000937a:	6425      	str	r5, [r4, #64]	@ 0x40
1000937c:	4628      	mov	r0, r5
1000937e:	64e6      	str	r6, [r4, #76]	@ 0x4c
10009380:	f8c4 1090 	str.w	r1, [r4, #144]	@ 0x90
10009384:	64da      	str	r2, [r3, #76]	@ 0x4c
10009386:	bd70      	pop	{r4, r5, r6, pc}
10009388:	50110000 	.word	0x50110000
1000938c:	2000039d 	.word	0x2000039d
10009390:	200021e0 	.word	0x200021e0
10009394:	50100084 	.word	0x50100084
10009398:	50100100 	.word	0x50100100
1000939c:	0001d010 	.word	0x0001d010
100093a0:	50112000 	.word	0x50112000

100093a4 <dcd_int_enable>:
100093a4:	2101      	movs	r1, #1
100093a6:	200e      	movs	r0, #14
100093a8:	f7fc bb1c 	b.w	100059e4 <irq_set_enabled>

100093ac <dcd_set_address>:
100093ac:	2200      	movs	r2, #0
100093ae:	4802      	ldr	r0, [pc, #8]	@ (100093b8 <dcd_set_address+0xc>)
100093b0:	4611      	mov	r1, r2
100093b2:	f000 b901 	b.w	100095b8 <hw_endpoint_xfer_start>
100093b6:	bf00      	nop
100093b8:	20002200 	.word	0x20002200

100093bc <dcd_sof_enable>:
100093bc:	4b04      	ldr	r3, [pc, #16]	@ (100093d0 <dcd_sof_enable+0x14>)
100093be:	7019      	strb	r1, [r3, #0]
100093c0:	b121      	cbz	r1, 100093cc <dcd_sof_enable+0x10>
100093c2:	f44f 3200 	mov.w	r2, #131072	@ 0x20000
100093c6:	4b03      	ldr	r3, [pc, #12]	@ (100093d4 <dcd_sof_enable+0x18>)
100093c8:	f8c3 2090 	str.w	r2, [r3, #144]	@ 0x90
100093cc:	4770      	bx	lr
100093ce:	bf00      	nop
100093d0:	20002655 	.word	0x20002655
100093d4:	50112000 	.word	0x50112000

100093d8 <dcd_edpt0_status_complete>:
100093d8:	780b      	ldrb	r3, [r1, #0]
100093da:	065b      	lsls	r3, r3, #25
100093dc:	d102      	bne.n	100093e4 <dcd_edpt0_status_complete+0xc>
100093de:	784b      	ldrb	r3, [r1, #1]
100093e0:	2b05      	cmp	r3, #5
100093e2:	d000      	beq.n	100093e6 <dcd_edpt0_status_complete+0xe>
100093e4:	4770      	bx	lr
100093e6:	884b      	ldrh	r3, [r1, #2]
100093e8:	4a01      	ldr	r2, [pc, #4]	@ (100093f0 <dcd_edpt0_status_complete+0x18>)
100093ea:	b2db      	uxtb	r3, r3
100093ec:	6013      	str	r3, [r2, #0]
100093ee:	4770      	bx	lr
100093f0:	50110000 	.word	0x50110000

100093f4 <dcd_edpt_open>:
100093f4:	78cb      	ldrb	r3, [r1, #3]
100093f6:	e92d 41f0 	stmdb	sp!, {r4, r5, r6, r7, r8, lr}
100093fa:	f003 0e03 	and.w	lr, r3, #3
100093fe:	f1be 0f01 	cmp.w	lr, #1
10009402:	f3c3 0001 	ubfx	r0, r3, #0, #2
10009406:	d05b      	beq.n	100094c0 <dcd_edpt_open+0xcc>
10009408:	2700      	movs	r7, #0
1000940a:	f891 c002 	ldrb.w	ip, [r1, #2]
1000940e:	4c34      	ldr	r4, [pc, #208]	@ (100094e0 <dcd_edpt_open+0xec>)
10009410:	f00c 027f 	and.w	r2, ip, #127	@ 0x7f
10009414:	0056      	lsls	r6, r2, #1
10009416:	8889      	ldrh	r1, [r1, #4]
10009418:	eb06 13dc 	add.w	r3, r6, ip, lsr #7
1000941c:	eb04 1343 	add.w	r3, r4, r3, lsl #5
10009420:	ea4f 15dc 	mov.w	r5, ip, lsr #7
10009424:	76d8      	strb	r0, [r3, #27]
10009426:	f3c1 010a 	ubfx	r1, r1, #0, #11
1000942a:	f085 0001 	eor.w	r0, r5, #1
1000942e:	f883 c002 	strb.w	ip, [r3, #2]
10009432:	8319      	strh	r1, [r3, #24]
10009434:	7058      	strb	r0, [r3, #1]
10009436:	70df      	strb	r7, [r3, #3]
10009438:	00d3      	lsls	r3, r2, #3
1000943a:	bb8d      	cbnz	r5, 100094a0 <dcd_edpt_open+0xac>
1000943c:	4829      	ldr	r0, [pc, #164]	@ (100094e4 <dcd_edpt_open+0xf0>)
1000943e:	3304      	adds	r3, #4
10009440:	eb04 1c82 	add.w	ip, r4, r2, lsl #6
10009444:	eb03 0800 	add.w	r8, r3, r0
10009448:	f8cc 8008 	str.w	r8, [ip, #8]
1000944c:	501f      	str	r7, [r3, r0]
1000944e:	b382      	cbz	r2, 100094b2 <dcd_edpt_open+0xbe>
10009450:	4b25      	ldr	r3, [pc, #148]	@ (100094e8 <dcd_edpt_open+0xf4>)
10009452:	00d2      	lsls	r2, r2, #3
10009454:	4413      	add	r3, r2
10009456:	f8cc 3004 	str.w	r3, [ip, #4]
1000945a:	4b24      	ldr	r3, [pc, #144]	@ (100094ec <dcd_edpt_open+0xf8>)
1000945c:	313f      	adds	r1, #63	@ 0x3f
1000945e:	681a      	ldr	r2, [r3, #0]
10009460:	f021 013f 	bic.w	r1, r1, #63	@ 0x3f
10009464:	f1be 0f02 	cmp.w	lr, #2
10009468:	bf08      	it	eq
1000946a:	0049      	lsleq	r1, r1, #1
1000946c:	4411      	add	r1, r2
1000946e:	6019      	str	r1, [r3, #0]
10009470:	4b1f      	ldr	r3, [pc, #124]	@ (100094f0 <dcd_edpt_open+0xfc>)
10009472:	1977      	adds	r7, r6, r5
10009474:	eb04 1747 	add.w	r7, r4, r7, lsl #5
10009478:	4299      	cmp	r1, r3
1000947a:	60fa      	str	r2, [r7, #12]
1000947c:	d82b      	bhi.n	100094d6 <dcd_edpt_open+0xe2>
1000947e:	442e      	add	r6, r5
10009480:	eb04 1346 	add.w	r3, r4, r6, lsl #5
10009484:	7ed9      	ldrb	r1, [r3, #27]
10009486:	f082 42a0 	eor.w	r2, r2, #1342177280	@ 0x50000000
1000948a:	f482 1280 	eor.w	r2, r2, #1048576	@ 0x100000
1000948e:	685b      	ldr	r3, [r3, #4]
10009490:	ea42 6281 	orr.w	r2, r2, r1, lsl #26
10009494:	f042 4200 	orr.w	r2, r2, #2147483648	@ 0x80000000
10009498:	601a      	str	r2, [r3, #0]
1000949a:	2001      	movs	r0, #1
1000949c:	e8bd 81f0 	ldmia.w	sp!, {r4, r5, r6, r7, r8, pc}
100094a0:	4810      	ldr	r0, [pc, #64]	@ (100094e4 <dcd_edpt_open+0xf0>)
100094a2:	eb04 1c82 	add.w	ip, r4, r2, lsl #6
100094a6:	4403      	add	r3, r0
100094a8:	f8cc 3028 	str.w	r3, [ip, #40]	@ 0x28
100094ac:	f840 7032 	str.w	r7, [r0, r2, lsl #3]
100094b0:	b94a      	cbnz	r2, 100094c6 <dcd_edpt_open+0xd2>
100094b2:	2200      	movs	r2, #0
100094b4:	490f      	ldr	r1, [pc, #60]	@ (100094f4 <dcd_edpt_open+0x100>)
100094b6:	eb04 1345 	add.w	r3, r4, r5, lsl #5
100094ba:	60d9      	str	r1, [r3, #12]
100094bc:	605a      	str	r2, [r3, #4]
100094be:	e7ec      	b.n	1000949a <dcd_edpt_open+0xa6>
100094c0:	2000      	movs	r0, #0
100094c2:	e8bd 81f0 	ldmia.w	sp!, {r4, r5, r6, r7, r8, pc}
100094c6:	00d2      	lsls	r2, r2, #3
100094c8:	f102 42a0 	add.w	r2, r2, #1342177280	@ 0x50000000
100094cc:	f502 1280 	add.w	r2, r2, #1048576	@ 0x100000
100094d0:	f8cc 2024 	str.w	r2, [ip, #36]	@ 0x24
100094d4:	e7c1      	b.n	1000945a <dcd_edpt_open+0x66>
100094d6:	f7fd fa5b 	bl	10006990 <hard_assertion_failure>
100094da:	68fa      	ldr	r2, [r7, #12]
100094dc:	e7cf      	b.n	1000947e <dcd_edpt_open+0x8a>
100094de:	bf00      	nop
100094e0:	200021e0 	.word	0x200021e0
100094e4:	50100080 	.word	0x50100080
100094e8:	50100004 	.word	0x50100004
100094ec:	200025e8 	.word	0x200025e8
100094f0:	50100fff 	.word	0x50100fff
100094f4:	50100100 	.word	0x50100100

100094f8 <dcd_edpt_close_all>:
100094f8:	f003 bffe 	b.w	1000d4f8 <__reset_non_control_endpoints_veneer>

100094fc <dcd_edpt_xfer>:
100094fc:	468c      	mov	ip, r1
100094fe:	b508      	push	{r3, lr}
10009500:	4611      	mov	r1, r2
10009502:	4807      	ldr	r0, [pc, #28]	@ (10009520 <dcd_edpt_xfer+0x24>)
10009504:	461a      	mov	r2, r3
10009506:	f00c 037f 	and.w	r3, ip, #127	@ 0x7f
1000950a:	ea4f 1cdc 	mov.w	ip, ip, lsr #7
1000950e:	eb0c 0c43 	add.w	ip, ip, r3, lsl #1
10009512:	eb00 104c 	add.w	r0, r0, ip, lsl #5
10009516:	f000 f84f 	bl	100095b8 <hw_endpoint_xfer_start>
1000951a:	2001      	movs	r0, #1
1000951c:	bd08      	pop	{r3, pc}
1000951e:	bf00      	nop
10009520:	200021e0 	.word	0x200021e0

10009524 <dcd_edpt_stall>:
10009524:	f011 027f 	ands.w	r2, r1, #127	@ 0x7f
10009528:	d105      	bne.n	10009536 <dcd_edpt_stall+0x12>
1000952a:	2900      	cmp	r1, #0
1000952c:	bf0c      	ite	eq
1000952e:	2002      	moveq	r0, #2
10009530:	2001      	movne	r0, #1
10009532:	4b06      	ldr	r3, [pc, #24]	@ (1000954c <dcd_edpt_stall+0x28>)
10009534:	6698      	str	r0, [r3, #104]	@ 0x68
10009536:	09c9      	lsrs	r1, r1, #7
10009538:	4b05      	ldr	r3, [pc, #20]	@ (10009550 <dcd_edpt_stall+0x2c>)
1000953a:	eb01 0042 	add.w	r0, r1, r2, lsl #1
1000953e:	eb03 1040 	add.w	r0, r3, r0, lsl #5
10009542:	f44f 6200 	mov.w	r2, #2048	@ 0x800
10009546:	2100      	movs	r1, #0
10009548:	f003 bff6 	b.w	1000d538 <___hw_endpoint_buffer_control_update32_veneer>
1000954c:	50112000 	.word	0x50112000
10009550:	200021e0 	.word	0x200021e0

10009554 <dcd_edpt_clear_stall>:
10009554:	f011 037f 	ands.w	r3, r1, #127	@ 0x7f
10009558:	d100      	bne.n	1000955c <dcd_edpt_clear_stall+0x8>
1000955a:	4770      	bx	lr
1000955c:	2200      	movs	r2, #0
1000955e:	4805      	ldr	r0, [pc, #20]	@ (10009574 <dcd_edpt_clear_stall+0x20>)
10009560:	005b      	lsls	r3, r3, #1
10009562:	eb03 13d1 	add.w	r3, r3, r1, lsr #7
10009566:	eb00 1043 	add.w	r0, r0, r3, lsl #5
1000956a:	f46f 6100 	mvn.w	r1, #2048	@ 0x800
1000956e:	70c2      	strb	r2, [r0, #3]
10009570:	f003 bfe2 	b.w	1000d538 <___hw_endpoint_buffer_control_update32_veneer>
10009574:	200021e0 	.word	0x200021e0

10009578 <rp2040_usb_init>:
10009578:	f04f 5280 	mov.w	r2, #268435456	@ 0x10000000
1000957c:	4809      	ldr	r0, [pc, #36]	@ (100095a4 <rp2040_usb_init+0x2c>)
1000957e:	490a      	ldr	r1, [pc, #40]	@ (100095a8 <rp2040_usb_init+0x30>)
10009580:	b508      	push	{r3, lr}
10009582:	4b0a      	ldr	r3, [pc, #40]	@ (100095ac <rp2040_usb_init+0x34>)
10009584:	6002      	str	r2, [r0, #0]
10009586:	600a      	str	r2, [r1, #0]
10009588:	6899      	ldr	r1, [r3, #8]
1000958a:	43c9      	mvns	r1, r1
1000958c:	f011 5180 	ands.w	r1, r1, #268435456	@ 0x10000000
10009590:	d1fa      	bne.n	10009588 <rp2040_usb_init+0x10>
10009592:	f44f 5280 	mov.w	r2, #4096	@ 0x1000
10009596:	4806      	ldr	r0, [pc, #24]	@ (100095b0 <rp2040_usb_init+0x38>)
10009598:	f003 f996 	bl	1000c8c8 <memset>
1000959c:	2209      	movs	r2, #9
1000959e:	4b05      	ldr	r3, [pc, #20]	@ (100095b4 <rp2040_usb_init+0x3c>)
100095a0:	675a      	str	r2, [r3, #116]	@ 0x74
100095a2:	bd08      	pop	{r3, pc}
100095a4:	40022000 	.word	0x40022000
100095a8:	40023000 	.word	0x40023000
100095ac:	40020000 	.word	0x40020000
100095b0:	50100000 	.word	0x50100000
100095b4:	50110000 	.word	0x50110000

100095b8 <hw_endpoint_xfer_start>:
100095b8:	2300      	movs	r3, #0
100095ba:	f04f 0c01 	mov.w	ip, #1
100095be:	b510      	push	{r4, lr}
100095c0:	f880 c01a 	strb.w	ip, [r0, #26]
100095c4:	8282      	strh	r2, [r0, #20]
100095c6:	82c3      	strh	r3, [r0, #22]
100095c8:	6101      	str	r1, [r0, #16]
100095ca:	4604      	mov	r4, r0
100095cc:	f003 ffac 	bl	1000d528 <__e15_is_bulkin_ep_veneer>
100095d0:	b120      	cbz	r0, 100095dc <hw_endpoint_xfer_start+0x24>
100095d2:	f44f 3200 	mov.w	r2, #131072	@ 0x20000
100095d6:	4b07      	ldr	r3, [pc, #28]	@ (100095f4 <hw_endpoint_xfer_start+0x3c>)
100095d8:	f8c3 2090 	str.w	r2, [r3, #144]	@ 0x90
100095dc:	4620      	mov	r0, r4
100095de:	f003 ffa7 	bl	1000d530 <__e15_is_critical_frame_period_veneer>
100095e2:	b110      	cbz	r0, 100095ea <hw_endpoint_xfer_start+0x32>
100095e4:	2301      	movs	r3, #1
100095e6:	7723      	strb	r3, [r4, #28]
100095e8:	bd10      	pop	{r4, pc}
100095ea:	4620      	mov	r0, r4
100095ec:	e8bd 4010 	ldmia.w	sp!, {r4, lr}
100095f0:	f003 bf8a 	b.w	1000d508 <__hw_endpoint_start_next_buffer_veneer>
100095f4:	50112000 	.word	0x50112000

100095f8 <configuration_reset>:
100095f8:	e92d 41f0 	stmdb	sp!, {r4, r5, r6, r7, r8, lr}
100095fc:	2400      	movs	r4, #0
100095fe:	4e1d      	ldr	r6, [pc, #116]	@ (10009674 <configuration_reset+0x7c>)
10009600:	4605      	mov	r5, r0
10009602:	4623      	mov	r3, r4
10009604:	7832      	ldrb	r2, [r6, #0]
10009606:	f8df 8078 	ldr.w	r8, [pc, #120]	@ 10009680 <configuration_reset+0x88>
1000960a:	4f1b      	ldr	r7, [pc, #108]	@ (10009678 <configuration_reset+0x80>)
1000960c:	e00d      	b.n	1000962a <configuration_reset+0x32>
1000960e:	683b      	ldr	r3, [r7, #0]
10009610:	eb13 1344 	adds.w	r3, r3, r4, lsl #5
10009614:	d024      	beq.n	10009660 <configuration_reset+0x68>
10009616:	68db      	ldr	r3, [r3, #12]
10009618:	4628      	mov	r0, r5
1000961a:	4798      	blx	r3
1000961c:	7832      	ldrb	r2, [r6, #0]
1000961e:	3401      	adds	r4, #1
10009620:	b2e4      	uxtb	r4, r4
10009622:	1c51      	adds	r1, r2, #1
10009624:	42a1      	cmp	r1, r4
10009626:	4623      	mov	r3, r4
10009628:	db06      	blt.n	10009638 <configuration_reset+0x40>
1000962a:	42a2      	cmp	r2, r4
1000962c:	eba3 0302 	sub.w	r3, r3, r2
10009630:	d8ed      	bhi.n	1000960e <configuration_reset+0x16>
10009632:	eb08 1343 	add.w	r3, r8, r3, lsl #5
10009636:	e7ee      	b.n	10009616 <configuration_reset+0x1e>
10009638:	2254      	movs	r2, #84	@ 0x54
1000963a:	2100      	movs	r1, #0
1000963c:	480f      	ldr	r0, [pc, #60]	@ (1000967c <configuration_reset+0x84>)
1000963e:	f003 f943 	bl	1000c8c8 <memset>
10009642:	f04f 33ff 	mov.w	r3, #4294967295
10009646:	480d      	ldr	r0, [pc, #52]	@ (1000967c <configuration_reset+0x84>)
10009648:	2220      	movs	r2, #32
1000964a:	1d04      	adds	r4, r0, #4
1000964c:	6043      	str	r3, [r0, #4]
1000964e:	e9c4 3301 	strd	r3, r3, [r4, #4]
10009652:	60e3      	str	r3, [r4, #12]
10009654:	21ff      	movs	r1, #255	@ 0xff
10009656:	e8bd 41f0 	ldmia.w	sp!, {r4, r5, r6, r7, r8, lr}
1000965a:	3014      	adds	r0, #20
1000965c:	f003 b934 	b.w	1000c8c8 <memset>
10009660:	f04f 23e0 	mov.w	r3, #3758153728	@ 0xe000e000
10009664:	f8d3 3df0 	ldr.w	r3, [r3, #3568]	@ 0xdf0
10009668:	07db      	lsls	r3, r3, #31
1000966a:	d500      	bpl.n	1000966e <configuration_reset+0x76>
1000966c:	be00      	bkpt	0x0000
1000966e:	e8bd 81f0 	ldmia.w	sp!, {r4, r5, r6, r7, r8, pc}
10009672:	bf00      	nop
10009674:	20002654 	.word	0x20002654
10009678:	20001bb4 	.word	0x20001bb4
1000967c:	20001d84 	.word	0x20001d84
10009680:	100258b4 	.word	0x100258b4

10009684 <tud_event_hook_cb>:
10009684:	4770      	bx	lr
10009686:	bf00      	nop

10009688 <tud_sof_cb>:
10009688:	4770      	bx	lr
1000968a:	bf00      	nop

1000968c <tud_descriptor_device_qualifier_cb>:
1000968c:	2000      	movs	r0, #0
1000968e:	4770      	bx	lr

10009690 <tud_descriptor_other_speed_configuration_cb>:
10009690:	2000      	movs	r0, #0
10009692:	4770      	bx	lr

10009694 <tud_mount_cb>:
10009694:	4770      	bx	lr
10009696:	bf00      	nop

10009698 <tud_umount_cb>:
10009698:	4770      	bx	lr
1000969a:	bf00      	nop

1000969c <tud_suspend_cb>:
1000969c:	4770      	bx	lr
1000969e:	bf00      	nop

100096a0 <tud_resume_cb>:
100096a0:	4770      	bx	lr
100096a2:	bf00      	nop

100096a4 <tud_mounted>:
100096a4:	4b02      	ldr	r3, [pc, #8]	@ (100096b0 <tud_mounted+0xc>)
100096a6:	7858      	ldrb	r0, [r3, #1]
100096a8:	3800      	subs	r0, #0
100096aa:	bf18      	it	ne
100096ac:	2001      	movne	r0, #1
100096ae:	4770      	bx	lr
100096b0:	20001d84 	.word	0x20001d84

100096b4 <tud_suspended>:
100096b4:	4b02      	ldr	r3, [pc, #8]	@ (100096c0 <tud_suspended+0xc>)
100096b6:	7818      	ldrb	r0, [r3, #0]
100096b8:	f3c0 0080 	ubfx	r0, r0, #2, #1
100096bc:	4770      	bx	lr
100096be:	bf00      	nop
100096c0:	20001d84 	.word	0x20001d84

100096c4 <tud_rhport_init>:
100096c4:	e92d 47f0 	stmdb	sp!, {r4, r5, r6, r7, r8, r9, sl, lr}
100096c8:	f8df a0e4 	ldr.w	sl, [pc, #228]	@ 100097b0 <tud_rhport_init+0xec>
100096cc:	f89a 3000 	ldrb.w	r3, [sl]
100096d0:	2bff      	cmp	r3, #255	@ 0xff
100096d2:	d156      	bne.n	10009782 <tud_rhport_init+0xbe>
100096d4:	460e      	mov	r6, r1
100096d6:	2900      	cmp	r1, #0
100096d8:	d03e      	beq.n	10009758 <tud_rhport_init+0x94>
100096da:	2100      	movs	r1, #0
100096dc:	2254      	movs	r2, #84	@ 0x54
100096de:	4607      	mov	r7, r0
100096e0:	4829      	ldr	r0, [pc, #164]	@ (10009788 <tud_rhport_init+0xc4>)
100096e2:	f003 f8f1 	bl	1000c8c8 <memset>
100096e6:	2200      	movs	r2, #0
100096e8:	4c28      	ldr	r4, [pc, #160]	@ (1000978c <tud_rhport_init+0xc8>)
100096ea:	4b29      	ldr	r3, [pc, #164]	@ (10009790 <tud_rhport_init+0xcc>)
100096ec:	4620      	mov	r0, r4
100096ee:	701a      	strb	r2, [r3, #0]
100096f0:	f7fc fb7c 	bl	10005dec <mutex_init>
100096f4:	4b27      	ldr	r3, [pc, #156]	@ (10009794 <tud_rhport_init+0xd0>)
100096f6:	4828      	ldr	r0, [pc, #160]	@ (10009798 <tud_rhport_init+0xd4>)
100096f8:	601c      	str	r4, [r3, #0]
100096fa:	4c28      	ldr	r4, [pc, #160]	@ (1000979c <tud_rhport_init+0xd8>)
100096fc:	f7fc fb84 	bl	10005e08 <critical_section_init>
10009700:	4620      	mov	r0, r4
10009702:	f001 fdab 	bl	1000b25c <tu_fifo_clear>
10009706:	4a26      	ldr	r2, [pc, #152]	@ (100097a0 <tud_rhport_init+0xdc>)
10009708:	4b26      	ldr	r3, [pc, #152]	@ (100097a4 <tud_rhport_init+0xe0>)
1000970a:	6014      	str	r4, [r2, #0]
1000970c:	b123      	cbz	r3, 10009718 <tud_rhport_init+0x54>
1000970e:	4826      	ldr	r0, [pc, #152]	@ (100097a8 <tud_rhport_init+0xe4>)
10009710:	f7ff fac4 	bl	10008c9c <usbd_app_driver_get_cb>
10009714:	4b25      	ldr	r3, [pc, #148]	@ (100097ac <tud_rhport_init+0xe8>)
10009716:	6018      	str	r0, [r3, #0]
10009718:	2400      	movs	r4, #0
1000971a:	4d23      	ldr	r5, [pc, #140]	@ (100097a8 <tud_rhport_init+0xe4>)
1000971c:	4623      	mov	r3, r4
1000971e:	782a      	ldrb	r2, [r5, #0]
10009720:	f8df 9090 	ldr.w	r9, [pc, #144]	@ 100097b4 <tud_rhport_init+0xf0>
10009724:	f8df 8084 	ldr.w	r8, [pc, #132]	@ 100097ac <tud_rhport_init+0xe8>
10009728:	e00e      	b.n	10009748 <tud_rhport_init+0x84>
1000972a:	f8d8 3000 	ldr.w	r3, [r8]
1000972e:	eb13 1344 	adds.w	r3, r3, r4, lsl #5
10009732:	d011      	beq.n	10009758 <tud_rhport_init+0x94>
10009734:	685b      	ldr	r3, [r3, #4]
10009736:	b17b      	cbz	r3, 10009758 <tud_rhport_init+0x94>
10009738:	4798      	blx	r3
1000973a:	782a      	ldrb	r2, [r5, #0]
1000973c:	3401      	adds	r4, #1
1000973e:	b2e4      	uxtb	r4, r4
10009740:	1c51      	adds	r1, r2, #1
10009742:	42a1      	cmp	r1, r4
10009744:	4623      	mov	r3, r4
10009746:	db11      	blt.n	1000976c <tud_rhport_init+0xa8>
10009748:	42a2      	cmp	r2, r4
1000974a:	d8ee      	bhi.n	1000972a <tud_rhport_init+0x66>
1000974c:	1a9b      	subs	r3, r3, r2
1000974e:	eb09 1343 	add.w	r3, r9, r3, lsl #5
10009752:	685b      	ldr	r3, [r3, #4]
10009754:	2b00      	cmp	r3, #0
10009756:	d1ef      	bne.n	10009738 <tud_rhport_init+0x74>
10009758:	f04f 23e0 	mov.w	r3, #3758153728	@ 0xe000e000
1000975c:	f8d3 3df0 	ldr.w	r3, [r3, #3568]	@ 0xdf0
10009760:	07db      	lsls	r3, r3, #31
10009762:	d500      	bpl.n	10009766 <tud_rhport_init+0xa2>
10009764:	be00      	bkpt	0x0000
10009766:	2000      	movs	r0, #0
10009768:	e8bd 87f0 	ldmia.w	sp!, {r4, r5, r6, r7, r8, r9, sl, pc}
1000976c:	4631      	mov	r1, r6
1000976e:	4638      	mov	r0, r7
10009770:	f88a 7000 	strb.w	r7, [sl]
10009774:	f7ff fdd0 	bl	10009318 <dcd_init>
10009778:	2800      	cmp	r0, #0
1000977a:	d0ed      	beq.n	10009758 <tud_rhport_init+0x94>
1000977c:	4638      	mov	r0, r7
1000977e:	f7ff fe11 	bl	100093a4 <dcd_int_enable>
10009782:	2001      	movs	r0, #1
10009784:	e8bd 87f0 	ldmia.w	sp!, {r4, r5, r6, r7, r8, r9, sl, pc}
10009788:	20001d84 	.word	0x20001d84
1000978c:	20001d7c 	.word	0x20001d7c
10009790:	20002656 	.word	0x20002656
10009794:	20001dd8 	.word	0x20001dd8
10009798:	20001340 	.word	0x20001340
1000979c:	2000132c 	.word	0x2000132c
100097a0:	20001ddc 	.word	0x20001ddc
100097a4:	10008c9d 	.word	0x10008c9d
100097a8:	20002654 	.word	0x20002654
100097ac:	20001bb4 	.word	0x20001bb4
100097b0:	20001348 	.word	0x20001348
100097b4:	100258b4 	.word	0x100258b4

100097b8 <tud_task_ext>:
100097b8:	e92d 4ff0 	stmdb	sp!, {r4, r5, r6, r7, r8, r9, sl, fp, lr}
100097bc:	f8df 92c8 	ldr.w	r9, [pc, #712]	@ 10009a88 <tud_task_ext+0x2d0>
100097c0:	b08b      	sub	sp, #44	@ 0x2c
100097c2:	f899 3000 	ldrb.w	r3, [r9]
100097c6:	2bff      	cmp	r3, #255	@ 0xff
100097c8:	f000 80f1 	beq.w	100099ae <tud_task_ext+0x1f6>
100097cc:	4ca8      	ldr	r4, [pc, #672]	@ (10009a70 <tud_task_ext+0x2b8>)
100097ce:	4da9      	ldr	r5, [pc, #676]	@ (10009a74 <tud_task_ext+0x2bc>)
100097d0:	f8df a2b0 	ldr.w	sl, [pc, #688]	@ 10009a84 <tud_task_ext+0x2cc>
100097d4:	f8df b2b4 	ldr.w	fp, [pc, #692]	@ 10009a8c <tud_task_ext+0x2d4>
100097d8:	6826      	ldr	r6, [r4, #0]
100097da:	6973      	ldr	r3, [r6, #20]
100097dc:	f3ef 8210 	mrs	r2, PRIMASK
100097e0:	b672      	cpsid	i
100097e2:	e8d3 0fcf 	ldaexb	r0, [r3]
100097e6:	2101      	movs	r1, #1
100097e8:	2800      	cmp	r0, #0
100097ea:	d1fa      	bne.n	100097e2 <tud_task_ext+0x2a>
100097ec:	e8c3 1f40 	strexb	r0, r1, [r3]
100097f0:	2800      	cmp	r0, #0
100097f2:	d1f6      	bne.n	100097e2 <tud_task_ext+0x2a>
100097f4:	f3bf 8f5f 	dmb	sy
100097f8:	61b2      	str	r2, [r6, #24]
100097fa:	4630      	mov	r0, r6
100097fc:	a907      	add	r1, sp, #28
100097fe:	f001 fb77 	bl	1000aef0 <tu_fifo_read>
10009802:	2300      	movs	r3, #0
10009804:	6972      	ldr	r2, [r6, #20]
10009806:	e8c2 3f8f 	stlb	r3, [r2]
1000980a:	69b3      	ldr	r3, [r6, #24]
1000980c:	f383 8810 	msr	PRIMASK, r3
10009810:	2800      	cmp	r0, #0
10009812:	f000 80cc 	beq.w	100099ae <tud_task_ext+0x1f6>
10009816:	f89d 301d 	ldrb.w	r3, [sp, #29]
1000981a:	3b01      	subs	r3, #1
1000981c:	2b07      	cmp	r3, #7
1000981e:	f200 837d 	bhi.w	10009f1c <tud_task_ext+0x764>
10009822:	e8df f003 	tbb	[pc, r3]
10009826:	b1a7      	.short	0xb1a7
10009828:	358e9d95 	.word	0x358e9d95
1000982c:	040a      	.short	0x040a
1000982e:	9b08      	ldr	r3, [sp, #32]
10009830:	2b00      	cmp	r3, #0
10009832:	d0d1      	beq.n	100097d8 <tud_task_ext+0x20>
10009834:	9809      	ldr	r0, [sp, #36]	@ 0x24
10009836:	4798      	blx	r3
10009838:	e7ce      	b.n	100097d8 <tud_task_ext+0x20>
1000983a:	f89d 1020 	ldrb.w	r1, [sp, #32]
1000983e:	f001 067f 	and.w	r6, r1, #127	@ 0x7f
10009842:	eb05 0046 	add.w	r0, r5, r6, lsl #1
10009846:	eb00 10d1 	add.w	r0, r0, r1, lsr #7
1000984a:	f890 3034 	ldrb.w	r3, [r0, #52]	@ 0x34
1000984e:	f023 0301 	bic.w	r3, r3, #1
10009852:	f880 3034 	strb.w	r3, [r0, #52]	@ 0x34
10009856:	f890 3034 	ldrb.w	r3, [r0, #52]	@ 0x34
1000985a:	f023 0304 	bic.w	r3, r3, #4
1000985e:	f880 3034 	strb.w	r3, [r0, #52]	@ 0x34
10009862:	2e00      	cmp	r6, #0
10009864:	f000 80a6 	beq.w	100099b4 <tud_task_ext+0x1fc>
10009868:	7d03      	ldrb	r3, [r0, #20]
1000986a:	f89a 2000 	ldrb.w	r2, [sl]
1000986e:	4293      	cmp	r3, r2
10009870:	f080 8093 	bcs.w	1000999a <tud_task_ext+0x1e2>
10009874:	4a80      	ldr	r2, [pc, #512]	@ (10009a78 <tud_task_ext+0x2c0>)
10009876:	6812      	ldr	r2, [r2, #0]
10009878:	eb12 1343 	adds.w	r3, r2, r3, lsl #5
1000987c:	f000 8090 	beq.w	100099a0 <tud_task_ext+0x1e8>
10009880:	699e      	ldr	r6, [r3, #24]
10009882:	f89d 2021 	ldrb.w	r2, [sp, #33]	@ 0x21
10009886:	9b09      	ldr	r3, [sp, #36]	@ 0x24
10009888:	f89d 001c 	ldrb.w	r0, [sp, #28]
1000988c:	47b0      	blx	r6
1000988e:	e7a3      	b.n	100097d8 <tud_task_ext+0x20>
10009890:	f89b 3000 	ldrb.w	r3, [fp]
10009894:	2b00      	cmp	r3, #0
10009896:	f000 8083 	beq.w	100099a0 <tud_task_ext+0x1e8>
1000989a:	f89b 3000 	ldrb.w	r3, [fp]
1000989e:	3b01      	subs	r3, #1
100098a0:	b2db      	uxtb	r3, r3
100098a2:	f88b 3000 	strb.w	r3, [fp]
100098a6:	f89b 3000 	ldrb.w	r3, [fp]
100098aa:	f003 00ff 	and.w	r0, r3, #255	@ 0xff
100098ae:	2b00      	cmp	r3, #0
100098b0:	d192      	bne.n	100097d8 <tud_task_ext+0x20>
100098b2:	4f70      	ldr	r7, [pc, #448]	@ (10009a74 <tud_task_ext+0x2bc>)
100098b4:	f89d 801c 	ldrb.w	r8, [sp, #28]
100098b8:	783b      	ldrb	r3, [r7, #0]
100098ba:	f043 0301 	orr.w	r3, r3, #1
100098be:	703b      	strb	r3, [r7, #0]
100098c0:	f897 3034 	ldrb.w	r3, [r7, #52]	@ 0x34
100098c4:	f360 0300 	bfi	r3, r0, #0, #1
100098c8:	f887 3034 	strb.w	r3, [r7, #52]	@ 0x34
100098cc:	f897 3034 	ldrb.w	r3, [r7, #52]	@ 0x34
100098d0:	f360 0382 	bfi	r3, r0, #2, #1
100098d4:	f887 3034 	strb.w	r3, [r7, #52]	@ 0x34
100098d8:	f897 3035 	ldrb.w	r3, [r7, #53]	@ 0x35
100098dc:	f360 0300 	bfi	r3, r0, #0, #1
100098e0:	f887 3035 	strb.w	r3, [r7, #53]	@ 0x35
100098e4:	f897 3035 	ldrb.w	r3, [r7, #53]	@ 0x35
100098e8:	f360 0382 	bfi	r3, r0, #2, #1
100098ec:	f887 3035 	strb.w	r3, [r7, #53]	@ 0x35
100098f0:	f000 fc6c 	bl	1000a1cc <usbd_control_set_complete_callback>
100098f4:	f89d 3020 	ldrb.w	r3, [sp, #32]
100098f8:	f003 0260 	and.w	r2, r3, #96	@ 0x60
100098fc:	2a60      	cmp	r2, #96	@ 0x60
100098fe:	d06c      	beq.n	100099da <tud_task_ext+0x222>
10009900:	2a40      	cmp	r2, #64	@ 0x40
10009902:	d07c      	beq.n	100099fe <tud_task_ext+0x246>
10009904:	f003 031f 	and.w	r3, r3, #31
10009908:	2b01      	cmp	r3, #1
1000990a:	f000 80c1 	beq.w	10009a90 <tud_task_ext+0x2d8>
1000990e:	2b02      	cmp	r3, #2
10009910:	f000 8081 	beq.w	10009a16 <tud_task_ext+0x25e>
10009914:	2b00      	cmp	r3, #0
10009916:	d160      	bne.n	100099da <tud_task_ext+0x222>
10009918:	2a20      	cmp	r2, #32
1000991a:	f000 81e9 	beq.w	10009cf0 <tud_task_ext+0x538>
1000991e:	2a00      	cmp	r2, #0
10009920:	d15b      	bne.n	100099da <tud_task_ext+0x222>
10009922:	f89d 3021 	ldrb.w	r3, [sp, #33]	@ 0x21
10009926:	2b09      	cmp	r3, #9
10009928:	d857      	bhi.n	100099da <tud_task_ext+0x222>
1000992a:	e8df f013 	tbh	[pc, r3, lsl #1]
1000992e:	01b0      	.short	0x01b0
10009930:	005601a2 	.word	0x005601a2
10009934:	005601c1 	.word	0x005601c1
10009938:	016b0195 	.word	0x016b0195
1000993c:	01600056 	.word	0x01600056
10009940:	00f4      	.short	0x00f4
10009942:	782b      	ldrb	r3, [r5, #0]
10009944:	07d9      	lsls	r1, r3, #31
10009946:	f57f af47 	bpl.w	100097d8 <tud_task_ext+0x20>
1000994a:	f7ff fea9 	bl	100096a0 <tud_resume_cb>
1000994e:	e743      	b.n	100097d8 <tud_task_ext+0x20>
10009950:	78eb      	ldrb	r3, [r5, #3]
10009952:	07da      	lsls	r2, r3, #31
10009954:	f57f af40 	bpl.w	100097d8 <tud_task_ext+0x20>
10009958:	9808      	ldr	r0, [sp, #32]
1000995a:	f7ff fe95 	bl	10009688 <tud_sof_cb>
1000995e:	e73b      	b.n	100097d8 <tud_task_ext+0x20>
10009960:	782b      	ldrb	r3, [r5, #0]
10009962:	07d8      	lsls	r0, r3, #31
10009964:	f57f af38 	bpl.w	100097d8 <tud_task_ext+0x20>
10009968:	7828      	ldrb	r0, [r5, #0]
1000996a:	f3c0 00c0 	ubfx	r0, r0, #3, #1
1000996e:	f7ff fe95 	bl	1000969c <tud_suspend_cb>
10009972:	e731      	b.n	100097d8 <tud_task_ext+0x20>
10009974:	f89d 001c 	ldrb.w	r0, [sp, #28]
10009978:	f7ff fe3e 	bl	100095f8 <configuration_reset>
1000997c:	f000 fc1c 	bl	1000a1b8 <usbd_control_reset>
10009980:	f89d 3020 	ldrb.w	r3, [sp, #32]
10009984:	70ab      	strb	r3, [r5, #2]
10009986:	e727      	b.n	100097d8 <tud_task_ext+0x20>
10009988:	f89d 001c 	ldrb.w	r0, [sp, #28]
1000998c:	f7ff fe34 	bl	100095f8 <configuration_reset>
10009990:	f000 fc12 	bl	1000a1b8 <usbd_control_reset>
10009994:	f7ff fe80 	bl	10009698 <tud_umount_cb>
10009998:	e71e      	b.n	100097d8 <tud_task_ext+0x20>
1000999a:	1c50      	adds	r0, r2, #1
1000999c:	4298      	cmp	r0, r3
1000999e:	da11      	bge.n	100099c4 <tud_task_ext+0x20c>
100099a0:	f04f 23e0 	mov.w	r3, #3758153728	@ 0xe000e000
100099a4:	f8d3 3df0 	ldr.w	r3, [r3, #3568]	@ 0xdf0
100099a8:	07dc      	lsls	r4, r3, #31
100099aa:	d500      	bpl.n	100099ae <tud_task_ext+0x1f6>
100099ac:	be00      	bkpt	0x0000
100099ae:	b00b      	add	sp, #44	@ 0x2c
100099b0:	e8bd 8ff0 	ldmia.w	sp!, {r4, r5, r6, r7, r8, r9, sl, fp, pc}
100099b4:	9b09      	ldr	r3, [sp, #36]	@ 0x24
100099b6:	f89d 2021 	ldrb.w	r2, [sp, #33]	@ 0x21
100099ba:	f89d 001c 	ldrb.w	r0, [sp, #28]
100099be:	f000 fc19 	bl	1000a1f4 <usbd_control_xfer_cb>
100099c2:	e709      	b.n	100097d8 <tud_task_ext+0x20>
100099c4:	1a9b      	subs	r3, r3, r2
100099c6:	4a2d      	ldr	r2, [pc, #180]	@ (10009a7c <tud_task_ext+0x2c4>)
100099c8:	eb02 1343 	add.w	r3, r2, r3, lsl #5
100099cc:	e758      	b.n	10009880 <tud_task_ext+0xc8>
100099ce:	f7ff fb8d 	bl	100090ec <tud_descriptor_configuration_cb>
100099d2:	4602      	mov	r2, r0
100099d4:	2800      	cmp	r0, #0
100099d6:	f040 8182 	bne.w	10009cde <tud_task_ext+0x526>
100099da:	f04f 23e0 	mov.w	r3, #3758153728	@ 0xe000e000
100099de:	f8d3 3df0 	ldr.w	r3, [r3, #3568]	@ 0xdf0
100099e2:	07de      	lsls	r6, r3, #31
100099e4:	d500      	bpl.n	100099e8 <tud_task_ext+0x230>
100099e6:	be00      	bkpt	0x0000
100099e8:	f89d 001c 	ldrb.w	r0, [sp, #28]
100099ec:	2100      	movs	r1, #0
100099ee:	f7ff fd99 	bl	10009524 <dcd_edpt_stall>
100099f2:	2180      	movs	r1, #128	@ 0x80
100099f4:	f89d 001c 	ldrb.w	r0, [sp, #28]
100099f8:	f7ff fd94 	bl	10009524 <dcd_edpt_stall>
100099fc:	e6ec      	b.n	100097d8 <tud_task_ext+0x20>
100099fe:	4820      	ldr	r0, [pc, #128]	@ (10009a80 <tud_task_ext+0x2c8>)
10009a00:	f000 fbe4 	bl	1000a1cc <usbd_control_set_complete_callback>
10009a04:	2101      	movs	r1, #1
10009a06:	4640      	mov	r0, r8
10009a08:	aa08      	add	r2, sp, #32
10009a0a:	f7ff f933 	bl	10008c74 <tud_vendor_control_xfer_cb>
10009a0e:	2800      	cmp	r0, #0
10009a10:	f47f aee2 	bne.w	100097d8 <tud_task_ext+0x20>
10009a14:	e7e8      	b.n	100099e8 <tud_task_ext+0x230>
10009a16:	f89d 1024 	ldrb.w	r1, [sp, #36]	@ 0x24
10009a1a:	f011 0f70 	tst.w	r1, #112	@ 0x70
10009a1e:	d1dc      	bne.n	100099da <tud_task_ext+0x222>
10009a20:	f001 067f 	and.w	r6, r1, #127	@ 0x7f
10009a24:	eb07 0046 	add.w	r0, r7, r6, lsl #1
10009a28:	4b16      	ldr	r3, [pc, #88]	@ (10009a84 <tud_task_ext+0x2cc>)
10009a2a:	eb00 10d1 	add.w	r0, r0, r1, lsr #7
10009a2e:	781b      	ldrb	r3, [r3, #0]
10009a30:	7d00      	ldrb	r0, [r0, #20]
10009a32:	0076      	lsls	r6, r6, #1
10009a34:	9601      	str	r6, [sp, #4]
10009a36:	4298      	cmp	r0, r3
10009a38:	ea4f 16d1 	mov.w	r6, r1, lsr #7
10009a3c:	9600      	str	r6, [sp, #0]
10009a3e:	d359      	bcc.n	10009af4 <tud_task_ext+0x33c>
10009a40:	1c5e      	adds	r6, r3, #1
10009a42:	4286      	cmp	r6, r0
10009a44:	f2c0 8166 	blt.w	10009d14 <tud_task_ext+0x55c>
10009a48:	1ac0      	subs	r0, r0, r3
10009a4a:	4b0c      	ldr	r3, [pc, #48]	@ (10009a7c <tud_task_ext+0x2c4>)
10009a4c:	eb03 1640 	add.w	r6, r3, r0, lsl #5
10009a50:	2a00      	cmp	r2, #0
10009a52:	f000 8163 	beq.w	10009d1c <tud_task_ext+0x564>
10009a56:	6970      	ldr	r0, [r6, #20]
10009a58:	f000 fbb8 	bl	1000a1cc <usbd_control_set_complete_callback>
10009a5c:	2101      	movs	r1, #1
10009a5e:	4640      	mov	r0, r8
10009a60:	6973      	ldr	r3, [r6, #20]
10009a62:	aa08      	add	r2, sp, #32
10009a64:	4798      	blx	r3
10009a66:	2800      	cmp	r0, #0
10009a68:	f47f aeb6 	bne.w	100097d8 <tud_task_ext+0x20>
10009a6c:	e7bc      	b.n	100099e8 <tud_task_ext+0x230>
10009a6e:	bf00      	nop
10009a70:	20001ddc 	.word	0x20001ddc
10009a74:	20001d84 	.word	0x20001d84
10009a78:	20001bb4 	.word	0x20001bb4
10009a7c:	100258b4 	.word	0x100258b4
10009a80:	10008c75 	.word	0x10008c75
10009a84:	20002654 	.word	0x20002654
10009a88:	20001348 	.word	0x20001348
10009a8c:	20002656 	.word	0x20002656
10009a90:	f89d 3024 	ldrb.w	r3, [sp, #36]	@ 0x24
10009a94:	2b0f      	cmp	r3, #15
10009a96:	d8a7      	bhi.n	100099e8 <tud_task_ext+0x230>
10009a98:	4aae      	ldr	r2, [pc, #696]	@ (10009d54 <tud_task_ext+0x59c>)
10009a9a:	443b      	add	r3, r7
10009a9c:	791b      	ldrb	r3, [r3, #4]
10009a9e:	7812      	ldrb	r2, [r2, #0]
10009aa0:	4293      	cmp	r3, r2
10009aa2:	d332      	bcc.n	10009b0a <tud_task_ext+0x352>
10009aa4:	1c51      	adds	r1, r2, #1
10009aa6:	4299      	cmp	r1, r3
10009aa8:	db9e      	blt.n	100099e8 <tud_task_ext+0x230>
10009aaa:	4eab      	ldr	r6, [pc, #684]	@ (10009d58 <tud_task_ext+0x5a0>)
10009aac:	1a9b      	subs	r3, r3, r2
10009aae:	eb06 1643 	add.w	r6, r6, r3, lsl #5
10009ab2:	6970      	ldr	r0, [r6, #20]
10009ab4:	f000 fb8a 	bl	1000a1cc <usbd_control_set_complete_callback>
10009ab8:	2101      	movs	r1, #1
10009aba:	4640      	mov	r0, r8
10009abc:	6973      	ldr	r3, [r6, #20]
10009abe:	aa08      	add	r2, sp, #32
10009ac0:	4798      	blx	r3
10009ac2:	2800      	cmp	r0, #0
10009ac4:	f47f ae88 	bne.w	100097d8 <tud_task_ext+0x20>
10009ac8:	f89d 3020 	ldrb.w	r3, [sp, #32]
10009acc:	f013 0660 	ands.w	r6, r3, #96	@ 0x60
10009ad0:	d18a      	bne.n	100099e8 <tud_task_ext+0x230>
10009ad2:	f89d 3021 	ldrb.w	r3, [sp, #33]	@ 0x21
10009ad6:	3b0a      	subs	r3, #10
10009ad8:	2b01      	cmp	r3, #1
10009ada:	d885      	bhi.n	100099e8 <tud_task_ext+0x230>
10009adc:	f000 fb76 	bl	1000a1cc <usbd_control_set_complete_callback>
10009ae0:	f89d 3021 	ldrb.w	r3, [sp, #33]	@ 0x21
10009ae4:	2b0a      	cmp	r3, #10
10009ae6:	f000 81f2 	beq.w	10009ece <tud_task_ext+0x716>
10009aea:	4640      	mov	r0, r8
10009aec:	a908      	add	r1, sp, #32
10009aee:	f000 faf1 	bl	1000a0d4 <tud_control_status>
10009af2:	e671      	b.n	100097d8 <tud_task_ext+0x20>
10009af4:	4b99      	ldr	r3, [pc, #612]	@ (10009d5c <tud_task_ext+0x5a4>)
10009af6:	681b      	ldr	r3, [r3, #0]
10009af8:	eb03 1640 	add.w	r6, r3, r0, lsl #5
10009afc:	2a00      	cmp	r2, #0
10009afe:	f000 810d 	beq.w	10009d1c <tud_task_ext+0x564>
10009b02:	2e00      	cmp	r6, #0
10009b04:	f43f af70 	beq.w	100099e8 <tud_task_ext+0x230>
10009b08:	e7a5      	b.n	10009a56 <tud_task_ext+0x29e>
10009b0a:	4a94      	ldr	r2, [pc, #592]	@ (10009d5c <tud_task_ext+0x5a4>)
10009b0c:	6816      	ldr	r6, [r2, #0]
10009b0e:	eb16 1643 	adds.w	r6, r6, r3, lsl #5
10009b12:	d1ce      	bne.n	10009ab2 <tud_task_ext+0x2fa>
10009b14:	e768      	b.n	100099e8 <tud_task_ext+0x230>
10009b16:	787b      	ldrb	r3, [r7, #1]
10009b18:	f89d 6022 	ldrb.w	r6, [sp, #34]	@ 0x22
10009b1c:	429e      	cmp	r6, r3
10009b1e:	f000 814f 	beq.w	10009dc0 <tud_task_ext+0x608>
10009b22:	787b      	ldrb	r3, [r7, #1]
10009b24:	2b00      	cmp	r3, #0
10009b26:	f040 81be 	bne.w	10009ea6 <tud_task_ext+0x6ee>
10009b2a:	707e      	strb	r6, [r7, #1]
10009b2c:	2e00      	cmp	r6, #0
10009b2e:	f000 8145 	beq.w	10009dbc <tud_task_ext+0x604>
10009b32:	1e70      	subs	r0, r6, #1
10009b34:	b2c0      	uxtb	r0, r0
10009b36:	f7ff fad9 	bl	100090ec <tud_descriptor_configuration_cb>
10009b3a:	4603      	mov	r3, r0
10009b3c:	2800      	cmp	r0, #0
10009b3e:	f000 815f 	beq.w	10009e00 <tud_task_ext+0x648>
10009b42:	7842      	ldrb	r2, [r0, #1]
10009b44:	2a02      	cmp	r2, #2
10009b46:	f040 815b 	bne.w	10009e00 <tud_task_ext+0x648>
10009b4a:	79c1      	ldrb	r1, [r0, #7]
10009b4c:	f103 0609 	add.w	r6, r3, #9
10009b50:	f3c1 1240 	ubfx	r2, r1, #5, #1
10009b54:	0112      	lsls	r2, r2, #4
10009b56:	f3c1 1180 	ubfx	r1, r1, #6, #1
10009b5a:	ea42 1241 	orr.w	r2, r2, r1, lsl #5
10009b5e:	4631      	mov	r1, r6
10009b60:	7838      	ldrb	r0, [r7, #0]
10009b62:	f020 0030 	bic.w	r0, r0, #48	@ 0x30
10009b66:	4302      	orrs	r2, r0
10009b68:	703a      	strb	r2, [r7, #0]
10009b6a:	885a      	ldrh	r2, [r3, #2]
10009b6c:	f8cd 800c 	str.w	r8, [sp, #12]
10009b70:	189a      	adds	r2, r3, r2
10009b72:	9201      	str	r2, [sp, #4]
10009b74:	9b01      	ldr	r3, [sp, #4]
10009b76:	428b      	cmp	r3, r1
10009b78:	f240 81a4 	bls.w	10009ec4 <tud_task_ext+0x70c>
10009b7c:	784a      	ldrb	r2, [r1, #1]
10009b7e:	2a0b      	cmp	r2, #11
10009b80:	f000 81af 	beq.w	10009ee2 <tud_task_ext+0x72a>
10009b84:	2301      	movs	r3, #1
10009b86:	2a04      	cmp	r2, #4
10009b88:	f040 813a 	bne.w	10009e00 <tud_task_ext+0x648>
10009b8c:	2600      	movs	r6, #0
10009b8e:	9a01      	ldr	r2, [sp, #4]
10009b90:	9600      	str	r6, [sp, #0]
10009b92:	1a52      	subs	r2, r2, r1
10009b94:	b292      	uxth	r2, r2
10009b96:	9202      	str	r2, [sp, #8]
10009b98:	4a6e      	ldr	r2, [pc, #440]	@ (10009d54 <tud_task_ext+0x59c>)
10009b9a:	9304      	str	r3, [sp, #16]
10009b9c:	7812      	ldrb	r2, [r2, #0]
10009b9e:	e01d      	b.n	10009bdc <tud_task_ext+0x424>
10009ba0:	4b6e      	ldr	r3, [pc, #440]	@ (10009d5c <tud_task_ext+0x5a4>)
10009ba2:	681b      	ldr	r3, [r3, #0]
10009ba4:	eb13 1846 	adds.w	r8, r3, r6, lsl #5
10009ba8:	f000 812a 	beq.w	10009e00 <tud_task_ext+0x648>
10009bac:	9a02      	ldr	r2, [sp, #8]
10009bae:	f8d8 3010 	ldr.w	r3, [r8, #16]
10009bb2:	9803      	ldr	r0, [sp, #12]
10009bb4:	9105      	str	r1, [sp, #20]
10009bb6:	4798      	blx	r3
10009bb8:	2808      	cmp	r0, #8
10009bba:	4602      	mov	r2, r0
10009bbc:	9905      	ldr	r1, [sp, #20]
10009bbe:	f106 0301 	add.w	r3, r6, #1
10009bc2:	d903      	bls.n	10009bcc <tud_task_ext+0x414>
10009bc4:	9802      	ldr	r0, [sp, #8]
10009bc6:	4290      	cmp	r0, r2
10009bc8:	f080 80ff 	bcs.w	10009dca <tud_task_ext+0x612>
10009bcc:	b2de      	uxtb	r6, r3
10009bce:	4b61      	ldr	r3, [pc, #388]	@ (10009d54 <tud_task_ext+0x59c>)
10009bd0:	9600      	str	r6, [sp, #0]
10009bd2:	781a      	ldrb	r2, [r3, #0]
10009bd4:	1c53      	adds	r3, r2, #1
10009bd6:	429e      	cmp	r6, r3
10009bd8:	f300 8112 	bgt.w	10009e00 <tud_task_ext+0x648>
10009bdc:	9b00      	ldr	r3, [sp, #0]
10009bde:	42b2      	cmp	r2, r6
10009be0:	eba3 0202 	sub.w	r2, r3, r2
10009be4:	d8dc      	bhi.n	10009ba0 <tud_task_ext+0x3e8>
10009be6:	4b5c      	ldr	r3, [pc, #368]	@ (10009d58 <tud_task_ext+0x5a0>)
10009be8:	eb03 1842 	add.w	r8, r3, r2, lsl #5
10009bec:	e7de      	b.n	10009bac <tud_task_ext+0x3f4>
10009bee:	787b      	ldrb	r3, [r7, #1]
10009bf0:	4640      	mov	r0, r8
10009bf2:	f88d 301a 	strb.w	r3, [sp, #26]
10009bf6:	f10d 021a 	add.w	r2, sp, #26
10009bfa:	2301      	movs	r3, #1
10009bfc:	a908      	add	r1, sp, #32
10009bfe:	f000 fa83 	bl	1000a108 <tud_control_xfer>
10009c02:	e5e9      	b.n	100097d8 <tud_task_ext+0x20>
10009c04:	f8bd 0022 	ldrh.w	r0, [sp, #34]	@ 0x22
10009c08:	0a03      	lsrs	r3, r0, #8
10009c0a:	3b01      	subs	r3, #1
10009c0c:	0a02      	lsrs	r2, r0, #8
10009c0e:	b2c0      	uxtb	r0, r0
10009c10:	2b0e      	cmp	r3, #14
10009c12:	f63f aee9 	bhi.w	100099e8 <tud_task_ext+0x230>
10009c16:	a101      	add	r1, pc, #4	@ (adr r1, 10009c1c <tud_task_ext+0x464>)
10009c18:	f851 f023 	ldr.w	pc, [r1, r3, lsl #2]
10009c1c:	10009e31 	.word	0x10009e31
10009c20:	10009ccd 	.word	0x10009ccd
10009c24:	10009e6d 	.word	0x10009e6d
10009c28:	100099e9 	.word	0x100099e9
10009c2c:	100099e9 	.word	0x100099e9
10009c30:	10009e4f 	.word	0x10009e4f
10009c34:	10009ccd 	.word	0x10009ccd
10009c38:	100099e9 	.word	0x100099e9
10009c3c:	100099e9 	.word	0x100099e9
10009c40:	100099e9 	.word	0x100099e9
10009c44:	100099e9 	.word	0x100099e9
10009c48:	100099e9 	.word	0x100099e9
10009c4c:	100099e9 	.word	0x100099e9
10009c50:	100099e9 	.word	0x100099e9
10009c54:	10009e23 	.word	0x10009e23
10009c58:	a808      	add	r0, sp, #32
10009c5a:	f000 fabd 	bl	1000a1d8 <usbd_control_set_request>
10009c5e:	4640      	mov	r0, r8
10009c60:	f89d 1022 	ldrb.w	r1, [sp, #34]	@ 0x22
10009c64:	f7ff fba2 	bl	100093ac <dcd_set_address>
10009c68:	783b      	ldrb	r3, [r7, #0]
10009c6a:	f043 0302 	orr.w	r3, r3, #2
10009c6e:	703b      	strb	r3, [r7, #0]
10009c70:	e5b2      	b.n	100097d8 <tud_task_ext+0x20>
10009c72:	f8bd 3022 	ldrh.w	r3, [sp, #34]	@ 0x22
10009c76:	2b01      	cmp	r3, #1
10009c78:	f47f aeb6 	bne.w	100099e8 <tud_task_ext+0x230>
10009c7c:	783b      	ldrb	r3, [r7, #0]
10009c7e:	4640      	mov	r0, r8
10009c80:	f023 0308 	bic.w	r3, r3, #8
10009c84:	a908      	add	r1, sp, #32
10009c86:	703b      	strb	r3, [r7, #0]
10009c88:	f000 fa24 	bl	1000a0d4 <tud_control_status>
10009c8c:	e5a4      	b.n	100097d8 <tud_task_ext+0x20>
10009c8e:	4640      	mov	r0, r8
10009c90:	783b      	ldrb	r3, [r7, #0]
10009c92:	089a      	lsrs	r2, r3, #2
10009c94:	f002 0202 	and.w	r2, r2, #2
10009c98:	f3c3 1340 	ubfx	r3, r3, #5, #1
10009c9c:	4313      	orrs	r3, r2
10009c9e:	f8ad 301a 	strh.w	r3, [sp, #26]
10009ca2:	f10d 021a 	add.w	r2, sp, #26
10009ca6:	2302      	movs	r3, #2
10009ca8:	a908      	add	r1, sp, #32
10009caa:	f000 fa2d 	bl	1000a108 <tud_control_xfer>
10009cae:	e593      	b.n	100097d8 <tud_task_ext+0x20>
10009cb0:	f8bd 3022 	ldrh.w	r3, [sp, #34]	@ 0x22
10009cb4:	2b01      	cmp	r3, #1
10009cb6:	f47f ae97 	bne.w	100099e8 <tud_task_ext+0x230>
10009cba:	783b      	ldrb	r3, [r7, #0]
10009cbc:	4640      	mov	r0, r8
10009cbe:	f043 0308 	orr.w	r3, r3, #8
10009cc2:	a908      	add	r1, sp, #32
10009cc4:	703b      	strb	r3, [r7, #0]
10009cc6:	f000 fa05 	bl	1000a0d4 <tud_control_status>
10009cca:	e585      	b.n	100097d8 <tud_task_ext+0x20>
10009ccc:	2a02      	cmp	r2, #2
10009cce:	f43f ae7e 	beq.w	100099ce <tud_task_ext+0x216>
10009cd2:	f7ff fcdd 	bl	10009690 <tud_descriptor_other_speed_configuration_cb>
10009cd6:	4602      	mov	r2, r0
10009cd8:	2800      	cmp	r0, #0
10009cda:	f43f ae85 	beq.w	100099e8 <tud_task_ext+0x230>
10009cde:	4640      	mov	r0, r8
10009ce0:	8853      	ldrh	r3, [r2, #2]
10009ce2:	a908      	add	r1, sp, #32
10009ce4:	f000 fa10 	bl	1000a108 <tud_control_xfer>
10009ce8:	2800      	cmp	r0, #0
10009cea:	f47f ad75 	bne.w	100097d8 <tud_task_ext+0x20>
10009cee:	e67b      	b.n	100099e8 <tud_task_ext+0x230>
10009cf0:	f89d 3024 	ldrb.w	r3, [sp, #36]	@ 0x24
10009cf4:	2b0f      	cmp	r3, #15
10009cf6:	f63f ae77 	bhi.w	100099e8 <tud_task_ext+0x230>
10009cfa:	4a16      	ldr	r2, [pc, #88]	@ (10009d54 <tud_task_ext+0x59c>)
10009cfc:	443b      	add	r3, r7
10009cfe:	791b      	ldrb	r3, [r3, #4]
10009d00:	7812      	ldrb	r2, [r2, #0]
10009d02:	4293      	cmp	r3, r2
10009d04:	d21d      	bcs.n	10009d42 <tud_task_ext+0x58a>
10009d06:	4a15      	ldr	r2, [pc, #84]	@ (10009d5c <tud_task_ext+0x5a4>)
10009d08:	6816      	ldr	r6, [r2, #0]
10009d0a:	eb16 1643 	adds.w	r6, r6, r3, lsl #5
10009d0e:	f47f aea2 	bne.w	10009a56 <tud_task_ext+0x29e>
10009d12:	e669      	b.n	100099e8 <tud_task_ext+0x230>
10009d14:	2a00      	cmp	r2, #0
10009d16:	f47f ae67 	bne.w	100099e8 <tud_task_ext+0x230>
10009d1a:	2600      	movs	r6, #0
10009d1c:	f89d 2021 	ldrb.w	r2, [sp, #33]	@ 0x21
10009d20:	f002 03fd 	and.w	r3, r2, #253	@ 0xfd
10009d24:	2b01      	cmp	r3, #1
10009d26:	d01b      	beq.n	10009d60 <tud_task_ext+0x5a8>
10009d28:	2a00      	cmp	r2, #0
10009d2a:	f47f ae56 	bne.w	100099da <tud_task_ext+0x222>
10009d2e:	9b01      	ldr	r3, [sp, #4]
10009d30:	9a00      	ldr	r2, [sp, #0]
10009d32:	443b      	add	r3, r7
10009d34:	4413      	add	r3, r2
10009d36:	f893 3034 	ldrb.w	r3, [r3, #52]	@ 0x34
10009d3a:	4640      	mov	r0, r8
10009d3c:	f3c3 0340 	ubfx	r3, r3, #1, #1
10009d40:	e7ad      	b.n	10009c9e <tud_task_ext+0x4e6>
10009d42:	1c51      	adds	r1, r2, #1
10009d44:	4299      	cmp	r1, r3
10009d46:	f6ff ae4f 	blt.w	100099e8 <tud_task_ext+0x230>
10009d4a:	4e03      	ldr	r6, [pc, #12]	@ (10009d58 <tud_task_ext+0x5a0>)
10009d4c:	1a9b      	subs	r3, r3, r2
10009d4e:	eb06 1643 	add.w	r6, r6, r3, lsl #5
10009d52:	e680      	b.n	10009a56 <tud_task_ext+0x29e>
10009d54:	20002654 	.word	0x20002654
10009d58:	100258b4 	.word	0x100258b4
10009d5c:	20001bb4 	.word	0x20001bb4
10009d60:	f8bd 3022 	ldrh.w	r3, [sp, #34]	@ 0x22
10009d64:	b9b3      	cbnz	r3, 10009d94 <tud_task_ext+0x5dc>
10009d66:	2a01      	cmp	r2, #1
10009d68:	f899 0000 	ldrb.w	r0, [r9]
10009d6c:	f000 8086 	beq.w	10009e7c <tud_task_ext+0x6c4>
10009d70:	f7ff fbd8 	bl	10009524 <dcd_edpt_stall>
10009d74:	9b01      	ldr	r3, [sp, #4]
10009d76:	9a00      	ldr	r2, [sp, #0]
10009d78:	443b      	add	r3, r7
10009d7a:	4413      	add	r3, r2
10009d7c:	f893 2034 	ldrb.w	r2, [r3, #52]	@ 0x34
10009d80:	f042 0202 	orr.w	r2, r2, #2
10009d84:	f883 2034 	strb.w	r2, [r3, #52]	@ 0x34
10009d88:	f893 2034 	ldrb.w	r2, [r3, #52]	@ 0x34
10009d8c:	f042 0201 	orr.w	r2, r2, #1
10009d90:	f883 2034 	strb.w	r2, [r3, #52]	@ 0x34
10009d94:	2e00      	cmp	r6, #0
10009d96:	f43f ad1f 	beq.w	100097d8 <tud_task_ext+0x20>
10009d9a:	6970      	ldr	r0, [r6, #20]
10009d9c:	f000 fa16 	bl	1000a1cc <usbd_control_set_complete_callback>
10009da0:	6973      	ldr	r3, [r6, #20]
10009da2:	2101      	movs	r1, #1
10009da4:	aa08      	add	r2, sp, #32
10009da6:	4640      	mov	r0, r8
10009da8:	4798      	blx	r3
10009daa:	2000      	movs	r0, #0
10009dac:	f000 fa0e 	bl	1000a1cc <usbd_control_set_complete_callback>
10009db0:	f897 3035 	ldrb.w	r3, [r7, #53]	@ 0x35
10009db4:	07df      	lsls	r7, r3, #31
10009db6:	f53f ad0f 	bmi.w	100097d8 <tud_task_ext+0x20>
10009dba:	e696      	b.n	10009aea <tud_task_ext+0x332>
10009dbc:	f7ff fc6c 	bl	10009698 <tud_umount_cb>
10009dc0:	4640      	mov	r0, r8
10009dc2:	a908      	add	r1, sp, #32
10009dc4:	f000 f986 	bl	1000a0d4 <tud_control_status>
10009dc8:	e506      	b.n	100097d8 <tud_task_ext+0x20>
10009dca:	9b04      	ldr	r3, [sp, #16]
10009dcc:	2b01      	cmp	r3, #1
10009dce:	f000 809e 	beq.w	10009f0e <tud_task_ext+0x756>
10009dd2:	2b00      	cmp	r3, #0
10009dd4:	f000 808a 	beq.w	10009eec <tud_task_ext+0x734>
10009dd8:	2000      	movs	r0, #0
10009dda:	f891 8002 	ldrb.w	r8, [r1, #2]
10009dde:	e005      	b.n	10009dec <tud_task_ext+0x634>
10009de0:	f88c 6004 	strb.w	r6, [ip, #4]
10009de4:	fa5f fc80 	uxtb.w	ip, r0
10009de8:	4563      	cmp	r3, ip
10009dea:	d97f      	bls.n	10009eec <tud_task_ext+0x734>
10009dec:	eb08 0c00 	add.w	ip, r8, r0
10009df0:	fa57 fc8c 	uxtab	ip, r7, ip
10009df4:	f89c e004 	ldrb.w	lr, [ip, #4]
10009df8:	3001      	adds	r0, #1
10009dfa:	f1be 0fff 	cmp.w	lr, #255	@ 0xff
10009dfe:	d0ef      	beq.n	10009de0 <tud_task_ext+0x628>
10009e00:	f04f 23e0 	mov.w	r3, #3758153728	@ 0xe000e000
10009e04:	f8d3 3df0 	ldr.w	r3, [r3, #3568]	@ 0xdf0
10009e08:	07da      	lsls	r2, r3, #31
10009e0a:	d500      	bpl.n	10009e0e <tud_task_ext+0x656>
10009e0c:	be00      	bkpt	0x0000
10009e0e:	f04f 23e0 	mov.w	r3, #3758153728	@ 0xe000e000
10009e12:	f8d3 3df0 	ldr.w	r3, [r3, #3568]	@ 0xdf0
10009e16:	07db      	lsls	r3, r3, #31
10009e18:	d500      	bpl.n	10009e1c <tud_task_ext+0x664>
10009e1a:	be00      	bkpt	0x0000
10009e1c:	2300      	movs	r3, #0
10009e1e:	707b      	strb	r3, [r7, #1]
10009e20:	e5e2      	b.n	100099e8 <tud_task_ext+0x230>
10009e22:	f7fe ff23 	bl	10008c6c <tud_descriptor_bos_cb>
10009e26:	4602      	mov	r2, r0
10009e28:	2800      	cmp	r0, #0
10009e2a:	f47f af58 	bne.w	10009cde <tud_task_ext+0x526>
10009e2e:	e5db      	b.n	100099e8 <tud_task_ext+0x230>
10009e30:	f7ff f958 	bl	100090e4 <tud_descriptor_device_cb>
10009e34:	4602      	mov	r2, r0
10009e36:	2800      	cmp	r0, #0
10009e38:	f43f adcf 	beq.w	100099da <tud_task_ext+0x222>
10009e3c:	4640      	mov	r0, r8
10009e3e:	2312      	movs	r3, #18
10009e40:	a908      	add	r1, sp, #32
10009e42:	f000 f961 	bl	1000a108 <tud_control_xfer>
10009e46:	2800      	cmp	r0, #0
10009e48:	f47f acc6 	bne.w	100097d8 <tud_task_ext+0x20>
10009e4c:	e5cc      	b.n	100099e8 <tud_task_ext+0x230>
10009e4e:	f7ff fc1d 	bl	1000968c <tud_descriptor_device_qualifier_cb>
10009e52:	4602      	mov	r2, r0
10009e54:	2800      	cmp	r0, #0
10009e56:	f43f adc7 	beq.w	100099e8 <tud_task_ext+0x230>
10009e5a:	4640      	mov	r0, r8
10009e5c:	7813      	ldrb	r3, [r2, #0]
10009e5e:	a908      	add	r1, sp, #32
10009e60:	f000 f952 	bl	1000a108 <tud_control_xfer>
10009e64:	2800      	cmp	r0, #0
10009e66:	f47f acb7 	bne.w	100097d8 <tud_task_ext+0x20>
10009e6a:	e5bd      	b.n	100099e8 <tud_task_ext+0x230>
10009e6c:	f8bd 1024 	ldrh.w	r1, [sp, #36]	@ 0x24
10009e70:	f7ff f940 	bl	100090f4 <tud_descriptor_string_cb>
10009e74:	4602      	mov	r2, r0
10009e76:	2800      	cmp	r0, #0
10009e78:	d1ef      	bne.n	10009e5a <tud_task_ext+0x6a2>
10009e7a:	e5b5      	b.n	100099e8 <tud_task_ext+0x230>
10009e7c:	9302      	str	r3, [sp, #8]
10009e7e:	f7ff fb69 	bl	10009554 <dcd_edpt_clear_stall>
10009e82:	9a01      	ldr	r2, [sp, #4]
10009e84:	9b00      	ldr	r3, [sp, #0]
10009e86:	443a      	add	r2, r7
10009e88:	441a      	add	r2, r3
10009e8a:	f892 1034 	ldrb.w	r1, [r2, #52]	@ 0x34
10009e8e:	9b02      	ldr	r3, [sp, #8]
10009e90:	f363 0141 	bfi	r1, r3, #1, #1
10009e94:	f882 1034 	strb.w	r1, [r2, #52]	@ 0x34
10009e98:	f892 1034 	ldrb.w	r1, [r2, #52]	@ 0x34
10009e9c:	f363 0100 	bfi	r1, r3, #0, #1
10009ea0:	f882 1034 	strb.w	r1, [r2, #52]	@ 0x34
10009ea4:	e776      	b.n	10009d94 <tud_task_ext+0x5dc>
10009ea6:	2100      	movs	r1, #0
10009ea8:	4640      	mov	r0, r8
10009eaa:	f7ff fa87 	bl	100093bc <dcd_sof_enable>
10009eae:	4640      	mov	r0, r8
10009eb0:	f7ff fb22 	bl	100094f8 <dcd_edpt_close_all>
10009eb4:	78bb      	ldrb	r3, [r7, #2]
10009eb6:	4640      	mov	r0, r8
10009eb8:	9300      	str	r3, [sp, #0]
10009eba:	f7ff fb9d 	bl	100095f8 <configuration_reset>
10009ebe:	9b00      	ldr	r3, [sp, #0]
10009ec0:	70bb      	strb	r3, [r7, #2]
10009ec2:	e632      	b.n	10009b2a <tud_task_ext+0x372>
10009ec4:	f8dd 800c 	ldr.w	r8, [sp, #12]
10009ec8:	f7ff fbe4 	bl	10009694 <tud_mount_cb>
10009ecc:	e778      	b.n	10009dc0 <tud_task_ext+0x608>
10009ece:	4640      	mov	r0, r8
10009ed0:	2301      	movs	r3, #1
10009ed2:	a908      	add	r1, sp, #32
10009ed4:	f10d 021a 	add.w	r2, sp, #26
10009ed8:	f88d 601a 	strb.w	r6, [sp, #26]
10009edc:	f000 f914 	bl	1000a108 <tud_control_xfer>
10009ee0:	e47a      	b.n	100097d8 <tud_task_ext+0x20>
10009ee2:	780a      	ldrb	r2, [r1, #0]
10009ee4:	78cb      	ldrb	r3, [r1, #3]
10009ee6:	4411      	add	r1, r2
10009ee8:	784a      	ldrb	r2, [r1, #1]
10009eea:	e64c      	b.n	10009b86 <tud_task_ext+0x3ce>
10009eec:	4633      	mov	r3, r6
10009eee:	4810      	ldr	r0, [pc, #64]	@ (10009f30 <tud_task_ext+0x778>)
10009ef0:	9204      	str	r2, [sp, #16]
10009ef2:	9102      	str	r1, [sp, #8]
10009ef4:	f000 fe76 	bl	1000abe4 <tu_edpt_bind_driver>
10009ef8:	4b0e      	ldr	r3, [pc, #56]	@ (10009f34 <tud_task_ext+0x77c>)
10009efa:	9a04      	ldr	r2, [sp, #16]
10009efc:	9902      	ldr	r1, [sp, #8]
10009efe:	781b      	ldrb	r3, [r3, #0]
10009f00:	4411      	add	r1, r2
10009f02:	9a00      	ldr	r2, [sp, #0]
10009f04:	3301      	adds	r3, #1
10009f06:	4293      	cmp	r3, r2
10009f08:	f6bf ae34 	bge.w	10009b74 <tud_task_ext+0x3bc>
10009f0c:	e778      	b.n	10009e00 <tud_task_ext+0x648>
10009f0e:	f8d8 c010 	ldr.w	ip, [r8, #16]
10009f12:	4809      	ldr	r0, [pc, #36]	@ (10009f38 <tud_task_ext+0x780>)
10009f14:	4584      	cmp	ip, r0
10009f16:	bf08      	it	eq
10009f18:	2302      	moveq	r3, #2
10009f1a:	e75d      	b.n	10009dd8 <tud_task_ext+0x620>
10009f1c:	f04f 23e0 	mov.w	r3, #3758153728	@ 0xe000e000
10009f20:	f8d3 3df0 	ldr.w	r3, [r3, #3568]	@ 0xdf0
10009f24:	07db      	lsls	r3, r3, #31
10009f26:	f57f ac57 	bpl.w	100097d8 <tud_task_ext+0x20>
10009f2a:	be00      	bkpt	0x0000
10009f2c:	e454      	b.n	100097d8 <tud_task_ext+0x20>
10009f2e:	bf00      	nop
10009f30:	20001d98 	.word	0x20001d98
10009f34:	20002654 	.word	0x20002654
10009f38:	1000a605 	.word	0x1000a605

10009f3c <usbd_open_edpt_pair>:
10009f3c:	e92d 4ff8 	stmdb	sp!, {r3, r4, r5, r6, r7, r8, r9, sl, fp, lr}
10009f40:	9f0a      	ldr	r7, [sp, #40]	@ 0x28
10009f42:	2a00      	cmp	r2, #0
10009f44:	d040      	beq.n	10009fc8 <usbd_open_edpt_pair+0x8c>
10009f46:	460c      	mov	r4, r1
10009f48:	461e      	mov	r6, r3
10009f4a:	4615      	mov	r5, r2
10009f4c:	f04f 0a00 	mov.w	sl, #0
10009f50:	f8df 907c 	ldr.w	r9, [pc, #124]	@ 10009fd0 <usbd_open_edpt_pair+0x94>
10009f54:	f8df 807c 	ldr.w	r8, [pc, #124]	@ 10009fd4 <usbd_open_edpt_pair+0x98>
10009f58:	e018      	b.n	10009f8c <usbd_open_edpt_pair+0x50>
10009f5a:	4620      	mov	r0, r4
10009f5c:	f898 1002 	ldrb.w	r1, [r8, #2]
10009f60:	f899 b000 	ldrb.w	fp, [r9]
10009f64:	f000 fe0e 	bl	1000ab84 <tu_edpt_validate>
10009f68:	b1e0      	cbz	r0, 10009fa4 <usbd_open_edpt_pair+0x68>
10009f6a:	4621      	mov	r1, r4
10009f6c:	4658      	mov	r0, fp
10009f6e:	f7ff fa41 	bl	100093f4 <dcd_edpt_open>
10009f72:	b1f0      	cbz	r0, 10009fb2 <usbd_open_edpt_pair+0x76>
10009f74:	78a2      	ldrb	r2, [r4, #2]
10009f76:	f10a 0a01 	add.w	sl, sl, #1
10009f7a:	09d1      	lsrs	r1, r2, #7
10009f7c:	bf16      	itet	ne
10009f7e:	9b0b      	ldrne	r3, [sp, #44]	@ 0x2c
10009f80:	703a      	strbeq	r2, [r7, #0]
10009f82:	701a      	strbne	r2, [r3, #0]
10009f84:	7822      	ldrb	r2, [r4, #0]
10009f86:	45aa      	cmp	sl, r5
10009f88:	4414      	add	r4, r2
10009f8a:	d01d      	beq.n	10009fc8 <usbd_open_edpt_pair+0x8c>
10009f8c:	7862      	ldrb	r2, [r4, #1]
10009f8e:	2a05      	cmp	r2, #5
10009f90:	d10f      	bne.n	10009fb2 <usbd_open_edpt_pair+0x76>
10009f92:	78e1      	ldrb	r1, [r4, #3]
10009f94:	f001 0103 	and.w	r1, r1, #3
10009f98:	42b1      	cmp	r1, r6
10009f9a:	d10a      	bne.n	10009fb2 <usbd_open_edpt_pair+0x76>
10009f9c:	78a2      	ldrb	r2, [r4, #2]
10009f9e:	f012 0f70 	tst.w	r2, #112	@ 0x70
10009fa2:	d0da      	beq.n	10009f5a <usbd_open_edpt_pair+0x1e>
10009fa4:	f04f 23e0 	mov.w	r3, #3758153728	@ 0xe000e000
10009fa8:	f8d3 3df0 	ldr.w	r3, [r3, #3568]	@ 0xdf0
10009fac:	07da      	lsls	r2, r3, #31
10009fae:	d500      	bpl.n	10009fb2 <usbd_open_edpt_pair+0x76>
10009fb0:	be00      	bkpt	0x0000
10009fb2:	f04f 23e0 	mov.w	r3, #3758153728	@ 0xe000e000
10009fb6:	f8d3 3df0 	ldr.w	r3, [r3, #3568]	@ 0xdf0
10009fba:	07db      	lsls	r3, r3, #31
10009fbc:	d402      	bmi.n	10009fc4 <usbd_open_edpt_pair+0x88>
10009fbe:	2000      	movs	r0, #0
10009fc0:	e8bd 8ff8 	ldmia.w	sp!, {r3, r4, r5, r6, r7, r8, r9, sl, fp, pc}
10009fc4:	be00      	bkpt	0x0000
10009fc6:	e7fa      	b.n	10009fbe <usbd_open_edpt_pair+0x82>
10009fc8:	2001      	movs	r0, #1
10009fca:	e8bd 8ff8 	ldmia.w	sp!, {r3, r4, r5, r6, r7, r8, r9, sl, fp, pc}
10009fce:	bf00      	nop
10009fd0:	20001348 	.word	0x20001348
10009fd4:	20001d84 	.word	0x20001d84

10009fd8 <usbd_edpt_open>:
10009fd8:	b538      	push	{r3, r4, r5, lr}
10009fda:	788b      	ldrb	r3, [r1, #2]
10009fdc:	f013 0f70 	tst.w	r3, #112	@ 0x70
10009fe0:	d008      	beq.n	10009ff4 <usbd_edpt_open+0x1c>
10009fe2:	f04f 23e0 	mov.w	r3, #3758153728	@ 0xe000e000
10009fe6:	f8d3 3df0 	ldr.w	r3, [r3, #3568]	@ 0xdf0
10009fea:	07db      	lsls	r3, r3, #31
10009fec:	d500      	bpl.n	10009ff0 <usbd_edpt_open+0x18>
10009fee:	be00      	bkpt	0x0000
10009ff0:	2000      	movs	r0, #0
10009ff2:	bd38      	pop	{r3, r4, r5, pc}
10009ff4:	4a07      	ldr	r2, [pc, #28]	@ (1000a014 <usbd_edpt_open+0x3c>)
10009ff6:	4b08      	ldr	r3, [pc, #32]	@ (1000a018 <usbd_edpt_open+0x40>)
10009ff8:	460c      	mov	r4, r1
10009ffa:	4608      	mov	r0, r1
10009ffc:	7891      	ldrb	r1, [r2, #2]
10009ffe:	781d      	ldrb	r5, [r3, #0]
1000a000:	f000 fdc0 	bl	1000ab84 <tu_edpt_validate>
1000a004:	2800      	cmp	r0, #0
1000a006:	d0ec      	beq.n	10009fe2 <usbd_edpt_open+0xa>
1000a008:	4621      	mov	r1, r4
1000a00a:	4628      	mov	r0, r5
1000a00c:	e8bd 4038 	ldmia.w	sp!, {r3, r4, r5, lr}
1000a010:	f7ff b9f0 	b.w	100093f4 <dcd_edpt_open>
1000a014:	20001d84 	.word	0x20001d84
1000a018:	20001348 	.word	0x20001348

1000a01c <usbd_edpt_claim>:
1000a01c:	460b      	mov	r3, r1
1000a01e:	4a06      	ldr	r2, [pc, #24]	@ (1000a038 <usbd_edpt_claim+0x1c>)
1000a020:	4806      	ldr	r0, [pc, #24]	@ (1000a03c <usbd_edpt_claim+0x20>)
1000a022:	6811      	ldr	r1, [r2, #0]
1000a024:	09da      	lsrs	r2, r3, #7
1000a026:	3234      	adds	r2, #52	@ 0x34
1000a028:	f003 037f 	and.w	r3, r3, #127	@ 0x7f
1000a02c:	eb02 0343 	add.w	r3, r2, r3, lsl #1
1000a030:	4418      	add	r0, r3
1000a032:	f000 bd61 	b.w	1000aaf8 <tu_edpt_claim>
1000a036:	bf00      	nop
1000a038:	20001dd8 	.word	0x20001dd8
1000a03c:	20001d84 	.word	0x20001d84

1000a040 <usbd_edpt_release>:
1000a040:	460b      	mov	r3, r1
1000a042:	4a06      	ldr	r2, [pc, #24]	@ (1000a05c <usbd_edpt_release+0x1c>)
1000a044:	4806      	ldr	r0, [pc, #24]	@ (1000a060 <usbd_edpt_release+0x20>)
1000a046:	6811      	ldr	r1, [r2, #0]
1000a048:	09da      	lsrs	r2, r3, #7
1000a04a:	3234      	adds	r2, #52	@ 0x34
1000a04c:	f003 037f 	and.w	r3, r3, #127	@ 0x7f
1000a050:	eb02 0343 	add.w	r3, r2, r3, lsl #1
1000a054:	4418      	add	r0, r3
1000a056:	f000 bd79 	b.w	1000ab4c <tu_edpt_release>
1000a05a:	bf00      	nop
1000a05c:	20001dd8 	.word	0x20001dd8
1000a060:	20001d84 	.word	0x20001d84

1000a064 <usbd_edpt_xfer>:
1000a064:	b510      	push	{r4, lr}
1000a066:	4819      	ldr	r0, [pc, #100]	@ (1000a0cc <usbd_edpt_xfer+0x68>)
1000a068:	f001 0c7f 	and.w	ip, r1, #127	@ 0x7f
1000a06c:	eb00 004c 	add.w	r0, r0, ip, lsl #1
1000a070:	eb00 10d1 	add.w	r0, r0, r1, lsr #7
1000a074:	f890 c034 	ldrb.w	ip, [r0, #52]	@ 0x34
1000a078:	f01c 0f01 	tst.w	ip, #1
1000a07c:	d008      	beq.n	1000a090 <usbd_edpt_xfer+0x2c>
1000a07e:	f04f 23e0 	mov.w	r3, #3758153728	@ 0xe000e000
1000a082:	f8d3 3df0 	ldr.w	r3, [r3, #3568]	@ 0xdf0
1000a086:	07da      	lsls	r2, r3, #31
1000a088:	d500      	bpl.n	1000a08c <usbd_edpt_xfer+0x28>
1000a08a:	be00      	bkpt	0x0000
1000a08c:	2000      	movs	r0, #0
1000a08e:	bd10      	pop	{r4, pc}
1000a090:	f100 0430 	add.w	r4, r0, #48	@ 0x30
1000a094:	f894 c004 	ldrb.w	ip, [r4, #4]
1000a098:	480d      	ldr	r0, [pc, #52]	@ (1000a0d0 <usbd_edpt_xfer+0x6c>)
1000a09a:	f04c 0c01 	orr.w	ip, ip, #1
1000a09e:	7800      	ldrb	r0, [r0, #0]
1000a0a0:	f884 c004 	strb.w	ip, [r4, #4]
1000a0a4:	f7ff fa2a 	bl	100094fc <dcd_edpt_xfer>
1000a0a8:	2800      	cmp	r0, #0
1000a0aa:	d1f0      	bne.n	1000a08e <usbd_edpt_xfer+0x2a>
1000a0ac:	f04f 21e0 	mov.w	r1, #3758153728	@ 0xe000e000
1000a0b0:	7922      	ldrb	r2, [r4, #4]
1000a0b2:	f360 0200 	bfi	r2, r0, #0, #1
1000a0b6:	7122      	strb	r2, [r4, #4]
1000a0b8:	7922      	ldrb	r2, [r4, #4]
1000a0ba:	f360 0282 	bfi	r2, r0, #2, #1
1000a0be:	7122      	strb	r2, [r4, #4]
1000a0c0:	f8d1 3df0 	ldr.w	r3, [r1, #3568]	@ 0xdf0
1000a0c4:	07db      	lsls	r3, r3, #31
1000a0c6:	d5e1      	bpl.n	1000a08c <usbd_edpt_xfer+0x28>
1000a0c8:	be00      	bkpt	0x0000
1000a0ca:	e7df      	b.n	1000a08c <usbd_edpt_xfer+0x28>
1000a0cc:	20001d84 	.word	0x20001d84
1000a0d0:	20001348 	.word	0x20001348

1000a0d4 <tud_control_status>:
1000a0d4:	b530      	push	{r4, r5, lr}
1000a0d6:	4c0b      	ldr	r4, [pc, #44]	@ (1000a104 <tud_control_status+0x30>)
1000a0d8:	468c      	mov	ip, r1
1000a0da:	46a6      	mov	lr, r4
1000a0dc:	4605      	mov	r5, r0
1000a0de:	6808      	ldr	r0, [r1, #0]
1000a0e0:	6849      	ldr	r1, [r1, #4]
1000a0e2:	2300      	movs	r3, #0
1000a0e4:	e8ae 0003 	stmia.w	lr!, {r0, r1}
1000a0e8:	f89c 1000 	ldrb.w	r1, [ip]
1000a0ec:	4628      	mov	r0, r5
1000a0ee:	43c9      	mvns	r1, r1
1000a0f0:	e9c4 3302 	strd	r3, r3, [r4, #8]
1000a0f4:	e8bd 4030 	ldmia.w	sp!, {r4, r5, lr}
1000a0f8:	461a      	mov	r2, r3
1000a0fa:	f001 0180 	and.w	r1, r1, #128	@ 0x80
1000a0fe:	f7ff bfb1 	b.w	1000a064 <usbd_edpt_xfer>
1000a102:	bf00      	nop
1000a104:	20001d44 	.word	0x20001d44

1000a108 <tud_control_xfer>:
1000a108:	e92d 41f0 	stmdb	sp!, {r4, r5, r6, r7, r8, lr}
1000a10c:	4f28      	ldr	r7, [pc, #160]	@ (1000a1b0 <tud_control_xfer+0xa8>)
1000a10e:	f04f 0800 	mov.w	r8, #0
1000a112:	46be      	mov	lr, r7
1000a114:	468c      	mov	ip, r1
1000a116:	4606      	mov	r6, r0
1000a118:	6808      	ldr	r0, [r1, #0]
1000a11a:	6849      	ldr	r1, [r1, #4]
1000a11c:	60ba      	str	r2, [r7, #8]
1000a11e:	e8ae 0003 	stmia.w	lr!, {r0, r1}
1000a122:	f8a7 800e 	strh.w	r8, [r7, #14]
1000a126:	4615      	mov	r5, r2
1000a128:	f8bc 2006 	ldrh.w	r2, [ip, #6]
1000a12c:	4293      	cmp	r3, r2
1000a12e:	bf28      	it	cs
1000a130:	4613      	movcs	r3, r2
1000a132:	81bb      	strh	r3, [r7, #12]
1000a134:	b19a      	cbz	r2, 1000a15e <tud_control_xfer+0x56>
1000a136:	461c      	mov	r4, r3
1000a138:	b333      	cbz	r3, 1000a188 <tud_control_xfer+0x80>
1000a13a:	b1dd      	cbz	r5, 1000a174 <tud_control_xfer+0x6c>
1000a13c:	f997 3000 	ldrsb.w	r3, [r7]
1000a140:	2c40      	cmp	r4, #64	@ 0x40
1000a142:	bf28      	it	cs
1000a144:	2440      	movcs	r4, #64	@ 0x40
1000a146:	2b00      	cmp	r3, #0
1000a148:	db29      	blt.n	1000a19e <tud_control_xfer+0x96>
1000a14a:	4641      	mov	r1, r8
1000a14c:	4623      	mov	r3, r4
1000a14e:	4630      	mov	r0, r6
1000a150:	4a18      	ldr	r2, [pc, #96]	@ (1000a1b4 <tud_control_xfer+0xac>)
1000a152:	f7ff ff87 	bl	1000a064 <usbd_edpt_xfer>
1000a156:	b168      	cbz	r0, 1000a174 <tud_control_xfer+0x6c>
1000a158:	2001      	movs	r0, #1
1000a15a:	e8bd 81f0 	ldmia.w	sp!, {r4, r5, r6, r7, r8, pc}
1000a15e:	f89c 1000 	ldrb.w	r1, [ip]
1000a162:	4613      	mov	r3, r2
1000a164:	43c9      	mvns	r1, r1
1000a166:	4630      	mov	r0, r6
1000a168:	f001 0180 	and.w	r1, r1, #128	@ 0x80
1000a16c:	f7ff ff7a 	bl	1000a064 <usbd_edpt_xfer>
1000a170:	2800      	cmp	r0, #0
1000a172:	d1f1      	bne.n	1000a158 <tud_control_xfer+0x50>
1000a174:	f04f 23e0 	mov.w	r3, #3758153728	@ 0xe000e000
1000a178:	f8d3 3df0 	ldr.w	r3, [r3, #3568]	@ 0xdf0
1000a17c:	07db      	lsls	r3, r3, #31
1000a17e:	d500      	bpl.n	1000a182 <tud_control_xfer+0x7a>
1000a180:	be00      	bkpt	0x0000
1000a182:	2000      	movs	r0, #0
1000a184:	e8bd 81f0 	ldmia.w	sp!, {r4, r5, r6, r7, r8, pc}
1000a188:	461a      	mov	r2, r3
1000a18a:	7839      	ldrb	r1, [r7, #0]
1000a18c:	f001 0180 	and.w	r1, r1, #128	@ 0x80
1000a190:	4623      	mov	r3, r4
1000a192:	4630      	mov	r0, r6
1000a194:	f7ff ff66 	bl	1000a064 <usbd_edpt_xfer>
1000a198:	2800      	cmp	r0, #0
1000a19a:	d1dd      	bne.n	1000a158 <tud_control_xfer+0x50>
1000a19c:	e7ea      	b.n	1000a174 <tud_control_xfer+0x6c>
1000a19e:	4622      	mov	r2, r4
1000a1a0:	4629      	mov	r1, r5
1000a1a2:	4804      	ldr	r0, [pc, #16]	@ (1000a1b4 <tud_control_xfer+0xac>)
1000a1a4:	f002 ff32 	bl	1000d00c <memcpy>
1000a1a8:	2180      	movs	r1, #128	@ 0x80
1000a1aa:	4a02      	ldr	r2, [pc, #8]	@ (1000a1b4 <tud_control_xfer+0xac>)
1000a1ac:	e7f0      	b.n	1000a190 <tud_control_xfer+0x88>
1000a1ae:	bf00      	nop
1000a1b0:	20001d44 	.word	0x20001d44
1000a1b4:	20001d04 	.word	0x20001d04

1000a1b8 <usbd_control_reset>:
1000a1b8:	2200      	movs	r2, #0
1000a1ba:	4b03      	ldr	r3, [pc, #12]	@ (1000a1c8 <usbd_control_reset+0x10>)
1000a1bc:	e9c3 2200 	strd	r2, r2, [r3]
1000a1c0:	e9c3 2202 	strd	r2, r2, [r3, #8]
1000a1c4:	611a      	str	r2, [r3, #16]
1000a1c6:	4770      	bx	lr
1000a1c8:	20001d44 	.word	0x20001d44

1000a1cc <usbd_control_set_complete_callback>:
1000a1cc:	4b01      	ldr	r3, [pc, #4]	@ (1000a1d4 <usbd_control_set_complete_callback+0x8>)
1000a1ce:	6118      	str	r0, [r3, #16]
1000a1d0:	4770      	bx	lr
1000a1d2:	bf00      	nop
1000a1d4:	20001d44 	.word	0x20001d44

1000a1d8 <usbd_control_set_request>:
1000a1d8:	b430      	push	{r4, r5}
1000a1da:	4602      	mov	r2, r0
1000a1dc:	4c04      	ldr	r4, [pc, #16]	@ (1000a1f0 <usbd_control_set_request+0x18>)
1000a1de:	2500      	movs	r5, #0
1000a1e0:	4623      	mov	r3, r4
1000a1e2:	6800      	ldr	r0, [r0, #0]
1000a1e4:	6851      	ldr	r1, [r2, #4]
1000a1e6:	e9c4 5502 	strd	r5, r5, [r4, #8]
1000a1ea:	bc30      	pop	{r4, r5}
1000a1ec:	c303      	stmia	r3!, {r0, r1}
1000a1ee:	4770      	bx	lr
1000a1f0:	20001d44 	.word	0x20001d44

1000a1f4 <usbd_control_xfer_cb>:
1000a1f4:	b570      	push	{r4, r5, r6, lr}
1000a1f6:	4c3d      	ldr	r4, [pc, #244]	@ (1000a2ec <usbd_control_xfer_cb+0xf8>)
1000a1f8:	09c9      	lsrs	r1, r1, #7
1000a1fa:	7822      	ldrb	r2, [r4, #0]
1000a1fc:	4606      	mov	r6, r0
1000a1fe:	ebb1 1fd2 	cmp.w	r1, r2, lsr #7
1000a202:	461d      	mov	r5, r3
1000a204:	b082      	sub	sp, #8
1000a206:	d017      	beq.n	1000a238 <usbd_control_xfer_cb+0x44>
1000a208:	b153      	cbz	r3, 1000a220 <usbd_control_xfer_cb+0x2c>
1000a20a:	f04f 23e0 	mov.w	r3, #3758153728	@ 0xe000e000
1000a20e:	f8d3 3df0 	ldr.w	r3, [r3, #3568]	@ 0xdf0
1000a212:	07db      	lsls	r3, r3, #31
1000a214:	d402      	bmi.n	1000a21c <usbd_control_xfer_cb+0x28>
1000a216:	2000      	movs	r0, #0
1000a218:	b002      	add	sp, #8
1000a21a:	bd70      	pop	{r4, r5, r6, pc}
1000a21c:	be00      	bkpt	0x0000
1000a21e:	e7fa      	b.n	1000a216 <usbd_control_xfer_cb+0x22>
1000a220:	4621      	mov	r1, r4
1000a222:	f7ff f8d9 	bl	100093d8 <dcd_edpt0_status_complete>
1000a226:	6923      	ldr	r3, [r4, #16]
1000a228:	b11b      	cbz	r3, 1000a232 <usbd_control_xfer_cb+0x3e>
1000a22a:	4622      	mov	r2, r4
1000a22c:	2103      	movs	r1, #3
1000a22e:	4630      	mov	r0, r6
1000a230:	4798      	blx	r3
1000a232:	2001      	movs	r0, #1
1000a234:	b002      	add	sp, #8
1000a236:	bd70      	pop	{r4, r5, r6, pc}
1000a238:	f994 3000 	ldrsb.w	r3, [r4]
1000a23c:	2b00      	cmp	r3, #0
1000a23e:	db06      	blt.n	1000a24e <usbd_control_xfer_cb+0x5a>
1000a240:	68a0      	ldr	r0, [r4, #8]
1000a242:	2800      	cmp	r0, #0
1000a244:	d0e7      	beq.n	1000a216 <usbd_control_xfer_cb+0x22>
1000a246:	462a      	mov	r2, r5
1000a248:	4929      	ldr	r1, [pc, #164]	@ (1000a2f0 <usbd_control_xfer_cb+0xfc>)
1000a24a:	f002 fedf 	bl	1000d00c <memcpy>
1000a24e:	89e0      	ldrh	r0, [r4, #14]
1000a250:	68a1      	ldr	r1, [r4, #8]
1000a252:	88e3      	ldrh	r3, [r4, #6]
1000a254:	4428      	add	r0, r5
1000a256:	b280      	uxth	r0, r0
1000a258:	4429      	add	r1, r5
1000a25a:	4283      	cmp	r3, r0
1000a25c:	81e0      	strh	r0, [r4, #14]
1000a25e:	60a1      	str	r1, [r4, #8]
1000a260:	d016      	beq.n	1000a290 <usbd_control_xfer_cb+0x9c>
1000a262:	2d3f      	cmp	r5, #63	@ 0x3f
1000a264:	d914      	bls.n	1000a290 <usbd_control_xfer_cb+0x9c>
1000a266:	89a2      	ldrh	r2, [r4, #12]
1000a268:	f994 4000 	ldrsb.w	r4, [r4]
1000a26c:	1a13      	subs	r3, r2, r0
1000a26e:	b29b      	uxth	r3, r3
1000a270:	2b40      	cmp	r3, #64	@ 0x40
1000a272:	bf28      	it	cs
1000a274:	2340      	movcs	r3, #64	@ 0x40
1000a276:	2c00      	cmp	r4, #0
1000a278:	db27      	blt.n	1000a2ca <usbd_control_xfer_cb+0xd6>
1000a27a:	4290      	cmp	r0, r2
1000a27c:	f04f 0100 	mov.w	r1, #0
1000a280:	d031      	beq.n	1000a2e6 <usbd_control_xfer_cb+0xf2>
1000a282:	4a1b      	ldr	r2, [pc, #108]	@ (1000a2f0 <usbd_control_xfer_cb+0xfc>)
1000a284:	4630      	mov	r0, r6
1000a286:	f7ff feed 	bl	1000a064 <usbd_edpt_xfer>
1000a28a:	2800      	cmp	r0, #0
1000a28c:	d1d1      	bne.n	1000a232 <usbd_control_xfer_cb+0x3e>
1000a28e:	e7bc      	b.n	1000a20a <usbd_control_xfer_cb+0x16>
1000a290:	6923      	ldr	r3, [r4, #16]
1000a292:	b123      	cbz	r3, 1000a29e <usbd_control_xfer_cb+0xaa>
1000a294:	2102      	movs	r1, #2
1000a296:	4630      	mov	r0, r6
1000a298:	4a14      	ldr	r2, [pc, #80]	@ (1000a2ec <usbd_control_xfer_cb+0xf8>)
1000a29a:	4798      	blx	r3
1000a29c:	b160      	cbz	r0, 1000a2b8 <usbd_control_xfer_cb+0xc4>
1000a29e:	7821      	ldrb	r1, [r4, #0]
1000a2a0:	2300      	movs	r3, #0
1000a2a2:	43c9      	mvns	r1, r1
1000a2a4:	4630      	mov	r0, r6
1000a2a6:	461a      	mov	r2, r3
1000a2a8:	f001 0180 	and.w	r1, r1, #128	@ 0x80
1000a2ac:	f7ff feda 	bl	1000a064 <usbd_edpt_xfer>
1000a2b0:	2800      	cmp	r0, #0
1000a2b2:	d0aa      	beq.n	1000a20a <usbd_control_xfer_cb+0x16>
1000a2b4:	2001      	movs	r0, #1
1000a2b6:	e7bd      	b.n	1000a234 <usbd_control_xfer_cb+0x40>
1000a2b8:	4601      	mov	r1, r0
1000a2ba:	4630      	mov	r0, r6
1000a2bc:	f7ff f932 	bl	10009524 <dcd_edpt_stall>
1000a2c0:	2180      	movs	r1, #128	@ 0x80
1000a2c2:	4630      	mov	r0, r6
1000a2c4:	f7ff f92e 	bl	10009524 <dcd_edpt_stall>
1000a2c8:	e7b3      	b.n	1000a232 <usbd_control_xfer_cb+0x3e>
1000a2ca:	4290      	cmp	r0, r2
1000a2cc:	d008      	beq.n	1000a2e0 <usbd_control_xfer_cb+0xec>
1000a2ce:	461a      	mov	r2, r3
1000a2d0:	4807      	ldr	r0, [pc, #28]	@ (1000a2f0 <usbd_control_xfer_cb+0xfc>)
1000a2d2:	9301      	str	r3, [sp, #4]
1000a2d4:	f002 fe9a 	bl	1000d00c <memcpy>
1000a2d8:	2180      	movs	r1, #128	@ 0x80
1000a2da:	4a05      	ldr	r2, [pc, #20]	@ (1000a2f0 <usbd_control_xfer_cb+0xfc>)
1000a2dc:	9b01      	ldr	r3, [sp, #4]
1000a2de:	e7d1      	b.n	1000a284 <usbd_control_xfer_cb+0x90>
1000a2e0:	2180      	movs	r1, #128	@ 0x80
1000a2e2:	2200      	movs	r2, #0
1000a2e4:	e7ce      	b.n	1000a284 <usbd_control_xfer_cb+0x90>
1000a2e6:	460a      	mov	r2, r1
1000a2e8:	e7cc      	b.n	1000a284 <usbd_control_xfer_cb+0x90>
1000a2ea:	bf00      	nop
1000a2ec:	20001d44 	.word	0x20001d44
1000a2f0:	20001d04 	.word	0x20001d04

1000a2f4 <_prep_out_transaction.isra.0>:
1000a2f4:	e92d 41f0 	stmdb	sp!, {r4, r5, r6, r7, r8, lr}
1000a2f8:	4604      	mov	r4, r0
1000a2fa:	f7ff f9d3 	bl	100096a4 <tud_mounted>
1000a2fe:	b908      	cbnz	r0, 1000a304 <_prep_out_transaction.isra.0+0x10>
1000a300:	e8bd 81f0 	ldmia.w	sp!, {r4, r5, r6, r7, r8, pc}
1000a304:	f7ff f9d6 	bl	100096b4 <tud_suspended>
1000a308:	4605      	mov	r5, r0
1000a30a:	2800      	cmp	r0, #0
1000a30c:	d1f8      	bne.n	1000a300 <_prep_out_transaction.isra.0+0xc>
1000a30e:	23c8      	movs	r3, #200	@ 0xc8
1000a310:	fb04 f303 	mul.w	r3, r4, r3
1000a314:	4e12      	ldr	r6, [pc, #72]	@ (1000a360 <_prep_out_transaction.isra.0+0x6c>)
1000a316:	18f7      	adds	r7, r6, r3
1000a318:	78f9      	ldrb	r1, [r7, #3]
1000a31a:	2900      	cmp	r1, #0
1000a31c:	d0f0      	beq.n	1000a300 <_prep_out_transaction.isra.0+0xc>
1000a31e:	3310      	adds	r3, #16
1000a320:	441e      	add	r6, r3
1000a322:	4630      	mov	r0, r6
1000a324:	f000 fdd2 	bl	1000aecc <tu_fifo_remaining>
1000a328:	283f      	cmp	r0, #63	@ 0x3f
1000a32a:	d9e9      	bls.n	1000a300 <_prep_out_transaction.isra.0+0xc>
1000a32c:	4628      	mov	r0, r5
1000a32e:	78f9      	ldrb	r1, [r7, #3]
1000a330:	f7ff fe74 	bl	1000a01c <usbd_edpt_claim>
1000a334:	2800      	cmp	r0, #0
1000a336:	d0e3      	beq.n	1000a300 <_prep_out_transaction.isra.0+0xc>
1000a338:	4630      	mov	r0, r6
1000a33a:	f000 fdc7 	bl	1000aecc <tu_fifo_remaining>
1000a33e:	283f      	cmp	r0, #63	@ 0x3f
1000a340:	78f9      	ldrb	r1, [r7, #3]
1000a342:	d908      	bls.n	1000a356 <_prep_out_transaction.isra.0+0x62>
1000a344:	4a07      	ldr	r2, [pc, #28]	@ (1000a364 <_prep_out_transaction.isra.0+0x70>)
1000a346:	4628      	mov	r0, r5
1000a348:	eb02 12c4 	add.w	r2, r2, r4, lsl #7
1000a34c:	2340      	movs	r3, #64	@ 0x40
1000a34e:	e8bd 41f0 	ldmia.w	sp!, {r4, r5, r6, r7, r8, lr}
1000a352:	f7ff be87 	b.w	1000a064 <usbd_edpt_xfer>
1000a356:	4628      	mov	r0, r5
1000a358:	e8bd 41f0 	ldmia.w	sp!, {r4, r5, r6, r7, r8, lr}
1000a35c:	f7ff be70 	b.w	1000a040 <usbd_edpt_release>
1000a360:	20001c3c 	.word	0x20001c3c
1000a364:	20001bb8 	.word	0x20001bb8

1000a368 <tud_cdc_n_connected>:
1000a368:	b510      	push	{r4, lr}
1000a36a:	4604      	mov	r4, r0
1000a36c:	f7ff f99a 	bl	100096a4 <tud_mounted>
1000a370:	b908      	cbnz	r0, 1000a376 <tud_cdc_n_connected+0xe>
1000a372:	2000      	movs	r0, #0
1000a374:	bd10      	pop	{r4, pc}
1000a376:	f7ff f99d 	bl	100096b4 <tud_suspended>
1000a37a:	2800      	cmp	r0, #0
1000a37c:	d1f9      	bne.n	1000a372 <tud_cdc_n_connected+0xa>
1000a37e:	22c8      	movs	r2, #200	@ 0xc8
1000a380:	4b03      	ldr	r3, [pc, #12]	@ (1000a390 <tud_cdc_n_connected+0x28>)
1000a382:	fb02 3304 	mla	r3, r2, r4, r3
1000a386:	7918      	ldrb	r0, [r3, #4]
1000a388:	f000 0001 	and.w	r0, r0, #1
1000a38c:	bd10      	pop	{r4, pc}
1000a38e:	bf00      	nop
1000a390:	20001c3c 	.word	0x20001c3c

1000a394 <tud_cdc_n_available>:
1000a394:	22c8      	movs	r2, #200	@ 0xc8
1000a396:	b508      	push	{r3, lr}
1000a398:	4b02      	ldr	r3, [pc, #8]	@ (1000a3a4 <tud_cdc_n_available+0x10>)
1000a39a:	fb02 3000 	mla	r0, r2, r0, r3
1000a39e:	f000 fd7b 	bl	1000ae98 <tu_fifo_count>
1000a3a2:	bd08      	pop	{r3, pc}
1000a3a4:	20001c4c 	.word	0x20001c4c

1000a3a8 <tud_cdc_n_read>:
1000a3a8:	e92d 43f8 	stmdb	sp!, {r3, r4, r5, r6, r7, r8, r9, lr}
1000a3ac:	f64f 73ff 	movw	r3, #65535	@ 0xffff
1000a3b0:	24c8      	movs	r4, #200	@ 0xc8
1000a3b2:	429a      	cmp	r2, r3
1000a3b4:	bf28      	it	cs
1000a3b6:	461a      	movcs	r2, r3
1000a3b8:	fb00 f404 	mul.w	r4, r0, r4
1000a3bc:	f8df 8074 	ldr.w	r8, [pc, #116]	@ 1000a434 <tud_cdc_n_read+0x8c>
1000a3c0:	f104 0510 	add.w	r5, r4, #16
1000a3c4:	4445      	add	r5, r8
1000a3c6:	4606      	mov	r6, r0
1000a3c8:	b292      	uxth	r2, r2
1000a3ca:	4628      	mov	r0, r5
1000a3cc:	f000 fdda 	bl	1000af84 <tu_fifo_read_n>
1000a3d0:	4607      	mov	r7, r0
1000a3d2:	f7ff f967 	bl	100096a4 <tud_mounted>
1000a3d6:	b910      	cbnz	r0, 1000a3de <tud_cdc_n_read+0x36>
1000a3d8:	4638      	mov	r0, r7
1000a3da:	e8bd 83f8 	ldmia.w	sp!, {r3, r4, r5, r6, r7, r8, r9, pc}
1000a3de:	f7ff f969 	bl	100096b4 <tud_suspended>
1000a3e2:	4681      	mov	r9, r0
1000a3e4:	2800      	cmp	r0, #0
1000a3e6:	d1f7      	bne.n	1000a3d8 <tud_cdc_n_read+0x30>
1000a3e8:	44a0      	add	r8, r4
1000a3ea:	f898 3003 	ldrb.w	r3, [r8, #3]
1000a3ee:	2b00      	cmp	r3, #0
1000a3f0:	d0f2      	beq.n	1000a3d8 <tud_cdc_n_read+0x30>
1000a3f2:	4628      	mov	r0, r5
1000a3f4:	f000 fd6a 	bl	1000aecc <tu_fifo_remaining>
1000a3f8:	283f      	cmp	r0, #63	@ 0x3f
1000a3fa:	d9ed      	bls.n	1000a3d8 <tud_cdc_n_read+0x30>
1000a3fc:	4648      	mov	r0, r9
1000a3fe:	f898 1003 	ldrb.w	r1, [r8, #3]
1000a402:	f7ff fe0b 	bl	1000a01c <usbd_edpt_claim>
1000a406:	2800      	cmp	r0, #0
1000a408:	d0e6      	beq.n	1000a3d8 <tud_cdc_n_read+0x30>
1000a40a:	4628      	mov	r0, r5
1000a40c:	f000 fd5e 	bl	1000aecc <tu_fifo_remaining>
1000a410:	283f      	cmp	r0, #63	@ 0x3f
1000a412:	f898 1003 	ldrb.w	r1, [r8, #3]
1000a416:	d907      	bls.n	1000a428 <tud_cdc_n_read+0x80>
1000a418:	4a05      	ldr	r2, [pc, #20]	@ (1000a430 <tud_cdc_n_read+0x88>)
1000a41a:	4648      	mov	r0, r9
1000a41c:	2340      	movs	r3, #64	@ 0x40
1000a41e:	eb02 12c6 	add.w	r2, r2, r6, lsl #7
1000a422:	f7ff fe1f 	bl	1000a064 <usbd_edpt_xfer>
1000a426:	e7d7      	b.n	1000a3d8 <tud_cdc_n_read+0x30>
1000a428:	4648      	mov	r0, r9
1000a42a:	f7ff fe09 	bl	1000a040 <usbd_edpt_release>
1000a42e:	e7d3      	b.n	1000a3d8 <tud_cdc_n_read+0x30>
1000a430:	20001bb8 	.word	0x20001bb8
1000a434:	20001c3c 	.word	0x20001c3c

1000a438 <tud_cdc_n_write_flush>:
1000a438:	e92d 41f0 	stmdb	sp!, {r4, r5, r6, r7, r8, lr}
1000a43c:	4604      	mov	r4, r0
1000a43e:	f7ff f931 	bl	100096a4 <tud_mounted>
1000a442:	b910      	cbnz	r0, 1000a44a <tud_cdc_n_write_flush+0x12>
1000a444:	2000      	movs	r0, #0
1000a446:	e8bd 81f0 	ldmia.w	sp!, {r4, r5, r6, r7, r8, pc}
1000a44a:	f7ff f933 	bl	100096b4 <tud_suspended>
1000a44e:	4605      	mov	r5, r0
1000a450:	2800      	cmp	r0, #0
1000a452:	d1f7      	bne.n	1000a444 <tud_cdc_n_write_flush+0xc>
1000a454:	26c8      	movs	r6, #200	@ 0xc8
1000a456:	fb04 f606 	mul.w	r6, r4, r6
1000a45a:	f8df 8064 	ldr.w	r8, [pc, #100]	@ 1000a4c0 <tud_cdc_n_write_flush+0x88>
1000a45e:	f106 0724 	add.w	r7, r6, #36	@ 0x24
1000a462:	4447      	add	r7, r8
1000a464:	4638      	mov	r0, r7
1000a466:	f000 fd17 	bl	1000ae98 <tu_fifo_count>
1000a46a:	2800      	cmp	r0, #0
1000a46c:	d0ea      	beq.n	1000a444 <tud_cdc_n_write_flush+0xc>
1000a46e:	44b0      	add	r8, r6
1000a470:	4628      	mov	r0, r5
1000a472:	f898 1002 	ldrb.w	r1, [r8, #2]
1000a476:	f7ff fdd1 	bl	1000a01c <usbd_edpt_claim>
1000a47a:	2800      	cmp	r0, #0
1000a47c:	d0e2      	beq.n	1000a444 <tud_cdc_n_write_flush+0xc>
1000a47e:	4e0f      	ldr	r6, [pc, #60]	@ (1000a4bc <tud_cdc_n_write_flush+0x84>)
1000a480:	4638      	mov	r0, r7
1000a482:	eb06 16c4 	add.w	r6, r6, r4, lsl #7
1000a486:	4631      	mov	r1, r6
1000a488:	2240      	movs	r2, #64	@ 0x40
1000a48a:	f000 fd7b 	bl	1000af84 <tu_fifo_read_n>
1000a48e:	f898 1002 	ldrb.w	r1, [r8, #2]
1000a492:	4604      	mov	r4, r0
1000a494:	b168      	cbz	r0, 1000a4b2 <tud_cdc_n_write_flush+0x7a>
1000a496:	4603      	mov	r3, r0
1000a498:	4632      	mov	r2, r6
1000a49a:	4628      	mov	r0, r5
1000a49c:	f7ff fde2 	bl	1000a064 <usbd_edpt_xfer>
1000a4a0:	b950      	cbnz	r0, 1000a4b8 <tud_cdc_n_write_flush+0x80>
1000a4a2:	f04f 23e0 	mov.w	r3, #3758153728	@ 0xe000e000
1000a4a6:	f8d3 3df0 	ldr.w	r3, [r3, #3568]	@ 0xdf0
1000a4aa:	07db      	lsls	r3, r3, #31
1000a4ac:	d5ca      	bpl.n	1000a444 <tud_cdc_n_write_flush+0xc>
1000a4ae:	be00      	bkpt	0x0000
1000a4b0:	e7c8      	b.n	1000a444 <tud_cdc_n_write_flush+0xc>
1000a4b2:	f7ff fdc5 	bl	1000a040 <usbd_edpt_release>
1000a4b6:	e7c5      	b.n	1000a444 <tud_cdc_n_write_flush+0xc>
1000a4b8:	4620      	mov	r0, r4
1000a4ba:	e7c4      	b.n	1000a446 <tud_cdc_n_write_flush+0xe>
1000a4bc:	20001bf8 	.word	0x20001bf8
1000a4c0:	20001c3c 	.word	0x20001c3c

1000a4c4 <tud_cdc_n_write>:
1000a4c4:	b538      	push	{r3, r4, r5, lr}
1000a4c6:	f64f 75ff 	movw	r5, #65535	@ 0xffff
1000a4ca:	23c8      	movs	r3, #200	@ 0xc8
1000a4cc:	42aa      	cmp	r2, r5
1000a4ce:	bf28      	it	cs
1000a4d0:	462a      	movcs	r2, r5
1000a4d2:	4c0b      	ldr	r4, [pc, #44]	@ (1000a500 <tud_cdc_n_write+0x3c>)
1000a4d4:	b292      	uxth	r2, r2
1000a4d6:	fb03 4400 	mla	r4, r3, r0, r4
1000a4da:	4605      	mov	r5, r0
1000a4dc:	4620      	mov	r0, r4
1000a4de:	f000 fe0f 	bl	1000b100 <tu_fifo_write_n>
1000a4e2:	4603      	mov	r3, r0
1000a4e4:	4620      	mov	r0, r4
1000a4e6:	461c      	mov	r4, r3
1000a4e8:	f000 fcd6 	bl	1000ae98 <tu_fifo_count>
1000a4ec:	283f      	cmp	r0, #63	@ 0x3f
1000a4ee:	d801      	bhi.n	1000a4f4 <tud_cdc_n_write+0x30>
1000a4f0:	4620      	mov	r0, r4
1000a4f2:	bd38      	pop	{r3, r4, r5, pc}
1000a4f4:	4628      	mov	r0, r5
1000a4f6:	f7ff ff9f 	bl	1000a438 <tud_cdc_n_write_flush>
1000a4fa:	4620      	mov	r0, r4
1000a4fc:	bd38      	pop	{r3, r4, r5, pc}
1000a4fe:	bf00      	nop
1000a500:	20001c60 	.word	0x20001c60

1000a504 <tud_cdc_n_write_available>:
1000a504:	22c8      	movs	r2, #200	@ 0xc8
1000a506:	b508      	push	{r3, lr}
1000a508:	4b02      	ldr	r3, [pc, #8]	@ (1000a514 <tud_cdc_n_write_available+0x10>)
1000a50a:	fb02 3000 	mla	r0, r2, r0, r3
1000a50e:	f000 fcdd 	bl	1000aecc <tu_fifo_remaining>
1000a512:	bd08      	pop	{r3, pc}
1000a514:	20001c60 	.word	0x20001c60

1000a518 <cdcd_init>:
1000a518:	b5f0      	push	{r4, r5, r6, r7, lr}
1000a51a:	2400      	movs	r4, #0
1000a51c:	b083      	sub	sp, #12
1000a51e:	22c8      	movs	r2, #200	@ 0xc8
1000a520:	2100      	movs	r1, #0
1000a522:	4817      	ldr	r0, [pc, #92]	@ (1000a580 <cdcd_init+0x68>)
1000a524:	f002 f9d0 	bl	1000c8c8 <memset>
1000a528:	23ff      	movs	r3, #255	@ 0xff
1000a52a:	f44f 31e1 	mov.w	r1, #115200	@ 0x1c200
1000a52e:	2208      	movs	r2, #8
1000a530:	4814      	ldr	r0, [pc, #80]	@ (1000a584 <cdcd_init+0x6c>)
1000a532:	7004      	strb	r4, [r0, #0]
1000a534:	4812      	ldr	r0, [pc, #72]	@ (1000a580 <cdcd_init+0x68>)
1000a536:	9400      	str	r4, [sp, #0]
1000a538:	4607      	mov	r7, r0
1000a53a:	7143      	strb	r3, [r0, #5]
1000a53c:	6081      	str	r1, [r0, #8]
1000a53e:	7382      	strb	r2, [r0, #14]
1000a540:	f100 0138 	add.w	r1, r0, #56	@ 0x38
1000a544:	2301      	movs	r3, #1
1000a546:	2240      	movs	r2, #64	@ 0x40
1000a548:	3010      	adds	r0, #16
1000a54a:	f000 fc75 	bl	1000ae38 <tu_fifo_config>
1000a54e:	2301      	movs	r3, #1
1000a550:	2240      	movs	r2, #64	@ 0x40
1000a552:	f107 0178 	add.w	r1, r7, #120	@ 0x78
1000a556:	9300      	str	r3, [sp, #0]
1000a558:	f107 06b8 	add.w	r6, r7, #184	@ 0xb8
1000a55c:	f107 0024 	add.w	r0, r7, #36	@ 0x24
1000a560:	f000 fc6a 	bl	1000ae38 <tu_fifo_config>
1000a564:	f107 05c0 	add.w	r5, r7, #192	@ 0xc0
1000a568:	4630      	mov	r0, r6
1000a56a:	f7fb fc3f 	bl	10005dec <mutex_init>
1000a56e:	4628      	mov	r0, r5
1000a570:	f7fb fc3c 	bl	10005dec <mutex_init>
1000a574:	e9c7 4607 	strd	r4, r6, [r7, #28]
1000a578:	e9c7 540c 	strd	r5, r4, [r7, #48]	@ 0x30
1000a57c:	b003      	add	sp, #12
1000a57e:	bdf0      	pop	{r4, r5, r6, r7, pc}
1000a580:	20001c3c 	.word	0x20001c3c
1000a584:	20001c38 	.word	0x20001c38

1000a588 <cdcd_deinit>:
1000a588:	4a0a      	ldr	r2, [pc, #40]	@ (1000a5b4 <cdcd_deinit+0x2c>)
1000a58a:	6b11      	ldr	r1, [r2, #48]	@ 0x30
1000a58c:	6a13      	ldr	r3, [r2, #32]
1000a58e:	b161      	cbz	r1, 1000a5aa <cdcd_deinit+0x22>
1000a590:	b13b      	cbz	r3, 1000a5a2 <cdcd_deinit+0x1a>
1000a592:	2300      	movs	r3, #0
1000a594:	e9c2 330c 	strd	r3, r3, [r2, #48]	@ 0x30
1000a598:	61d3      	str	r3, [r2, #28]
1000a59a:	2300      	movs	r3, #0
1000a59c:	6213      	str	r3, [r2, #32]
1000a59e:	2001      	movs	r0, #1
1000a5a0:	4770      	bx	lr
1000a5a2:	2001      	movs	r0, #1
1000a5a4:	e9c2 330c 	strd	r3, r3, [r2, #48]	@ 0x30
1000a5a8:	4770      	bx	lr
1000a5aa:	2b00      	cmp	r3, #0
1000a5ac:	d0f7      	beq.n	1000a59e <cdcd_deinit+0x16>
1000a5ae:	61d1      	str	r1, [r2, #28]
1000a5b0:	e7f3      	b.n	1000a59a <cdcd_deinit+0x12>
1000a5b2:	bf00      	nop
1000a5b4:	20001c3c 	.word	0x20001c3c

1000a5b8 <cdcd_reset>:
1000a5b8:	2200      	movs	r2, #0
1000a5ba:	b510      	push	{r4, lr}
1000a5bc:	4c0e      	ldr	r4, [pc, #56]	@ (1000a5f8 <cdcd_reset+0x40>)
1000a5be:	480f      	ldr	r0, [pc, #60]	@ (1000a5fc <cdcd_reset+0x44>)
1000a5c0:	7823      	ldrb	r3, [r4, #0]
1000a5c2:	6002      	str	r2, [r0, #0]
1000a5c4:	7102      	strb	r2, [r0, #4]
1000a5c6:	07da      	lsls	r2, r3, #31
1000a5c8:	d507      	bpl.n	1000a5da <cdcd_reset+0x22>
1000a5ca:	079b      	lsls	r3, r3, #30
1000a5cc:	d50b      	bpl.n	1000a5e6 <cdcd_reset+0x2e>
1000a5ce:	e8bd 4010 	ldmia.w	sp!, {r4, lr}
1000a5d2:	2101      	movs	r1, #1
1000a5d4:	480a      	ldr	r0, [pc, #40]	@ (1000a600 <cdcd_reset+0x48>)
1000a5d6:	f000 be5d 	b.w	1000b294 <tu_fifo_set_overwritable>
1000a5da:	3010      	adds	r0, #16
1000a5dc:	f000 fe3e 	bl	1000b25c <tu_fifo_clear>
1000a5e0:	7823      	ldrb	r3, [r4, #0]
1000a5e2:	079b      	lsls	r3, r3, #30
1000a5e4:	d4f3      	bmi.n	1000a5ce <cdcd_reset+0x16>
1000a5e6:	4806      	ldr	r0, [pc, #24]	@ (1000a600 <cdcd_reset+0x48>)
1000a5e8:	f000 fe38 	bl	1000b25c <tu_fifo_clear>
1000a5ec:	e8bd 4010 	ldmia.w	sp!, {r4, lr}
1000a5f0:	2101      	movs	r1, #1
1000a5f2:	4803      	ldr	r0, [pc, #12]	@ (1000a600 <cdcd_reset+0x48>)
1000a5f4:	f000 be4e 	b.w	1000b294 <tu_fifo_set_overwritable>
1000a5f8:	20001c38 	.word	0x20001c38
1000a5fc:	20001c3c 	.word	0x20001c3c
1000a600:	20001c60 	.word	0x20001c60

1000a604 <cdcd_open>:
1000a604:	b5f0      	push	{r4, r5, r6, r7, lr}
1000a606:	794b      	ldrb	r3, [r1, #5]
1000a608:	b083      	sub	sp, #12
1000a60a:	2b02      	cmp	r3, #2
1000a60c:	d102      	bne.n	1000a614 <cdcd_open+0x10>
1000a60e:	798b      	ldrb	r3, [r1, #6]
1000a610:	2b02      	cmp	r3, #2
1000a612:	d003      	beq.n	1000a61c <cdcd_open+0x18>
1000a614:	2500      	movs	r5, #0
1000a616:	4628      	mov	r0, r5
1000a618:	b003      	add	sp, #12
1000a61a:	bdf0      	pop	{r4, r5, r6, r7, pc}
1000a61c:	4f27      	ldr	r7, [pc, #156]	@ (1000a6bc <cdcd_open+0xb8>)
1000a61e:	78bb      	ldrb	r3, [r7, #2]
1000a620:	b13b      	cbz	r3, 1000a632 <cdcd_open+0x2e>
1000a622:	f04f 23e0 	mov.w	r3, #3758153728	@ 0xe000e000
1000a626:	f8d3 3df0 	ldr.w	r3, [r3, #3568]	@ 0xdf0
1000a62a:	07db      	lsls	r3, r3, #31
1000a62c:	d5f2      	bpl.n	1000a614 <cdcd_open+0x10>
1000a62e:	be00      	bkpt	0x0000
1000a630:	e7f0      	b.n	1000a614 <cdcd_open+0x10>
1000a632:	788b      	ldrb	r3, [r1, #2]
1000a634:	4606      	mov	r6, r0
1000a636:	703b      	strb	r3, [r7, #0]
1000a638:	780b      	ldrb	r3, [r1, #0]
1000a63a:	18cc      	adds	r4, r1, r3
1000a63c:	7861      	ldrb	r1, [r4, #1]
1000a63e:	2924      	cmp	r1, #36	@ 0x24
1000a640:	bf08      	it	eq
1000a642:	2509      	moveq	r5, #9
1000a644:	d007      	beq.n	1000a656 <cdcd_open+0x52>
1000a646:	e036      	b.n	1000a6b6 <cdcd_open+0xb2>
1000a648:	7823      	ldrb	r3, [r4, #0]
1000a64a:	441c      	add	r4, r3
1000a64c:	7861      	ldrb	r1, [r4, #1]
1000a64e:	442b      	add	r3, r5
1000a650:	2924      	cmp	r1, #36	@ 0x24
1000a652:	b29d      	uxth	r5, r3
1000a654:	d107      	bne.n	1000a666 <cdcd_open+0x62>
1000a656:	42aa      	cmp	r2, r5
1000a658:	d2f6      	bcs.n	1000a648 <cdcd_open+0x44>
1000a65a:	2000      	movs	r0, #0
1000a65c:	f7ff fe4a 	bl	1000a2f4 <_prep_out_transaction.isra.0>
1000a660:	4628      	mov	r0, r5
1000a662:	b003      	add	sp, #12
1000a664:	bdf0      	pop	{r4, r5, r6, r7, pc}
1000a666:	460b      	mov	r3, r1
1000a668:	2905      	cmp	r1, #5
1000a66a:	d016      	beq.n	1000a69a <cdcd_open+0x96>
1000a66c:	2b04      	cmp	r3, #4
1000a66e:	d1f4      	bne.n	1000a65a <cdcd_open+0x56>
1000a670:	7963      	ldrb	r3, [r4, #5]
1000a672:	2b0a      	cmp	r3, #10
1000a674:	d1f1      	bne.n	1000a65a <cdcd_open+0x56>
1000a676:	4b12      	ldr	r3, [pc, #72]	@ (1000a6c0 <cdcd_open+0xbc>)
1000a678:	7827      	ldrb	r7, [r4, #0]
1000a67a:	9301      	str	r3, [sp, #4]
1000a67c:	3301      	adds	r3, #1
1000a67e:	9300      	str	r3, [sp, #0]
1000a680:	2302      	movs	r3, #2
1000a682:	4630      	mov	r0, r6
1000a684:	461a      	mov	r2, r3
1000a686:	19e1      	adds	r1, r4, r7
1000a688:	f7ff fc58 	bl	10009f3c <usbd_open_edpt_pair>
1000a68c:	2800      	cmp	r0, #0
1000a68e:	d0c8      	beq.n	1000a622 <cdcd_open+0x1e>
1000a690:	350e      	adds	r5, #14
1000a692:	fa17 f585 	uxtah	r5, r7, r5
1000a696:	b2ad      	uxth	r5, r5
1000a698:	e7df      	b.n	1000a65a <cdcd_open+0x56>
1000a69a:	4621      	mov	r1, r4
1000a69c:	4630      	mov	r0, r6
1000a69e:	f7ff fc9b 	bl	10009fd8 <usbd_edpt_open>
1000a6a2:	2800      	cmp	r0, #0
1000a6a4:	d0bd      	beq.n	1000a622 <cdcd_open+0x1e>
1000a6a6:	78a3      	ldrb	r3, [r4, #2]
1000a6a8:	707b      	strb	r3, [r7, #1]
1000a6aa:	7823      	ldrb	r3, [r4, #0]
1000a6ac:	195a      	adds	r2, r3, r5
1000a6ae:	441c      	add	r4, r3
1000a6b0:	7863      	ldrb	r3, [r4, #1]
1000a6b2:	b295      	uxth	r5, r2
1000a6b4:	e7da      	b.n	1000a66c <cdcd_open+0x68>
1000a6b6:	460b      	mov	r3, r1
1000a6b8:	2509      	movs	r5, #9
1000a6ba:	e7d5      	b.n	1000a668 <cdcd_open+0x64>
1000a6bc:	20001c3c 	.word	0x20001c3c
1000a6c0:	20001c3e 	.word	0x20001c3e

1000a6c4 <cdcd_control_xfer_cb>:
1000a6c4:	7813      	ldrb	r3, [r2, #0]
1000a6c6:	f003 0360 	and.w	r3, r3, #96	@ 0x60
1000a6ca:	2b20      	cmp	r3, #32
1000a6cc:	d108      	bne.n	1000a6e0 <cdcd_control_xfer_cb+0x1c>
1000a6ce:	b570      	push	{r4, r5, r6, lr}
1000a6d0:	4c26      	ldr	r4, [pc, #152]	@ (1000a76c <cdcd_control_xfer_cb+0xa8>)
1000a6d2:	8893      	ldrh	r3, [r2, #4]
1000a6d4:	f894 c000 	ldrb.w	ip, [r4]
1000a6d8:	459c      	cmp	ip, r3
1000a6da:	d003      	beq.n	1000a6e4 <cdcd_control_xfer_cb+0x20>
1000a6dc:	2000      	movs	r0, #0
1000a6de:	bd70      	pop	{r4, r5, r6, pc}
1000a6e0:	2000      	movs	r0, #0
1000a6e2:	4770      	bx	lr
1000a6e4:	7853      	ldrb	r3, [r2, #1]
1000a6e6:	3b20      	subs	r3, #32
1000a6e8:	2b03      	cmp	r3, #3
1000a6ea:	d8f7      	bhi.n	1000a6dc <cdcd_control_xfer_cb+0x18>
1000a6ec:	e8df f003 	tbb	[pc, r3]
1000a6f0:	020d2327 	.word	0x020d2327
1000a6f4:	2901      	cmp	r1, #1
1000a6f6:	d02e      	beq.n	1000a756 <cdcd_control_xfer_cb+0x92>
1000a6f8:	2903      	cmp	r1, #3
1000a6fa:	d11e      	bne.n	1000a73a <cdcd_control_xfer_cb+0x76>
1000a6fc:	4b1c      	ldr	r3, [pc, #112]	@ (1000a770 <cdcd_control_xfer_cb+0xac>)
1000a6fe:	b1e3      	cbz	r3, 1000a73a <cdcd_control_xfer_cb+0x76>
1000a700:	2000      	movs	r0, #0
1000a702:	8851      	ldrh	r1, [r2, #2]
1000a704:	f3af 8000 	nop.w
1000a708:	e017      	b.n	1000a73a <cdcd_control_xfer_cb+0x76>
1000a70a:	2901      	cmp	r1, #1
1000a70c:	d023      	beq.n	1000a756 <cdcd_control_xfer_cb+0x92>
1000a70e:	2903      	cmp	r1, #3
1000a710:	d113      	bne.n	1000a73a <cdcd_control_xfer_cb+0x76>
1000a712:	8855      	ldrh	r5, [r2, #2]
1000a714:	4817      	ldr	r0, [pc, #92]	@ (1000a774 <cdcd_control_xfer_cb+0xb0>)
1000a716:	f005 0601 	and.w	r6, r5, #1
1000a71a:	f086 0101 	eor.w	r1, r6, #1
1000a71e:	7125      	strb	r5, [r4, #4]
1000a720:	f000 fdb8 	bl	1000b294 <tu_fifo_set_overwritable>
1000a724:	4b14      	ldr	r3, [pc, #80]	@ (1000a778 <cdcd_control_xfer_cb+0xb4>)
1000a726:	b143      	cbz	r3, 1000a73a <cdcd_control_xfer_cb+0x76>
1000a728:	4631      	mov	r1, r6
1000a72a:	2000      	movs	r0, #0
1000a72c:	f3c5 0240 	ubfx	r2, r5, #1, #1
1000a730:	f3af 8000 	nop.w
1000a734:	e001      	b.n	1000a73a <cdcd_control_xfer_cb+0x76>
1000a736:	2901      	cmp	r1, #1
1000a738:	d011      	beq.n	1000a75e <cdcd_control_xfer_cb+0x9a>
1000a73a:	2001      	movs	r0, #1
1000a73c:	bd70      	pop	{r4, r5, r6, pc}
1000a73e:	2901      	cmp	r1, #1
1000a740:	d00d      	beq.n	1000a75e <cdcd_control_xfer_cb+0x9a>
1000a742:	2903      	cmp	r1, #3
1000a744:	d1f9      	bne.n	1000a73a <cdcd_control_xfer_cb+0x76>
1000a746:	4b0d      	ldr	r3, [pc, #52]	@ (1000a77c <cdcd_control_xfer_cb+0xb8>)
1000a748:	2b00      	cmp	r3, #0
1000a74a:	d0f6      	beq.n	1000a73a <cdcd_control_xfer_cb+0x76>
1000a74c:	2000      	movs	r0, #0
1000a74e:	490c      	ldr	r1, [pc, #48]	@ (1000a780 <cdcd_control_xfer_cb+0xbc>)
1000a750:	f7fe faac 	bl	10008cac <tud_cdc_line_coding_cb>
1000a754:	e7f1      	b.n	1000a73a <cdcd_control_xfer_cb+0x76>
1000a756:	4611      	mov	r1, r2
1000a758:	f7ff fcbc 	bl	1000a0d4 <tud_control_status>
1000a75c:	e7ed      	b.n	1000a73a <cdcd_control_xfer_cb+0x76>
1000a75e:	4611      	mov	r1, r2
1000a760:	2307      	movs	r3, #7
1000a762:	4a07      	ldr	r2, [pc, #28]	@ (1000a780 <cdcd_control_xfer_cb+0xbc>)
1000a764:	f7ff fcd0 	bl	1000a108 <tud_control_xfer>
1000a768:	e7e7      	b.n	1000a73a <cdcd_control_xfer_cb+0x76>
1000a76a:	bf00      	nop
1000a76c:	20001c3c 	.word	0x20001c3c
1000a770:	00000000 	.word	0x00000000
1000a774:	20001c60 	.word	0x20001c60
1000a778:	00000000 	.word	0x00000000
1000a77c:	10008cad 	.word	0x10008cad
1000a780:	20001c44 	.word	0x20001c44

1000a784 <cdcd_xfer_cb>:
1000a784:	e92d 43f8 	stmdb	sp!, {r3, r4, r5, r6, r7, r8, r9, lr}
1000a788:	4e35      	ldr	r6, [pc, #212]	@ (1000a860 <cdcd_xfer_cb+0xdc>)
1000a78a:	460c      	mov	r4, r1
1000a78c:	78f2      	ldrb	r2, [r6, #3]
1000a78e:	4607      	mov	r7, r0
1000a790:	428a      	cmp	r2, r1
1000a792:	461d      	mov	r5, r3
1000a794:	d03d      	beq.n	1000a812 <cdcd_xfer_cb+0x8e>
1000a796:	78b3      	ldrb	r3, [r6, #2]
1000a798:	428b      	cmp	r3, r1
1000a79a:	d012      	beq.n	1000a7c2 <cdcd_xfer_cb+0x3e>
1000a79c:	f04f 23e0 	mov.w	r3, #3758153728	@ 0xe000e000
1000a7a0:	f8d3 3df0 	ldr.w	r3, [r3, #3568]	@ 0xdf0
1000a7a4:	07db      	lsls	r3, r3, #31
1000a7a6:	d432      	bmi.n	1000a80e <cdcd_xfer_cb+0x8a>
1000a7a8:	2000      	movs	r0, #0
1000a7aa:	e8bd 83f8 	ldmia.w	sp!, {r3, r4, r5, r6, r7, r8, r9, pc}
1000a7ae:	4b2d      	ldr	r3, [pc, #180]	@ (1000a864 <cdcd_xfer_cb+0xe0>)
1000a7b0:	b123      	cbz	r3, 1000a7bc <cdcd_xfer_cb+0x38>
1000a7b2:	482d      	ldr	r0, [pc, #180]	@ (1000a868 <cdcd_xfer_cb+0xe4>)
1000a7b4:	f000 fb80 	bl	1000aeb8 <tu_fifo_empty>
1000a7b8:	2800      	cmp	r0, #0
1000a7ba:	d04d      	beq.n	1000a858 <cdcd_xfer_cb+0xd4>
1000a7bc:	2000      	movs	r0, #0
1000a7be:	f7ff fd99 	bl	1000a2f4 <_prep_out_transaction.isra.0>
1000a7c2:	78b3      	ldrb	r3, [r6, #2]
1000a7c4:	42a3      	cmp	r3, r4
1000a7c6:	d001      	beq.n	1000a7cc <cdcd_xfer_cb+0x48>
1000a7c8:	2001      	movs	r0, #1
1000a7ca:	e7ee      	b.n	1000a7aa <cdcd_xfer_cb+0x26>
1000a7cc:	4b27      	ldr	r3, [pc, #156]	@ (1000a86c <cdcd_xfer_cb+0xe8>)
1000a7ce:	b113      	cbz	r3, 1000a7d6 <cdcd_xfer_cb+0x52>
1000a7d0:	2000      	movs	r0, #0
1000a7d2:	f3af 8000 	nop.w
1000a7d6:	2000      	movs	r0, #0
1000a7d8:	f7ff fe2e 	bl	1000a438 <tud_cdc_n_write_flush>
1000a7dc:	2800      	cmp	r0, #0
1000a7de:	d1f3      	bne.n	1000a7c8 <cdcd_xfer_cb+0x44>
1000a7e0:	4823      	ldr	r0, [pc, #140]	@ (1000a870 <cdcd_xfer_cb+0xec>)
1000a7e2:	f000 fb59 	bl	1000ae98 <tu_fifo_count>
1000a7e6:	2800      	cmp	r0, #0
1000a7e8:	d1ee      	bne.n	1000a7c8 <cdcd_xfer_cb+0x44>
1000a7ea:	2d00      	cmp	r5, #0
1000a7ec:	d0ec      	beq.n	1000a7c8 <cdcd_xfer_cb+0x44>
1000a7ee:	f015 053f 	ands.w	r5, r5, #63	@ 0x3f
1000a7f2:	d1e9      	bne.n	1000a7c8 <cdcd_xfer_cb+0x44>
1000a7f4:	4638      	mov	r0, r7
1000a7f6:	78b1      	ldrb	r1, [r6, #2]
1000a7f8:	f7ff fc10 	bl	1000a01c <usbd_edpt_claim>
1000a7fc:	2800      	cmp	r0, #0
1000a7fe:	d0e3      	beq.n	1000a7c8 <cdcd_xfer_cb+0x44>
1000a800:	462b      	mov	r3, r5
1000a802:	462a      	mov	r2, r5
1000a804:	4638      	mov	r0, r7
1000a806:	78b1      	ldrb	r1, [r6, #2]
1000a808:	f7ff fc2c 	bl	1000a064 <usbd_edpt_xfer>
1000a80c:	e7dc      	b.n	1000a7c8 <cdcd_xfer_cb+0x44>
1000a80e:	be00      	bkpt	0x0000
1000a810:	e7ca      	b.n	1000a7a8 <cdcd_xfer_cb+0x24>
1000a812:	b29a      	uxth	r2, r3
1000a814:	4917      	ldr	r1, [pc, #92]	@ (1000a874 <cdcd_xfer_cb+0xf0>)
1000a816:	f106 0010 	add.w	r0, r6, #16
1000a81a:	f000 fc71 	bl	1000b100 <tu_fifo_write_n>
1000a81e:	4b16      	ldr	r3, [pc, #88]	@ (1000a878 <cdcd_xfer_cb+0xf4>)
1000a820:	2b00      	cmp	r3, #0
1000a822:	d0c4      	beq.n	1000a7ae <cdcd_xfer_cb+0x2a>
1000a824:	7973      	ldrb	r3, [r6, #5]
1000a826:	2bff      	cmp	r3, #255	@ 0xff
1000a828:	d0c1      	beq.n	1000a7ae <cdcd_xfer_cb+0x2a>
1000a82a:	2d00      	cmp	r5, #0
1000a82c:	d0bf      	beq.n	1000a7ae <cdcd_xfer_cb+0x2a>
1000a82e:	f8df 8044 	ldr.w	r8, [pc, #68]	@ 1000a874 <cdcd_xfer_cb+0xf0>
1000a832:	eb08 0905 	add.w	r9, r8, r5
1000a836:	e002      	b.n	1000a83e <cdcd_xfer_cb+0xba>
1000a838:	45c8      	cmp	r8, r9
1000a83a:	d0b8      	beq.n	1000a7ae <cdcd_xfer_cb+0x2a>
1000a83c:	7973      	ldrb	r3, [r6, #5]
1000a83e:	f818 2b01 	ldrb.w	r2, [r8], #1
1000a842:	429a      	cmp	r2, r3
1000a844:	d1f8      	bne.n	1000a838 <cdcd_xfer_cb+0xb4>
1000a846:	4808      	ldr	r0, [pc, #32]	@ (1000a868 <cdcd_xfer_cb+0xe4>)
1000a848:	f000 fb36 	bl	1000aeb8 <tu_fifo_empty>
1000a84c:	2800      	cmp	r0, #0
1000a84e:	d1f3      	bne.n	1000a838 <cdcd_xfer_cb+0xb4>
1000a850:	7971      	ldrb	r1, [r6, #5]
1000a852:	f3af 8000 	nop.w
1000a856:	e7ef      	b.n	1000a838 <cdcd_xfer_cb+0xb4>
1000a858:	f3af 8000 	nop.w
1000a85c:	e7ae      	b.n	1000a7bc <cdcd_xfer_cb+0x38>
1000a85e:	bf00      	nop
1000a860:	20001c3c 	.word	0x20001c3c
1000a864:	00000000 	.word	0x00000000
1000a868:	20001c4c 	.word	0x20001c4c
1000a86c:	00000000 	.word	0x00000000
1000a870:	20001c60 	.word	0x20001c60
1000a874:	20001bb8 	.word	0x20001bb8
1000a878:	00000000 	.word	0x00000000

1000a87c <vendord_init>:
1000a87c:	b5f0      	push	{r4, r5, r6, r7, lr}
1000a87e:	f44f 7213 	mov.w	r2, #588	@ 0x24c
1000a882:	b085      	sub	sp, #20
1000a884:	2100      	movs	r1, #0
1000a886:	4812      	ldr	r0, [pc, #72]	@ (1000a8d0 <vendord_init+0x54>)
1000a888:	f002 f81e 	bl	1000c8c8 <memset>
1000a88c:	2640      	movs	r6, #64	@ 0x40
1000a88e:	2300      	movs	r3, #0
1000a890:	f44f 7580 	mov.w	r5, #256	@ 0x100
1000a894:	4f0e      	ldr	r7, [pc, #56]	@ (1000a8d0 <vendord_init+0x54>)
1000a896:	4c0f      	ldr	r4, [pc, #60]	@ (1000a8d4 <vendord_init+0x58>)
1000a898:	f507 72a6 	add.w	r2, r7, #332	@ 0x14c
1000a89c:	4619      	mov	r1, r3
1000a89e:	e9cd 4602 	strd	r4, r6, [sp, #8]
1000a8a2:	9200      	str	r2, [sp, #0]
1000a8a4:	9501      	str	r5, [sp, #4]
1000a8a6:	461a      	mov	r2, r3
1000a8a8:	f507 7094 	add.w	r0, r7, #296	@ 0x128
1000a8ac:	f000 f9c6 	bl	1000ac3c <tu_edpt_stream_init>
1000a8b0:	2300      	movs	r3, #0
1000a8b2:	4638      	mov	r0, r7
1000a8b4:	f107 0128 	add.w	r1, r7, #40	@ 0x28
1000a8b8:	4434      	add	r4, r6
1000a8ba:	9100      	str	r1, [sp, #0]
1000a8bc:	2201      	movs	r2, #1
1000a8be:	4619      	mov	r1, r3
1000a8c0:	e9cd 4602 	strd	r4, r6, [sp, #8]
1000a8c4:	9501      	str	r5, [sp, #4]
1000a8c6:	3004      	adds	r0, #4
1000a8c8:	f000 f9b8 	bl	1000ac3c <tu_edpt_stream_init>
1000a8cc:	b005      	add	sp, #20
1000a8ce:	bdf0      	pop	{r4, r5, r6, r7, pc}
1000a8d0:	20001f20 	.word	0x20001f20
1000a8d4:	20001ea0 	.word	0x20001ea0

1000a8d8 <vendord_deinit>:
1000a8d8:	b508      	push	{r3, lr}
1000a8da:	4805      	ldr	r0, [pc, #20]	@ (1000a8f0 <vendord_deinit+0x18>)
1000a8dc:	f000 f9da 	bl	1000ac94 <tu_edpt_stream_deinit>
1000a8e0:	4b03      	ldr	r3, [pc, #12]	@ (1000a8f0 <vendord_deinit+0x18>)
1000a8e2:	f5a3 7092 	sub.w	r0, r3, #292	@ 0x124
1000a8e6:	f000 f9d5 	bl	1000ac94 <tu_edpt_stream_deinit>
1000a8ea:	2001      	movs	r0, #1
1000a8ec:	bd08      	pop	{r3, pc}
1000a8ee:	bf00      	nop
1000a8f0:	20002048 	.word	0x20002048

1000a8f4 <vendord_reset>:
1000a8f4:	b538      	push	{r3, r4, r5, lr}
1000a8f6:	2500      	movs	r5, #0
1000a8f8:	4c06      	ldr	r4, [pc, #24]	@ (1000a914 <vendord_reset+0x20>)
1000a8fa:	f504 7098 	add.w	r0, r4, #304	@ 0x130
1000a8fe:	7025      	strb	r5, [r4, #0]
1000a900:	f000 fcac 	bl	1000b25c <tu_fifo_clear>
1000a904:	f104 000c 	add.w	r0, r4, #12
1000a908:	f000 fca8 	bl	1000b25c <tu_fifo_clear>
1000a90c:	f884 5129 	strb.w	r5, [r4, #297]	@ 0x129
1000a910:	7165      	strb	r5, [r4, #5]
1000a912:	bd38      	pop	{r3, r4, r5, pc}
1000a914:	20001f20 	.word	0x20001f20

1000a918 <vendord_open>:
1000a918:	e92d 43f8 	stmdb	sp!, {r3, r4, r5, r6, r7, r8, r9, lr}
1000a91c:	794b      	ldrb	r3, [r1, #5]
1000a91e:	2bff      	cmp	r3, #255	@ 0xff
1000a920:	d151      	bne.n	1000a9c6 <vendord_open+0xae>
1000a922:	4e35      	ldr	r6, [pc, #212]	@ (1000a9f8 <vendord_open+0xe0>)
1000a924:	f896 3129 	ldrb.w	r3, [r6, #297]	@ 0x129
1000a928:	2b00      	cmp	r3, #0
1000a92a:	d14c      	bne.n	1000a9c6 <vendord_open+0xae>
1000a92c:	f896 8005 	ldrb.w	r8, [r6, #5]
1000a930:	f1b8 0f00 	cmp.w	r8, #0
1000a934:	d147      	bne.n	1000a9c6 <vendord_open+0xae>
1000a936:	788b      	ldrb	r3, [r1, #2]
1000a938:	780c      	ldrb	r4, [r1, #0]
1000a93a:	7033      	strb	r3, [r6, #0]
1000a93c:	790b      	ldrb	r3, [r1, #4]
1000a93e:	460f      	mov	r7, r1
1000a940:	440c      	add	r4, r1
1000a942:	b3ab      	cbz	r3, 1000a9b0 <vendord_open+0x98>
1000a944:	4681      	mov	r9, r0
1000a946:	18a5      	adds	r5, r4, r2
1000a948:	e003      	b.n	1000a952 <vendord_open+0x3a>
1000a94a:	42a5      	cmp	r5, r4
1000a94c:	d930      	bls.n	1000a9b0 <vendord_open+0x98>
1000a94e:	7823      	ldrb	r3, [r4, #0]
1000a950:	441c      	add	r4, r3
1000a952:	7863      	ldrb	r3, [r4, #1]
1000a954:	2b05      	cmp	r3, #5
1000a956:	d1f8      	bne.n	1000a94a <vendord_open+0x32>
1000a958:	42ac      	cmp	r4, r5
1000a95a:	d229      	bcs.n	1000a9b0 <vendord_open+0x98>
1000a95c:	4621      	mov	r1, r4
1000a95e:	4648      	mov	r0, r9
1000a960:	f7ff fb3a 	bl	10009fd8 <usbd_edpt_open>
1000a964:	b340      	cbz	r0, 1000a9b8 <vendord_open+0xa0>
1000a966:	78a3      	ldrb	r3, [r4, #2]
1000a968:	09db      	lsrs	r3, r3, #7
1000a96a:	d12f      	bne.n	1000a9cc <vendord_open+0xb4>
1000a96c:	4823      	ldr	r0, [pc, #140]	@ (1000a9fc <vendord_open+0xe4>)
1000a96e:	f000 fc75 	bl	1000b25c <tu_fifo_clear>
1000a972:	78a3      	ldrb	r3, [r4, #2]
1000a974:	f896 2128 	ldrb.w	r2, [r6, #296]	@ 0x128
1000a978:	f886 3129 	strb.w	r3, [r6, #297]	@ 0x129
1000a97c:	88a3      	ldrh	r3, [r4, #4]
1000a97e:	4648      	mov	r0, r9
1000a980:	f3c3 030a 	ubfx	r3, r3, #0, #11
1000a984:	f5a3 7300 	sub.w	r3, r3, #512	@ 0x200
1000a988:	fab3 f383 	clz	r3, r3
1000a98c:	095b      	lsrs	r3, r3, #5
1000a98e:	f363 0241 	bfi	r2, r3, #1, #1
1000a992:	491b      	ldr	r1, [pc, #108]	@ (1000aa00 <vendord_open+0xe8>)
1000a994:	f886 2128 	strb.w	r2, [r6, #296]	@ 0x128
1000a998:	f000 f9ea 	bl	1000ad70 <tu_edpt_stream_read_xfer>
1000a99c:	b160      	cbz	r0, 1000a9b8 <vendord_open+0xa0>
1000a99e:	7823      	ldrb	r3, [r4, #0]
1000a9a0:	793a      	ldrb	r2, [r7, #4]
1000a9a2:	f108 0801 	add.w	r8, r8, #1
1000a9a6:	441c      	add	r4, r3
1000a9a8:	fa5f f388 	uxtb.w	r3, r8
1000a9ac:	429a      	cmp	r2, r3
1000a9ae:	d8d0      	bhi.n	1000a952 <vendord_open+0x3a>
1000a9b0:	1be1      	subs	r1, r4, r7
1000a9b2:	b288      	uxth	r0, r1
1000a9b4:	e8bd 83f8 	ldmia.w	sp!, {r3, r4, r5, r6, r7, r8, r9, pc}
1000a9b8:	f04f 23e0 	mov.w	r3, #3758153728	@ 0xe000e000
1000a9bc:	f8d3 3df0 	ldr.w	r3, [r3, #3568]	@ 0xdf0
1000a9c0:	07db      	lsls	r3, r3, #31
1000a9c2:	d500      	bpl.n	1000a9c6 <vendord_open+0xae>
1000a9c4:	be00      	bkpt	0x0000
1000a9c6:	2000      	movs	r0, #0
1000a9c8:	e8bd 83f8 	ldmia.w	sp!, {r3, r4, r5, r6, r7, r8, r9, pc}
1000a9cc:	480d      	ldr	r0, [pc, #52]	@ (1000aa04 <vendord_open+0xec>)
1000a9ce:	f000 fc45 	bl	1000b25c <tu_fifo_clear>
1000a9d2:	78a3      	ldrb	r3, [r4, #2]
1000a9d4:	7932      	ldrb	r2, [r6, #4]
1000a9d6:	7173      	strb	r3, [r6, #5]
1000a9d8:	88a3      	ldrh	r3, [r4, #4]
1000a9da:	490b      	ldr	r1, [pc, #44]	@ (1000aa08 <vendord_open+0xf0>)
1000a9dc:	f3c3 030a 	ubfx	r3, r3, #0, #11
1000a9e0:	f5a3 7300 	sub.w	r3, r3, #512	@ 0x200
1000a9e4:	fab3 f383 	clz	r3, r3
1000a9e8:	095b      	lsrs	r3, r3, #5
1000a9ea:	f363 0241 	bfi	r2, r3, #1, #1
1000a9ee:	2000      	movs	r0, #0
1000a9f0:	7132      	strb	r2, [r6, #4]
1000a9f2:	f000 f985 	bl	1000ad00 <tu_edpt_stream_write_xfer>
1000a9f6:	e7d2      	b.n	1000a99e <vendord_open+0x86>
1000a9f8:	20001f20 	.word	0x20001f20
1000a9fc:	20002050 	.word	0x20002050
1000aa00:	20002048 	.word	0x20002048
1000aa04:	20001f2c 	.word	0x20001f2c
1000aa08:	20001f24 	.word	0x20001f24

1000aa0c <vendord_xfer_cb>:
1000aa0c:	b570      	push	{r4, r5, r6, lr}
1000aa0e:	4c1b      	ldr	r4, [pc, #108]	@ (1000aa7c <vendord_xfer_cb+0x70>)
1000aa10:	4606      	mov	r6, r0
1000aa12:	f894 c129 	ldrb.w	ip, [r4, #297]	@ 0x129
1000aa16:	461d      	mov	r5, r3
1000aa18:	458c      	cmp	ip, r1
1000aa1a:	d011      	beq.n	1000aa40 <vendord_xfer_cb+0x34>
1000aa1c:	7963      	ldrb	r3, [r4, #5]
1000aa1e:	428b      	cmp	r3, r1
1000aa20:	d001      	beq.n	1000aa26 <vendord_xfer_cb+0x1a>
1000aa22:	2000      	movs	r0, #0
1000aa24:	bd70      	pop	{r4, r5, r6, pc}
1000aa26:	4b16      	ldr	r3, [pc, #88]	@ (1000aa80 <vendord_xfer_cb+0x74>)
1000aa28:	b11b      	cbz	r3, 1000aa32 <vendord_xfer_cb+0x26>
1000aa2a:	2000      	movs	r0, #0
1000aa2c:	b2a9      	uxth	r1, r5
1000aa2e:	f3af 8000 	nop.w
1000aa32:	4630      	mov	r0, r6
1000aa34:	4913      	ldr	r1, [pc, #76]	@ (1000aa84 <vendord_xfer_cb+0x78>)
1000aa36:	f000 f963 	bl	1000ad00 <tu_edpt_stream_write_xfer>
1000aa3a:	b1c8      	cbz	r0, 1000aa70 <vendord_xfer_cb+0x64>
1000aa3c:	2001      	movs	r0, #1
1000aa3e:	bd70      	pop	{r4, r5, r6, pc}
1000aa40:	f8b4 3134 	ldrh.w	r3, [r4, #308]	@ 0x134
1000aa44:	b963      	cbnz	r3, 1000aa60 <vendord_xfer_cb+0x54>
1000aa46:	4b10      	ldr	r3, [pc, #64]	@ (1000aa88 <vendord_xfer_cb+0x7c>)
1000aa48:	b123      	cbz	r3, 1000aa54 <vendord_xfer_cb+0x48>
1000aa4a:	2000      	movs	r0, #0
1000aa4c:	490f      	ldr	r1, [pc, #60]	@ (1000aa8c <vendord_xfer_cb+0x80>)
1000aa4e:	b2aa      	uxth	r2, r5
1000aa50:	f3af 8000 	nop.w
1000aa54:	4630      	mov	r0, r6
1000aa56:	490e      	ldr	r1, [pc, #56]	@ (1000aa90 <vendord_xfer_cb+0x84>)
1000aa58:	f000 f98a 	bl	1000ad70 <tu_edpt_stream_read_xfer>
1000aa5c:	2001      	movs	r0, #1
1000aa5e:	e7ee      	b.n	1000aa3e <vendord_xfer_cb+0x32>
1000aa60:	f8d4 112c 	ldr.w	r1, [r4, #300]	@ 0x12c
1000aa64:	b2aa      	uxth	r2, r5
1000aa66:	f504 7098 	add.w	r0, r4, #304	@ 0x130
1000aa6a:	f000 fb49 	bl	1000b100 <tu_fifo_write_n>
1000aa6e:	e7ea      	b.n	1000aa46 <vendord_xfer_cb+0x3a>
1000aa70:	462a      	mov	r2, r5
1000aa72:	4630      	mov	r0, r6
1000aa74:	4903      	ldr	r1, [pc, #12]	@ (1000aa84 <vendord_xfer_cb+0x78>)
1000aa76:	f000 f90f 	bl	1000ac98 <tu_edpt_stream_write_zlp_if_needed>
1000aa7a:	e7df      	b.n	1000aa3c <vendord_xfer_cb+0x30>
1000aa7c:	20001f20 	.word	0x20001f20
1000aa80:	00000000 	.word	0x00000000
1000aa84:	20001f24 	.word	0x20001f24
1000aa88:	00000000 	.word	0x00000000
1000aa8c:	20001ea0 	.word	0x20001ea0
1000aa90:	20002048 	.word	0x20002048

1000aa94 <tusb_rhport_init>:
1000aa94:	b510      	push	{r4, lr}
1000aa96:	b082      	sub	sp, #8
1000aa98:	b1c9      	cbz	r1, 1000aace <tusb_rhport_init+0x3a>
1000aa9a:	2801      	cmp	r0, #1
1000aa9c:	d80c      	bhi.n	1000aab8 <tusb_rhport_init+0x24>
1000aa9e:	780b      	ldrb	r3, [r1, #0]
1000aaa0:	b153      	cbz	r3, 1000aab8 <tusb_rhport_init+0x24>
1000aaa2:	4c14      	ldr	r4, [pc, #80]	@ (1000aaf4 <tusb_rhport_init+0x60>)
1000aaa4:	2b01      	cmp	r3, #1
1000aaa6:	5423      	strb	r3, [r4, r0]
1000aaa8:	d002      	beq.n	1000aab0 <tusb_rhport_init+0x1c>
1000aaaa:	2001      	movs	r0, #1
1000aaac:	b002      	add	sp, #8
1000aaae:	bd10      	pop	{r4, pc}
1000aab0:	f7fe fe08 	bl	100096c4 <tud_rhport_init>
1000aab4:	2800      	cmp	r0, #0
1000aab6:	d1f8      	bne.n	1000aaaa <tusb_rhport_init+0x16>
1000aab8:	f04f 23e0 	mov.w	r3, #3758153728	@ 0xe000e000
1000aabc:	f8d3 3df0 	ldr.w	r3, [r3, #3568]	@ 0xdf0
1000aac0:	07db      	lsls	r3, r3, #31
1000aac2:	d402      	bmi.n	1000aaca <tusb_rhport_init+0x36>
1000aac4:	2000      	movs	r0, #0
1000aac6:	b002      	add	sp, #8
1000aac8:	bd10      	pop	{r4, pc}
1000aaca:	be00      	bkpt	0x0000
1000aacc:	e7fa      	b.n	1000aac4 <tusb_rhport_init+0x30>
1000aace:	2401      	movs	r4, #1
1000aad0:	4608      	mov	r0, r1
1000aad2:	a901      	add	r1, sp, #4
1000aad4:	f8ad 4004 	strh.w	r4, [sp, #4]
1000aad8:	f7fe fdf4 	bl	100096c4 <tud_rhport_init>
1000aadc:	b938      	cbnz	r0, 1000aaee <tusb_rhport_init+0x5a>
1000aade:	f04f 23e0 	mov.w	r3, #3758153728	@ 0xe000e000
1000aae2:	f8d3 3df0 	ldr.w	r3, [r3, #3568]	@ 0xdf0
1000aae6:	07da      	lsls	r2, r3, #31
1000aae8:	d5ed      	bpl.n	1000aac6 <tusb_rhport_init+0x32>
1000aaea:	be00      	bkpt	0x0000
1000aaec:	e7eb      	b.n	1000aac6 <tusb_rhport_init+0x32>
1000aaee:	4b01      	ldr	r3, [pc, #4]	@ (1000aaf4 <tusb_rhport_init+0x60>)
1000aaf0:	701c      	strb	r4, [r3, #0]
1000aaf2:	e7e8      	b.n	1000aac6 <tusb_rhport_init+0x32>
1000aaf4:	20001d78 	.word	0x20001d78

1000aaf8 <tu_edpt_claim>:
1000aaf8:	b5f8      	push	{r3, r4, r5, r6, r7, lr}
1000aafa:	7803      	ldrb	r3, [r0, #0]
1000aafc:	f013 0401 	ands.w	r4, r3, #1
1000ab00:	d11a      	bne.n	1000ab38 <tu_edpt_claim+0x40>
1000ab02:	7803      	ldrb	r3, [r0, #0]
1000ab04:	4605      	mov	r5, r0
1000ab06:	075a      	lsls	r2, r3, #29
1000ab08:	f3c3 0780 	ubfx	r7, r3, #2, #1
1000ab0c:	d501      	bpl.n	1000ab12 <tu_edpt_claim+0x1a>
1000ab0e:	4620      	mov	r0, r4
1000ab10:	bdf8      	pop	{r3, r4, r5, r6, r7, pc}
1000ab12:	460e      	mov	r6, r1
1000ab14:	f04f 31ff 	mov.w	r1, #4294967295
1000ab18:	4630      	mov	r0, r6
1000ab1a:	f002 fcf1 	bl	1000d500 <__mutex_enter_timeout_ms_veneer>
1000ab1e:	782b      	ldrb	r3, [r5, #0]
1000ab20:	f013 0401 	ands.w	r4, r3, #1
1000ab24:	d10b      	bne.n	1000ab3e <tu_edpt_claim+0x46>
1000ab26:	782b      	ldrb	r3, [r5, #0]
1000ab28:	075b      	lsls	r3, r3, #29
1000ab2a:	d409      	bmi.n	1000ab40 <tu_edpt_claim+0x48>
1000ab2c:	782b      	ldrb	r3, [r5, #0]
1000ab2e:	2401      	movs	r4, #1
1000ab30:	f043 0304 	orr.w	r3, r3, #4
1000ab34:	702b      	strb	r3, [r5, #0]
1000ab36:	e003      	b.n	1000ab40 <tu_edpt_claim+0x48>
1000ab38:	2400      	movs	r4, #0
1000ab3a:	4620      	mov	r0, r4
1000ab3c:	bdf8      	pop	{r3, r4, r5, r6, r7, pc}
1000ab3e:	463c      	mov	r4, r7
1000ab40:	4630      	mov	r0, r6
1000ab42:	f002 fce9 	bl	1000d518 <__mutex_exit_veneer>
1000ab46:	4620      	mov	r0, r4
1000ab48:	bdf8      	pop	{r3, r4, r5, r6, r7, pc}
1000ab4a:	bf00      	nop

1000ab4c <tu_edpt_release>:
1000ab4c:	b570      	push	{r4, r5, r6, lr}
1000ab4e:	460c      	mov	r4, r1
1000ab50:	4605      	mov	r5, r0
1000ab52:	f04f 31ff 	mov.w	r1, #4294967295
1000ab56:	4620      	mov	r0, r4
1000ab58:	f002 fcd2 	bl	1000d500 <__mutex_enter_timeout_ms_veneer>
1000ab5c:	782b      	ldrb	r3, [r5, #0]
1000ab5e:	f3c3 0680 	ubfx	r6, r3, #2, #1
1000ab62:	075b      	lsls	r3, r3, #29
1000ab64:	d508      	bpl.n	1000ab78 <tu_edpt_release+0x2c>
1000ab66:	782b      	ldrb	r3, [r5, #0]
1000ab68:	f013 0301 	ands.w	r3, r3, #1
1000ab6c:	bf11      	iteee	ne
1000ab6e:	2600      	movne	r6, #0
1000ab70:	782a      	ldrbeq	r2, [r5, #0]
1000ab72:	f363 0282 	bfieq	r2, r3, #2, #1
1000ab76:	702a      	strbeq	r2, [r5, #0]
1000ab78:	4620      	mov	r0, r4
1000ab7a:	f002 fccd 	bl	1000d518 <__mutex_exit_veneer>
1000ab7e:	4630      	mov	r0, r6
1000ab80:	bd70      	pop	{r4, r5, r6, pc}
1000ab82:	bf00      	nop

1000ab84 <tu_edpt_validate>:
1000ab84:	78c3      	ldrb	r3, [r0, #3]
1000ab86:	8882      	ldrh	r2, [r0, #4]
1000ab88:	f003 0003 	and.w	r0, r3, #3
1000ab8c:	2802      	cmp	r0, #2
1000ab8e:	f3c2 020a 	ubfx	r2, r2, #0, #11
1000ab92:	d015      	beq.n	1000abc0 <tu_edpt_validate+0x3c>
1000ab94:	2803      	cmp	r0, #3
1000ab96:	d00a      	beq.n	1000abae <tu_edpt_validate+0x2a>
1000ab98:	2801      	cmp	r0, #1
1000ab9a:	d11c      	bne.n	1000abd6 <tu_edpt_validate+0x52>
1000ab9c:	2902      	cmp	r1, #2
1000ab9e:	f240 33ff 	movw	r3, #1023	@ 0x3ff
1000aba2:	bf08      	it	eq
1000aba4:	f44f 6380 	moveq.w	r3, #1024	@ 0x400
1000aba8:	4293      	cmp	r3, r2
1000abaa:	d30d      	bcc.n	1000abc8 <tu_edpt_validate+0x44>
1000abac:	4770      	bx	lr
1000abae:	2902      	cmp	r1, #2
1000abb0:	bf14      	ite	ne
1000abb2:	2340      	movne	r3, #64	@ 0x40
1000abb4:	f44f 6380 	moveq.w	r3, #1024	@ 0x400
1000abb8:	4293      	cmp	r3, r2
1000abba:	d305      	bcc.n	1000abc8 <tu_edpt_validate+0x44>
1000abbc:	2001      	movs	r0, #1
1000abbe:	4770      	bx	lr
1000abc0:	2902      	cmp	r1, #2
1000abc2:	d00a      	beq.n	1000abda <tu_edpt_validate+0x56>
1000abc4:	2a40      	cmp	r2, #64	@ 0x40
1000abc6:	d9f9      	bls.n	1000abbc <tu_edpt_validate+0x38>
1000abc8:	f04f 23e0 	mov.w	r3, #3758153728	@ 0xe000e000
1000abcc:	f8d3 3df0 	ldr.w	r3, [r3, #3568]	@ 0xdf0
1000abd0:	07db      	lsls	r3, r3, #31
1000abd2:	d500      	bpl.n	1000abd6 <tu_edpt_validate+0x52>
1000abd4:	be00      	bkpt	0x0000
1000abd6:	2000      	movs	r0, #0
1000abd8:	4770      	bx	lr
1000abda:	f5b2 7f00 	cmp.w	r2, #512	@ 0x200
1000abde:	d0ed      	beq.n	1000abbc <tu_edpt_validate+0x38>
1000abe0:	e7f2      	b.n	1000abc8 <tu_edpt_validate+0x44>
1000abe2:	bf00      	nop

1000abe4 <tu_edpt_bind_driver>:
1000abe4:	440a      	add	r2, r1
1000abe6:	4291      	cmp	r1, r2
1000abe8:	d226      	bcs.n	1000ac38 <tu_edpt_bind_driver+0x54>
1000abea:	f891 c001 	ldrb.w	ip, [r1, #1]
1000abee:	f1bc 0f05 	cmp.w	ip, #5
1000abf2:	d005      	beq.n	1000ac00 <tu_edpt_bind_driver+0x1c>
1000abf4:	f891 c000 	ldrb.w	ip, [r1]
1000abf8:	4461      	add	r1, ip
1000abfa:	428a      	cmp	r2, r1
1000abfc:	d8f5      	bhi.n	1000abea <tu_edpt_bind_driver+0x6>
1000abfe:	4770      	bx	lr
1000ac00:	b500      	push	{lr}
1000ac02:	f891 c002 	ldrb.w	ip, [r1, #2]
1000ac06:	f00c 0e7f 	and.w	lr, ip, #127	@ 0x7f
1000ac0a:	eb00 0e4e 	add.w	lr, r0, lr, lsl #1
1000ac0e:	ea4f 1cdc 	mov.w	ip, ip, lsr #7
1000ac12:	f80e 300c 	strb.w	r3, [lr, ip]
1000ac16:	f891 c000 	ldrb.w	ip, [r1]
1000ac1a:	4461      	add	r1, ip
1000ac1c:	428a      	cmp	r2, r1
1000ac1e:	d909      	bls.n	1000ac34 <tu_edpt_bind_driver+0x50>
1000ac20:	f891 c001 	ldrb.w	ip, [r1, #1]
1000ac24:	f1bc 0f05 	cmp.w	ip, #5
1000ac28:	d0eb      	beq.n	1000ac02 <tu_edpt_bind_driver+0x1e>
1000ac2a:	f891 c000 	ldrb.w	ip, [r1]
1000ac2e:	4461      	add	r1, ip
1000ac30:	428a      	cmp	r2, r1
1000ac32:	d8f5      	bhi.n	1000ac20 <tu_edpt_bind_driver+0x3c>
1000ac34:	f85d fb04 	ldr.w	pc, [sp], #4
1000ac38:	4770      	bx	lr
1000ac3a:	bf00      	nop

1000ac3c <tu_edpt_stream_init>:
1000ac3c:	e92d 41f0 	stmdb	sp!, {r4, r5, r6, r7, r8, lr}
1000ac40:	468e      	mov	lr, r1
1000ac42:	b082      	sub	sp, #8
1000ac44:	9300      	str	r3, [sp, #0]
1000ac46:	f890 c000 	ldrb.w	ip, [r0]
1000ac4a:	9e08      	ldr	r6, [sp, #32]
1000ac4c:	f8bd 7024 	ldrh.w	r7, [sp, #36]	@ 0x24
1000ac50:	f36e 0c00 	bfi	ip, lr, #0, #1
1000ac54:	4604      	mov	r4, r0
1000ac56:	4615      	mov	r5, r2
1000ac58:	2301      	movs	r3, #1
1000ac5a:	4631      	mov	r1, r6
1000ac5c:	463a      	mov	r2, r7
1000ac5e:	f800 cb08 	strb.w	ip, [r0], #8
1000ac62:	f8bd 802c 	ldrh.w	r8, [sp, #44]	@ 0x2c
1000ac66:	f000 f8e7 	bl	1000ae38 <tu_fifo_config>
1000ac6a:	b106      	cbz	r6, 1000ac6e <tu_edpt_stream_init+0x32>
1000ac6c:	b93f      	cbnz	r7, 1000ac7e <tu_edpt_stream_init+0x42>
1000ac6e:	2001      	movs	r0, #1
1000ac70:	9b0a      	ldr	r3, [sp, #40]	@ 0x28
1000ac72:	f8a4 8002 	strh.w	r8, [r4, #2]
1000ac76:	6063      	str	r3, [r4, #4]
1000ac78:	b002      	add	sp, #8
1000ac7a:	e8bd 81f0 	ldmia.w	sp!, {r4, r5, r6, r7, r8, pc}
1000ac7e:	f104 061c 	add.w	r6, r4, #28
1000ac82:	4630      	mov	r0, r6
1000ac84:	f7fb f8b2 	bl	10005dec <mutex_init>
1000ac88:	b10d      	cbz	r5, 1000ac8e <tu_edpt_stream_init+0x52>
1000ac8a:	4635      	mov	r5, r6
1000ac8c:	2600      	movs	r6, #0
1000ac8e:	e9c4 5605 	strd	r5, r6, [r4, #20]
1000ac92:	e7ec      	b.n	1000ac6e <tu_edpt_stream_init+0x32>

1000ac94 <tu_edpt_stream_deinit>:
1000ac94:	2001      	movs	r0, #1
1000ac96:	4770      	bx	lr

1000ac98 <tu_edpt_stream_write_zlp_if_needed>:
1000ac98:	b5f8      	push	{r3, r4, r5, r6, r7, lr}
1000ac9a:	4607      	mov	r7, r0
1000ac9c:	4608      	mov	r0, r1
1000ac9e:	f240 13ff 	movw	r3, #511	@ 0x1ff
1000aca2:	4615      	mov	r5, r2
1000aca4:	f810 2b08 	ldrb.w	r2, [r0], #8
1000aca8:	460c      	mov	r4, r1
1000acaa:	f012 0f02 	tst.w	r2, #2
1000acae:	bf0c      	ite	eq
1000acb0:	263f      	moveq	r6, #63	@ 0x3f
1000acb2:	461e      	movne	r6, r3
1000acb4:	f000 f8f0 	bl	1000ae98 <tu_fifo_count>
1000acb8:	b928      	cbnz	r0, 1000acc6 <tu_edpt_stream_write_zlp_if_needed+0x2e>
1000acba:	b125      	cbz	r5, 1000acc6 <tu_edpt_stream_write_zlp_if_needed+0x2e>
1000acbc:	422e      	tst	r6, r5
1000acbe:	d102      	bne.n	1000acc6 <tu_edpt_stream_write_zlp_if_needed+0x2e>
1000acc0:	7823      	ldrb	r3, [r4, #0]
1000acc2:	07da      	lsls	r2, r3, #31
1000acc4:	d501      	bpl.n	1000acca <tu_edpt_stream_write_zlp_if_needed+0x32>
1000acc6:	2000      	movs	r0, #0
1000acc8:	bdf8      	pop	{r3, r4, r5, r6, r7, pc}
1000acca:	4638      	mov	r0, r7
1000accc:	7861      	ldrb	r1, [r4, #1]
1000acce:	f7ff f9a5 	bl	1000a01c <usbd_edpt_claim>
1000acd2:	2800      	cmp	r0, #0
1000acd4:	d0f7      	beq.n	1000acc6 <tu_edpt_stream_write_zlp_if_needed+0x2e>
1000acd6:	7823      	ldrb	r3, [r4, #0]
1000acd8:	f013 0301 	ands.w	r3, r3, #1
1000acdc:	d007      	beq.n	1000acee <tu_edpt_stream_write_zlp_if_needed+0x56>
1000acde:	f04f 23e0 	mov.w	r3, #3758153728	@ 0xe000e000
1000ace2:	f8d3 3df0 	ldr.w	r3, [r3, #3568]	@ 0xdf0
1000ace6:	07db      	lsls	r3, r3, #31
1000ace8:	d5ed      	bpl.n	1000acc6 <tu_edpt_stream_write_zlp_if_needed+0x2e>
1000acea:	be00      	bkpt	0x0000
1000acec:	e7eb      	b.n	1000acc6 <tu_edpt_stream_write_zlp_if_needed+0x2e>
1000acee:	461a      	mov	r2, r3
1000acf0:	4638      	mov	r0, r7
1000acf2:	7861      	ldrb	r1, [r4, #1]
1000acf4:	f7ff f9b6 	bl	1000a064 <usbd_edpt_xfer>
1000acf8:	2800      	cmp	r0, #0
1000acfa:	d0f0      	beq.n	1000acde <tu_edpt_stream_write_zlp_if_needed+0x46>
1000acfc:	bdf8      	pop	{r3, r4, r5, r6, r7, pc}
1000acfe:	bf00      	nop

1000ad00 <tu_edpt_stream_write_xfer>:
1000ad00:	b570      	push	{r4, r5, r6, lr}
1000ad02:	f101 0508 	add.w	r5, r1, #8
1000ad06:	4606      	mov	r6, r0
1000ad08:	4628      	mov	r0, r5
1000ad0a:	460c      	mov	r4, r1
1000ad0c:	f000 f8c4 	bl	1000ae98 <tu_fifo_count>
1000ad10:	b110      	cbz	r0, 1000ad18 <tu_edpt_stream_write_xfer+0x18>
1000ad12:	7823      	ldrb	r3, [r4, #0]
1000ad14:	07da      	lsls	r2, r3, #31
1000ad16:	d501      	bpl.n	1000ad1c <tu_edpt_stream_write_xfer+0x1c>
1000ad18:	2000      	movs	r0, #0
1000ad1a:	bd70      	pop	{r4, r5, r6, pc}
1000ad1c:	4630      	mov	r0, r6
1000ad1e:	7861      	ldrb	r1, [r4, #1]
1000ad20:	f7ff f97c 	bl	1000a01c <usbd_edpt_claim>
1000ad24:	2800      	cmp	r0, #0
1000ad26:	d0f7      	beq.n	1000ad18 <tu_edpt_stream_write_xfer+0x18>
1000ad28:	4628      	mov	r0, r5
1000ad2a:	8862      	ldrh	r2, [r4, #2]
1000ad2c:	6861      	ldr	r1, [r4, #4]
1000ad2e:	f000 f929 	bl	1000af84 <tu_fifo_read_n>
1000ad32:	7823      	ldrb	r3, [r4, #0]
1000ad34:	4605      	mov	r5, r0
1000ad36:	f003 0301 	and.w	r3, r3, #1
1000ad3a:	b140      	cbz	r0, 1000ad4e <tu_edpt_stream_write_xfer+0x4e>
1000ad3c:	b173      	cbz	r3, 1000ad5c <tu_edpt_stream_write_xfer+0x5c>
1000ad3e:	f04f 23e0 	mov.w	r3, #3758153728	@ 0xe000e000
1000ad42:	f8d3 3df0 	ldr.w	r3, [r3, #3568]	@ 0xdf0
1000ad46:	07db      	lsls	r3, r3, #31
1000ad48:	d5e6      	bpl.n	1000ad18 <tu_edpt_stream_write_xfer+0x18>
1000ad4a:	be00      	bkpt	0x0000
1000ad4c:	e7e4      	b.n	1000ad18 <tu_edpt_stream_write_xfer+0x18>
1000ad4e:	2b00      	cmp	r3, #0
1000ad50:	d1e2      	bne.n	1000ad18 <tu_edpt_stream_write_xfer+0x18>
1000ad52:	4630      	mov	r0, r6
1000ad54:	7861      	ldrb	r1, [r4, #1]
1000ad56:	f7ff f973 	bl	1000a040 <usbd_edpt_release>
1000ad5a:	e7dd      	b.n	1000ad18 <tu_edpt_stream_write_xfer+0x18>
1000ad5c:	4603      	mov	r3, r0
1000ad5e:	6862      	ldr	r2, [r4, #4]
1000ad60:	4630      	mov	r0, r6
1000ad62:	7861      	ldrb	r1, [r4, #1]
1000ad64:	f7ff f97e 	bl	1000a064 <usbd_edpt_xfer>
1000ad68:	2800      	cmp	r0, #0
1000ad6a:	d0e8      	beq.n	1000ad3e <tu_edpt_stream_write_xfer+0x3e>
1000ad6c:	4628      	mov	r0, r5
1000ad6e:	bd70      	pop	{r4, r5, r6, pc}

1000ad70 <tu_edpt_stream_read_xfer>:
1000ad70:	898a      	ldrh	r2, [r1, #12]
1000ad72:	e92d 41f0 	stmdb	sp!, {r4, r5, r6, r7, r8, lr}
1000ad76:	780b      	ldrb	r3, [r1, #0]
1000ad78:	460c      	mov	r4, r1
1000ad7a:	4606      	mov	r6, r0
1000ad7c:	b922      	cbnz	r2, 1000ad88 <tu_edpt_stream_read_xfer+0x18>
1000ad7e:	07dd      	lsls	r5, r3, #31
1000ad80:	d534      	bpl.n	1000adec <tu_edpt_stream_read_xfer+0x7c>
1000ad82:	2000      	movs	r0, #0
1000ad84:	e8bd 81f0 	ldmia.w	sp!, {r4, r5, r6, r7, r8, pc}
1000ad88:	f104 0708 	add.w	r7, r4, #8
1000ad8c:	0799      	lsls	r1, r3, #30
1000ad8e:	4638      	mov	r0, r7
1000ad90:	bf47      	ittee	mi
1000ad92:	f44f 487e 	movmi.w	r8, #65024	@ 0xfe00
1000ad96:	f44f 7500 	movmi.w	r5, #512	@ 0x200
1000ad9a:	f64f 78c0 	movwpl	r8, #65472	@ 0xffc0
1000ad9e:	2540      	movpl	r5, #64	@ 0x40
1000ada0:	f000 f894 	bl	1000aecc <tu_fifo_remaining>
1000ada4:	4285      	cmp	r5, r0
1000ada6:	d8ec      	bhi.n	1000ad82 <tu_edpt_stream_read_xfer+0x12>
1000ada8:	7823      	ldrb	r3, [r4, #0]
1000adaa:	07da      	lsls	r2, r3, #31
1000adac:	d4e9      	bmi.n	1000ad82 <tu_edpt_stream_read_xfer+0x12>
1000adae:	4630      	mov	r0, r6
1000adb0:	7861      	ldrb	r1, [r4, #1]
1000adb2:	f7ff f933 	bl	1000a01c <usbd_edpt_claim>
1000adb6:	2800      	cmp	r0, #0
1000adb8:	d0e3      	beq.n	1000ad82 <tu_edpt_stream_read_xfer+0x12>
1000adba:	4638      	mov	r0, r7
1000adbc:	f000 f886 	bl	1000aecc <tu_fifo_remaining>
1000adc0:	7823      	ldrb	r3, [r4, #0]
1000adc2:	4285      	cmp	r5, r0
1000adc4:	f003 0301 	and.w	r3, r3, #1
1000adc8:	d82d      	bhi.n	1000ae26 <tu_edpt_stream_read_xfer+0xb6>
1000adca:	b9bb      	cbnz	r3, 1000adfc <tu_edpt_stream_read_xfer+0x8c>
1000adcc:	8865      	ldrh	r5, [r4, #2]
1000adce:	ea08 0800 	and.w	r8, r8, r0
1000add2:	4545      	cmp	r5, r8
1000add4:	bf28      	it	cs
1000add6:	4645      	movcs	r5, r8
1000add8:	7861      	ldrb	r1, [r4, #1]
1000adda:	b35d      	cbz	r5, 1000ae34 <tu_edpt_stream_read_xfer+0xc4>
1000addc:	6862      	ldr	r2, [r4, #4]
1000adde:	462b      	mov	r3, r5
1000ade0:	4630      	mov	r0, r6
1000ade2:	f7ff f93f 	bl	1000a064 <usbd_edpt_xfer>
1000ade6:	b148      	cbz	r0, 1000adfc <tu_edpt_stream_read_xfer+0x8c>
1000ade8:	4628      	mov	r0, r5
1000adea:	e7cb      	b.n	1000ad84 <tu_edpt_stream_read_xfer+0x14>
1000adec:	7849      	ldrb	r1, [r1, #1]
1000adee:	f7ff f915 	bl	1000a01c <usbd_edpt_claim>
1000adf2:	2800      	cmp	r0, #0
1000adf4:	d0c5      	beq.n	1000ad82 <tu_edpt_stream_read_xfer+0x12>
1000adf6:	7823      	ldrb	r3, [r4, #0]
1000adf8:	07d8      	lsls	r0, r3, #31
1000adfa:	d507      	bpl.n	1000ae0c <tu_edpt_stream_read_xfer+0x9c>
1000adfc:	f04f 23e0 	mov.w	r3, #3758153728	@ 0xe000e000
1000ae00:	f8d3 3df0 	ldr.w	r3, [r3, #3568]	@ 0xdf0
1000ae04:	07db      	lsls	r3, r3, #31
1000ae06:	d5bc      	bpl.n	1000ad82 <tu_edpt_stream_read_xfer+0x12>
1000ae08:	be00      	bkpt	0x0000
1000ae0a:	e7ba      	b.n	1000ad82 <tu_edpt_stream_read_xfer+0x12>
1000ae0c:	8863      	ldrh	r3, [r4, #2]
1000ae0e:	7861      	ldrb	r1, [r4, #1]
1000ae10:	b13b      	cbz	r3, 1000ae22 <tu_edpt_stream_read_xfer+0xb2>
1000ae12:	6862      	ldr	r2, [r4, #4]
1000ae14:	4630      	mov	r0, r6
1000ae16:	f7ff f925 	bl	1000a064 <usbd_edpt_xfer>
1000ae1a:	2800      	cmp	r0, #0
1000ae1c:	d0ee      	beq.n	1000adfc <tu_edpt_stream_read_xfer+0x8c>
1000ae1e:	8860      	ldrh	r0, [r4, #2]
1000ae20:	e7b0      	b.n	1000ad84 <tu_edpt_stream_read_xfer+0x14>
1000ae22:	461a      	mov	r2, r3
1000ae24:	e7f6      	b.n	1000ae14 <tu_edpt_stream_read_xfer+0xa4>
1000ae26:	2b00      	cmp	r3, #0
1000ae28:	d1ab      	bne.n	1000ad82 <tu_edpt_stream_read_xfer+0x12>
1000ae2a:	4630      	mov	r0, r6
1000ae2c:	7861      	ldrb	r1, [r4, #1]
1000ae2e:	f7ff f907 	bl	1000a040 <usbd_edpt_release>
1000ae32:	e7a6      	b.n	1000ad82 <tu_edpt_stream_read_xfer+0x12>
1000ae34:	462a      	mov	r2, r5
1000ae36:	e7d2      	b.n	1000adde <tu_edpt_stream_read_xfer+0x6e>

1000ae38 <tu_fifo_config>:
1000ae38:	e92d 41f0 	stmdb	sp!, {r4, r5, r6, r7, r8, lr}
1000ae3c:	f5b2 4f00 	cmp.w	r2, #32768	@ 0x8000
1000ae40:	f89d 8018 	ldrb.w	r8, [sp, #24]
1000ae44:	d824      	bhi.n	1000ae90 <tu_fifo_config+0x58>
1000ae46:	4604      	mov	r4, r0
1000ae48:	68c0      	ldr	r0, [r0, #12]
1000ae4a:	4617      	mov	r7, r2
1000ae4c:	460e      	mov	r6, r1
1000ae4e:	461d      	mov	r5, r3
1000ae50:	b118      	cbz	r0, 1000ae5a <tu_fifo_config+0x22>
1000ae52:	f04f 31ff 	mov.w	r1, #4294967295
1000ae56:	f002 fb53 	bl	1000d500 <__mutex_enter_timeout_ms_veneer>
1000ae5a:	6920      	ldr	r0, [r4, #16]
1000ae5c:	b118      	cbz	r0, 1000ae66 <tu_fifo_config+0x2e>
1000ae5e:	f04f 31ff 	mov.w	r1, #4294967295
1000ae62:	f002 fb4d 	bl	1000d500 <__mutex_enter_timeout_ms_veneer>
1000ae66:	2200      	movs	r2, #0
1000ae68:	f3c5 030e 	ubfx	r3, r5, #0, #15
1000ae6c:	68e0      	ldr	r0, [r4, #12]
1000ae6e:	ea43 33c8 	orr.w	r3, r3, r8, lsl #15
1000ae72:	8162      	strh	r2, [r4, #10]
1000ae74:	6026      	str	r6, [r4, #0]
1000ae76:	80a7      	strh	r7, [r4, #4]
1000ae78:	80e3      	strh	r3, [r4, #6]
1000ae7a:	8122      	strh	r2, [r4, #8]
1000ae7c:	b108      	cbz	r0, 1000ae82 <tu_fifo_config+0x4a>
1000ae7e:	f002 fb4b 	bl	1000d518 <__mutex_exit_veneer>
1000ae82:	6920      	ldr	r0, [r4, #16]
1000ae84:	b108      	cbz	r0, 1000ae8a <tu_fifo_config+0x52>
1000ae86:	f002 fb47 	bl	1000d518 <__mutex_exit_veneer>
1000ae8a:	2001      	movs	r0, #1
1000ae8c:	e8bd 81f0 	ldmia.w	sp!, {r4, r5, r6, r7, r8, pc}
1000ae90:	2000      	movs	r0, #0
1000ae92:	e8bd 81f0 	ldmia.w	sp!, {r4, r5, r6, r7, r8, pc}
1000ae96:	bf00      	nop

1000ae98 <tu_fifo_count>:
1000ae98:	8903      	ldrh	r3, [r0, #8]
1000ae9a:	8942      	ldrh	r2, [r0, #10]
1000ae9c:	b29b      	uxth	r3, r3
1000ae9e:	b292      	uxth	r2, r2
1000aea0:	8880      	ldrh	r0, [r0, #4]
1000aea2:	4293      	cmp	r3, r2
1000aea4:	bf36      	itet	cc
1000aea6:	ebc2 0240 	rsbcc	r2, r2, r0, lsl #1
1000aeaa:	1a9b      	subcs	r3, r3, r2
1000aeac:	189b      	addcc	r3, r3, r2
1000aeae:	b29b      	uxth	r3, r3
1000aeb0:	4298      	cmp	r0, r3
1000aeb2:	bf28      	it	cs
1000aeb4:	4618      	movcs	r0, r3
1000aeb6:	4770      	bx	lr

1000aeb8 <tu_fifo_empty>:
1000aeb8:	8902      	ldrh	r2, [r0, #8]
1000aeba:	8943      	ldrh	r3, [r0, #10]
1000aebc:	b290      	uxth	r0, r2
1000aebe:	b29b      	uxth	r3, r3
1000aec0:	1ac0      	subs	r0, r0, r3
1000aec2:	fab0 f080 	clz	r0, r0
1000aec6:	0940      	lsrs	r0, r0, #5
1000aec8:	4770      	bx	lr
1000aeca:	bf00      	nop

1000aecc <tu_fifo_remaining>:
1000aecc:	8903      	ldrh	r3, [r0, #8]
1000aece:	8942      	ldrh	r2, [r0, #10]
1000aed0:	b29b      	uxth	r3, r3
1000aed2:	8880      	ldrh	r0, [r0, #4]
1000aed4:	b292      	uxth	r2, r2
1000aed6:	4293      	cmp	r3, r2
1000aed8:	bf36      	itet	cc
1000aeda:	ebc2 0240 	rsbcc	r2, r2, r0, lsl #1
1000aede:	1a9b      	subcs	r3, r3, r2
1000aee0:	189b      	addcc	r3, r3, r2
1000aee2:	b29b      	uxth	r3, r3
1000aee4:	4298      	cmp	r0, r3
1000aee6:	bf86      	itte	hi
1000aee8:	1ac0      	subhi	r0, r0, r3
1000aeea:	b280      	uxthhi	r0, r0
1000aeec:	2000      	movls	r0, #0
1000aeee:	4770      	bx	lr

1000aef0 <tu_fifo_read>:
1000aef0:	b538      	push	{r3, r4, r5, lr}
1000aef2:	4604      	mov	r4, r0
1000aef4:	6900      	ldr	r0, [r0, #16]
1000aef6:	460d      	mov	r5, r1
1000aef8:	b118      	cbz	r0, 1000af02 <tu_fifo_read+0x12>
1000aefa:	f04f 31ff 	mov.w	r1, #4294967295
1000aefe:	f002 faff 	bl	1000d500 <__mutex_enter_timeout_ms_veneer>
1000af02:	8921      	ldrh	r1, [r4, #8]
1000af04:	8963      	ldrh	r3, [r4, #10]
1000af06:	b289      	uxth	r1, r1
1000af08:	b29b      	uxth	r3, r3
1000af0a:	88a2      	ldrh	r2, [r4, #4]
1000af0c:	4299      	cmp	r1, r3
1000af0e:	bf36      	itet	cc
1000af10:	ebc3 0042 	rsbcc	r0, r3, r2, lsl #1
1000af14:	1ac8      	subcs	r0, r1, r3
1000af16:	1840      	addcc	r0, r0, r1
1000af18:	b280      	uxth	r0, r0
1000af1a:	b350      	cbz	r0, 1000af72 <tu_fifo_read+0x82>
1000af1c:	4282      	cmp	r2, r0
1000af1e:	d209      	bcs.n	1000af34 <tu_fifo_read+0x44>
1000af20:	4291      	cmp	r1, r2
1000af22:	bf2c      	ite	cs
1000af24:	1a89      	subcs	r1, r1, r2
1000af26:	1889      	addcc	r1, r1, r2
1000af28:	b28b      	uxth	r3, r1
1000af2a:	429a      	cmp	r2, r3
1000af2c:	8163      	strh	r3, [r4, #10]
1000af2e:	d803      	bhi.n	1000af38 <tu_fifo_read+0x48>
1000af30:	1a9b      	subs	r3, r3, r2
1000af32:	b29b      	uxth	r3, r3
1000af34:	429a      	cmp	r2, r3
1000af36:	d9fb      	bls.n	1000af30 <tu_fifo_read+0x40>
1000af38:	88e2      	ldrh	r2, [r4, #6]
1000af3a:	6821      	ldr	r1, [r4, #0]
1000af3c:	f3c2 020e 	ubfx	r2, r2, #0, #15
1000af40:	fb02 1103 	mla	r1, r2, r3, r1
1000af44:	4628      	mov	r0, r5
1000af46:	f002 f861 	bl	1000d00c <memcpy>
1000af4a:	8961      	ldrh	r1, [r4, #10]
1000af4c:	2501      	movs	r5, #1
1000af4e:	b289      	uxth	r1, r1
1000af50:	1c4b      	adds	r3, r1, #1
1000af52:	b29b      	uxth	r3, r3
1000af54:	4299      	cmp	r1, r3
1000af56:	88a2      	ldrh	r2, [r4, #4]
1000af58:	d90e      	bls.n	1000af78 <tu_fifo_read+0x88>
1000af5a:	2300      	movs	r3, #0
1000af5c:	fa02 f105 	lsl.w	r1, r2, r5
1000af60:	1a5b      	subs	r3, r3, r1
1000af62:	b29b      	uxth	r3, r3
1000af64:	6920      	ldr	r0, [r4, #16]
1000af66:	8163      	strh	r3, [r4, #10]
1000af68:	b108      	cbz	r0, 1000af6e <tu_fifo_read+0x7e>
1000af6a:	f002 fad5 	bl	1000d518 <__mutex_exit_veneer>
1000af6e:	4628      	mov	r0, r5
1000af70:	bd38      	pop	{r3, r4, r5, pc}
1000af72:	4605      	mov	r5, r0
1000af74:	8963      	ldrh	r3, [r4, #10]
1000af76:	b29b      	uxth	r3, r3
1000af78:	ebb3 0f42 	cmp.w	r3, r2, lsl #1
1000af7c:	ea4f 0142 	mov.w	r1, r2, lsl #1
1000af80:	dbf0      	blt.n	1000af64 <tu_fifo_read+0x74>
1000af82:	e7ed      	b.n	1000af60 <tu_fifo_read+0x70>

1000af84 <tu_fifo_read_n>:
1000af84:	e92d 47f0 	stmdb	sp!, {r4, r5, r6, r7, r8, r9, sl, lr}
1000af88:	4606      	mov	r6, r0
1000af8a:	6900      	ldr	r0, [r0, #16]
1000af8c:	4688      	mov	r8, r1
1000af8e:	4691      	mov	r9, r2
1000af90:	b118      	cbz	r0, 1000af9a <tu_fifo_read_n+0x16>
1000af92:	f04f 31ff 	mov.w	r1, #4294967295
1000af96:	f002 fab3 	bl	1000d500 <__mutex_enter_timeout_ms_veneer>
1000af9a:	8933      	ldrh	r3, [r6, #8]
1000af9c:	8974      	ldrh	r4, [r6, #10]
1000af9e:	b29b      	uxth	r3, r3
1000afa0:	b2a4      	uxth	r4, r4
1000afa2:	88b5      	ldrh	r5, [r6, #4]
1000afa4:	42a3      	cmp	r3, r4
1000afa6:	bf36      	itet	cc
1000afa8:	ebc4 0745 	rsbcc	r7, r4, r5, lsl #1
1000afac:	1b1f      	subcs	r7, r3, r4
1000afae:	18ff      	addcc	r7, r7, r3
1000afb0:	b2bf      	uxth	r7, r7
1000afb2:	2f00      	cmp	r7, #0
1000afb4:	d04a      	beq.n	1000b04c <tu_fifo_read_n+0xc8>
1000afb6:	42bd      	cmp	r5, r7
1000afb8:	d340      	bcc.n	1000b03c <tu_fifo_read_n+0xb8>
1000afba:	45b9      	cmp	r9, r7
1000afbc:	bf28      	it	cs
1000afbe:	46b9      	movcs	r9, r7
1000afc0:	42a5      	cmp	r5, r4
1000afc2:	fa1f f789 	uxth.w	r7, r9
1000afc6:	d803      	bhi.n	1000afd0 <tu_fifo_read_n+0x4c>
1000afc8:	1b64      	subs	r4, r4, r5
1000afca:	b2a4      	uxth	r4, r4
1000afcc:	42a5      	cmp	r5, r4
1000afce:	d9fb      	bls.n	1000afc8 <tu_fifo_read_n+0x44>
1000afd0:	f8b6 a006 	ldrh.w	sl, [r6, #6]
1000afd4:	1b2b      	subs	r3, r5, r4
1000afd6:	6831      	ldr	r1, [r6, #0]
1000afd8:	b29b      	uxth	r3, r3
1000afda:	f3ca 020e 	ubfx	r2, sl, #0, #15
1000afde:	429f      	cmp	r7, r3
1000afe0:	4692      	mov	sl, r2
1000afe2:	fb02 1104 	mla	r1, r2, r4, r1
1000afe6:	d923      	bls.n	1000b030 <tu_fifo_read_n+0xac>
1000afe8:	fb13 f302 	smulbb	r3, r3, r2
1000afec:	fa1f f983 	uxth.w	r9, r3
1000aff0:	464a      	mov	r2, r9
1000aff2:	4640      	mov	r0, r8
1000aff4:	1b7d      	subs	r5, r7, r5
1000aff6:	f002 f809 	bl	1000d00c <memcpy>
1000affa:	1962      	adds	r2, r4, r5
1000affc:	fb12 f20a 	smulbb	r2, r2, sl
1000b000:	6831      	ldr	r1, [r6, #0]
1000b002:	eb08 0009 	add.w	r0, r8, r9
1000b006:	b292      	uxth	r2, r2
1000b008:	f002 f800 	bl	1000d00c <memcpy>
1000b00c:	8972      	ldrh	r2, [r6, #10]
1000b00e:	88b5      	ldrh	r5, [r6, #4]
1000b010:	b292      	uxth	r2, r2
1000b012:	19d3      	adds	r3, r2, r7
1000b014:	b29b      	uxth	r3, r3
1000b016:	429a      	cmp	r2, r3
1000b018:	d91a      	bls.n	1000b050 <tu_fifo_read_n+0xcc>
1000b01a:	006a      	lsls	r2, r5, #1
1000b01c:	1a9b      	subs	r3, r3, r2
1000b01e:	b29b      	uxth	r3, r3
1000b020:	6930      	ldr	r0, [r6, #16]
1000b022:	8173      	strh	r3, [r6, #10]
1000b024:	b108      	cbz	r0, 1000b02a <tu_fifo_read_n+0xa6>
1000b026:	f002 fa77 	bl	1000d518 <__mutex_exit_veneer>
1000b02a:	4638      	mov	r0, r7
1000b02c:	e8bd 87f0 	ldmia.w	sp!, {r4, r5, r6, r7, r8, r9, sl, pc}
1000b030:	4640      	mov	r0, r8
1000b032:	fb07 f202 	mul.w	r2, r7, r2
1000b036:	f001 ffe9 	bl	1000d00c <memcpy>
1000b03a:	e7e7      	b.n	1000b00c <tu_fifo_read_n+0x88>
1000b03c:	42ab      	cmp	r3, r5
1000b03e:	bf2c      	ite	cs
1000b040:	1b5b      	subcs	r3, r3, r5
1000b042:	195b      	addcc	r3, r3, r5
1000b044:	b29c      	uxth	r4, r3
1000b046:	462f      	mov	r7, r5
1000b048:	8174      	strh	r4, [r6, #10]
1000b04a:	e7b6      	b.n	1000afba <tu_fifo_read_n+0x36>
1000b04c:	8973      	ldrh	r3, [r6, #10]
1000b04e:	b29b      	uxth	r3, r3
1000b050:	ebb3 0f45 	cmp.w	r3, r5, lsl #1
1000b054:	ea4f 0245 	mov.w	r2, r5, lsl #1
1000b058:	dbe2      	blt.n	1000b020 <tu_fifo_read_n+0x9c>
1000b05a:	e7df      	b.n	1000b01c <tu_fifo_read_n+0x98>

1000b05c <tu_fifo_write>:
1000b05c:	b5f8      	push	{r3, r4, r5, r6, r7, lr}
1000b05e:	4604      	mov	r4, r0
1000b060:	68c0      	ldr	r0, [r0, #12]
1000b062:	460e      	mov	r6, r1
1000b064:	b118      	cbz	r0, 1000b06e <tu_fifo_write+0x12>
1000b066:	f04f 31ff 	mov.w	r1, #4294967295
1000b06a:	f002 fa49 	bl	1000d500 <__mutex_enter_timeout_ms_veneer>
1000b06e:	8925      	ldrh	r5, [r4, #8]
1000b070:	8923      	ldrh	r3, [r4, #8]
1000b072:	8961      	ldrh	r1, [r4, #10]
1000b074:	b29b      	uxth	r3, r3
1000b076:	b289      	uxth	r1, r1
1000b078:	88a2      	ldrh	r2, [r4, #4]
1000b07a:	428b      	cmp	r3, r1
1000b07c:	bf36      	itet	cc
1000b07e:	ebc1 0142 	rsbcc	r1, r1, r2, lsl #1
1000b082:	1a5b      	subcs	r3, r3, r1
1000b084:	185b      	addcc	r3, r3, r1
1000b086:	b29b      	uxth	r3, r3
1000b088:	429a      	cmp	r2, r3
1000b08a:	b2ad      	uxth	r5, r5
1000b08c:	d808      	bhi.n	1000b0a0 <tu_fifo_write+0x44>
1000b08e:	79e7      	ldrb	r7, [r4, #7]
1000b090:	09ff      	lsrs	r7, r7, #7
1000b092:	d105      	bne.n	1000b0a0 <tu_fifo_write+0x44>
1000b094:	68e0      	ldr	r0, [r4, #12]
1000b096:	b108      	cbz	r0, 1000b09c <tu_fifo_write+0x40>
1000b098:	f002 fa3e 	bl	1000d518 <__mutex_exit_veneer>
1000b09c:	4638      	mov	r0, r7
1000b09e:	bdf8      	pop	{r3, r4, r5, r6, r7, pc}
1000b0a0:	4295      	cmp	r5, r2
1000b0a2:	bf28      	it	cs
1000b0a4:	462b      	movcs	r3, r5
1000b0a6:	d318      	bcc.n	1000b0da <tu_fifo_write+0x7e>
1000b0a8:	1a9b      	subs	r3, r3, r2
1000b0aa:	b29b      	uxth	r3, r3
1000b0ac:	4293      	cmp	r3, r2
1000b0ae:	d2fb      	bcs.n	1000b0a8 <tu_fifo_write+0x4c>
1000b0b0:	88e2      	ldrh	r2, [r4, #6]
1000b0b2:	6820      	ldr	r0, [r4, #0]
1000b0b4:	f3c2 020e 	ubfx	r2, r2, #0, #15
1000b0b8:	fb02 0003 	mla	r0, r2, r3, r0
1000b0bc:	4631      	mov	r1, r6
1000b0be:	f001 ffa5 	bl	1000d00c <memcpy>
1000b0c2:	1c6b      	adds	r3, r5, #1
1000b0c4:	b29b      	uxth	r3, r3
1000b0c6:	429d      	cmp	r5, r3
1000b0c8:	88a2      	ldrh	r2, [r4, #4]
1000b0ca:	d912      	bls.n	1000b0f2 <tu_fifo_write+0x96>
1000b0cc:	2300      	movs	r3, #0
1000b0ce:	0051      	lsls	r1, r2, #1
1000b0d0:	1a5b      	subs	r3, r3, r1
1000b0d2:	b29b      	uxth	r3, r3
1000b0d4:	2701      	movs	r7, #1
1000b0d6:	8123      	strh	r3, [r4, #8]
1000b0d8:	e7dc      	b.n	1000b094 <tu_fifo_write+0x38>
1000b0da:	88e2      	ldrh	r2, [r4, #6]
1000b0dc:	6820      	ldr	r0, [r4, #0]
1000b0de:	f3c2 020e 	ubfx	r2, r2, #0, #15
1000b0e2:	fb05 0002 	mla	r0, r5, r2, r0
1000b0e6:	4631      	mov	r1, r6
1000b0e8:	f001 ff90 	bl	1000d00c <memcpy>
1000b0ec:	3501      	adds	r5, #1
1000b0ee:	88a2      	ldrh	r2, [r4, #4]
1000b0f0:	b2ab      	uxth	r3, r5
1000b0f2:	ebb3 0f42 	cmp.w	r3, r2, lsl #1
1000b0f6:	ea4f 0142 	mov.w	r1, r2, lsl #1
1000b0fa:	dbeb      	blt.n	1000b0d4 <tu_fifo_write+0x78>
1000b0fc:	e7e8      	b.n	1000b0d0 <tu_fifo_write+0x74>
1000b0fe:	bf00      	nop

1000b100 <tu_fifo_write_n>:
1000b100:	e92d 4ff0 	stmdb	sp!, {r4, r5, r6, r7, r8, r9, sl, fp, lr}
1000b104:	4617      	mov	r7, r2
1000b106:	b083      	sub	sp, #12
1000b108:	2a00      	cmp	r2, #0
1000b10a:	d075      	beq.n	1000b1f8 <tu_fifo_write_n+0xf8>
1000b10c:	4606      	mov	r6, r0
1000b10e:	68c0      	ldr	r0, [r0, #12]
1000b110:	4689      	mov	r9, r1
1000b112:	b118      	cbz	r0, 1000b11c <tu_fifo_write_n+0x1c>
1000b114:	f04f 31ff 	mov.w	r1, #4294967295
1000b118:	f002 f9f2 	bl	1000d500 <__mutex_enter_timeout_ms_veneer>
1000b11c:	79f3      	ldrb	r3, [r6, #7]
1000b11e:	f8b6 8008 	ldrh.w	r8, [r6, #8]
1000b122:	8972      	ldrh	r2, [r6, #10]
1000b124:	09db      	lsrs	r3, r3, #7
1000b126:	88b5      	ldrh	r5, [r6, #4]
1000b128:	fa1f f888 	uxth.w	r8, r8
1000b12c:	b292      	uxth	r2, r2
1000b12e:	d13c      	bne.n	1000b1aa <tu_fifo_write_n+0xaa>
1000b130:	4590      	cmp	r8, r2
1000b132:	bf36      	itet	cc
1000b134:	ebc2 0245 	rsbcc	r2, r2, r5, lsl #1
1000b138:	eba8 0202 	subcs.w	r2, r8, r2
1000b13c:	4442      	addcc	r2, r8
1000b13e:	b292      	uxth	r2, r2
1000b140:	42aa      	cmp	r2, r5
1000b142:	d25e      	bcs.n	1000b202 <tu_fifo_write_n+0x102>
1000b144:	1aaa      	subs	r2, r5, r2
1000b146:	b292      	uxth	r2, r2
1000b148:	42ba      	cmp	r2, r7
1000b14a:	bf28      	it	cs
1000b14c:	463a      	movcs	r2, r7
1000b14e:	f8b6 b006 	ldrh.w	fp, [r6, #6]
1000b152:	b297      	uxth	r7, r2
1000b154:	1b7b      	subs	r3, r7, r5
1000b156:	eb08 0a07 	add.w	sl, r8, r7
1000b15a:	f3cb 0b0e 	ubfx	fp, fp, #0, #15
1000b15e:	b29b      	uxth	r3, r3
1000b160:	fa1f fa8a 	uxth.w	sl, sl
1000b164:	45a8      	cmp	r8, r5
1000b166:	4644      	mov	r4, r8
1000b168:	d303      	bcc.n	1000b172 <tu_fifo_write_n+0x72>
1000b16a:	1b64      	subs	r4, r4, r5
1000b16c:	b2a4      	uxth	r4, r4
1000b16e:	42ac      	cmp	r4, r5
1000b170:	d2fb      	bcs.n	1000b16a <tu_fifo_write_n+0x6a>
1000b172:	1b2d      	subs	r5, r5, r4
1000b174:	6830      	ldr	r0, [r6, #0]
1000b176:	b2ad      	uxth	r5, r5
1000b178:	42bd      	cmp	r5, r7
1000b17a:	fb0b 0004 	mla	r0, fp, r4, r0
1000b17e:	d357      	bcc.n	1000b230 <tu_fifo_write_n+0x130>
1000b180:	4649      	mov	r1, r9
1000b182:	fb0b f207 	mul.w	r2, fp, r7
1000b186:	f001 ff41 	bl	1000d00c <memcpy>
1000b18a:	88b2      	ldrh	r2, [r6, #4]
1000b18c:	45d0      	cmp	r8, sl
1000b18e:	ea4f 0342 	mov.w	r3, r2, lsl #1
1000b192:	d802      	bhi.n	1000b19a <tu_fifo_write_n+0x9a>
1000b194:	ebba 0f42 	cmp.w	sl, r2, lsl #1
1000b198:	db03      	blt.n	1000b1a2 <tu_fifo_write_n+0xa2>
1000b19a:	ebaa 0303 	sub.w	r3, sl, r3
1000b19e:	fa1f fa83 	uxth.w	sl, r3
1000b1a2:	463d      	mov	r5, r7
1000b1a4:	f8a6 a008 	strh.w	sl, [r6, #8]
1000b1a8:	e02c      	b.n	1000b204 <tu_fifo_write_n+0x104>
1000b1aa:	f8b6 b006 	ldrh.w	fp, [r6, #6]
1000b1ae:	42af      	cmp	r7, r5
1000b1b0:	f3cb 0b0e 	ubfx	fp, fp, #0, #15
1000b1b4:	d22f      	bcs.n	1000b216 <tu_fifo_write_n+0x116>
1000b1b6:	4590      	cmp	r8, r2
1000b1b8:	bf36      	itet	cc
1000b1ba:	ebc2 0145 	rsbcc	r1, r2, r5, lsl #1
1000b1be:	eba8 0102 	subcs.w	r1, r8, r2
1000b1c2:	4441      	addcc	r1, r8
1000b1c4:	b289      	uxth	r1, r1
1000b1c6:	0068      	lsls	r0, r5, #1
1000b1c8:	4439      	add	r1, r7
1000b1ca:	1b7b      	subs	r3, r7, r5
1000b1cc:	4281      	cmp	r1, r0
1000b1ce:	b29b      	uxth	r3, r3
1000b1d0:	db0d      	blt.n	1000b1ee <tu_fifo_write_n+0xee>
1000b1d2:	eb02 0a05 	add.w	sl, r2, r5
1000b1d6:	fa1f fa8a 	uxth.w	sl, sl
1000b1da:	ebaa 0807 	sub.w	r8, sl, r7
1000b1de:	fa1f f888 	uxth.w	r8, r8
1000b1e2:	4542      	cmp	r2, r8
1000b1e4:	d937      	bls.n	1000b256 <tu_fifo_write_n+0x156>
1000b1e6:	eba8 0000 	sub.w	r0, r8, r0
1000b1ea:	fa1f f880 	uxth.w	r8, r0
1000b1ee:	eb07 0a08 	add.w	sl, r7, r8
1000b1f2:	fa1f fa8a 	uxth.w	sl, sl
1000b1f6:	e7b5      	b.n	1000b164 <tu_fifo_write_n+0x64>
1000b1f8:	4615      	mov	r5, r2
1000b1fa:	4628      	mov	r0, r5
1000b1fc:	b003      	add	sp, #12
1000b1fe:	e8bd 8ff0 	ldmia.w	sp!, {r4, r5, r6, r7, r8, r9, sl, fp, pc}
1000b202:	2500      	movs	r5, #0
1000b204:	68f0      	ldr	r0, [r6, #12]
1000b206:	2800      	cmp	r0, #0
1000b208:	d0f7      	beq.n	1000b1fa <tu_fifo_write_n+0xfa>
1000b20a:	f002 f985 	bl	1000d518 <__mutex_exit_veneer>
1000b20e:	4628      	mov	r0, r5
1000b210:	b003      	add	sp, #12
1000b212:	e8bd 8ff0 	ldmia.w	sp!, {r4, r5, r6, r7, r8, r9, sl, fp, pc}
1000b216:	2d00      	cmp	r5, #0
1000b218:	d0f4      	beq.n	1000b204 <tu_fifo_write_n+0x104>
1000b21a:	1b7f      	subs	r7, r7, r5
1000b21c:	eb02 0a05 	add.w	sl, r2, r5
1000b220:	fb0b 9907 	mla	r9, fp, r7, r9
1000b224:	4690      	mov	r8, r2
1000b226:	462f      	mov	r7, r5
1000b228:	2300      	movs	r3, #0
1000b22a:	fa1f fa8a 	uxth.w	sl, sl
1000b22e:	e799      	b.n	1000b164 <tu_fifo_write_n+0x64>
1000b230:	fb15 f50b 	smulbb	r5, r5, fp
1000b234:	b2ad      	uxth	r5, r5
1000b236:	462a      	mov	r2, r5
1000b238:	4649      	mov	r1, r9
1000b23a:	9301      	str	r3, [sp, #4]
1000b23c:	f001 fee6 	bl	1000d00c <memcpy>
1000b240:	9b01      	ldr	r3, [sp, #4]
1000b242:	6830      	ldr	r0, [r6, #0]
1000b244:	18e2      	adds	r2, r4, r3
1000b246:	fb12 f20b 	smulbb	r2, r2, fp
1000b24a:	eb09 0105 	add.w	r1, r9, r5
1000b24e:	b292      	uxth	r2, r2
1000b250:	f001 fedc 	bl	1000d00c <memcpy>
1000b254:	e799      	b.n	1000b18a <tu_fifo_write_n+0x8a>
1000b256:	4540      	cmp	r0, r8
1000b258:	dc84      	bgt.n	1000b164 <tu_fifo_write_n+0x64>
1000b25a:	e7c4      	b.n	1000b1e6 <tu_fifo_write_n+0xe6>

1000b25c <tu_fifo_clear>:
1000b25c:	b510      	push	{r4, lr}
1000b25e:	4604      	mov	r4, r0
1000b260:	68c0      	ldr	r0, [r0, #12]
1000b262:	b118      	cbz	r0, 1000b26c <tu_fifo_clear+0x10>
1000b264:	f04f 31ff 	mov.w	r1, #4294967295
1000b268:	f002 f94a 	bl	1000d500 <__mutex_enter_timeout_ms_veneer>
1000b26c:	6920      	ldr	r0, [r4, #16]
1000b26e:	b118      	cbz	r0, 1000b278 <tu_fifo_clear+0x1c>
1000b270:	f04f 31ff 	mov.w	r1, #4294967295
1000b274:	f002 f944 	bl	1000d500 <__mutex_enter_timeout_ms_veneer>
1000b278:	2300      	movs	r3, #0
1000b27a:	68e0      	ldr	r0, [r4, #12]
1000b27c:	8163      	strh	r3, [r4, #10]
1000b27e:	8123      	strh	r3, [r4, #8]
1000b280:	b108      	cbz	r0, 1000b286 <tu_fifo_clear+0x2a>
1000b282:	f002 f949 	bl	1000d518 <__mutex_exit_veneer>
1000b286:	6920      	ldr	r0, [r4, #16]
1000b288:	b108      	cbz	r0, 1000b28e <tu_fifo_clear+0x32>
1000b28a:	f002 f945 	bl	1000d518 <__mutex_exit_veneer>
1000b28e:	2001      	movs	r0, #1
1000b290:	bd10      	pop	{r4, pc}
1000b292:	bf00      	nop

1000b294 <tu_fifo_set_overwritable>:
1000b294:	b538      	push	{r3, r4, r5, lr}
1000b296:	4604      	mov	r4, r0
1000b298:	68c0      	ldr	r0, [r0, #12]
1000b29a:	460d      	mov	r5, r1
1000b29c:	b118      	cbz	r0, 1000b2a6 <tu_fifo_set_overwritable+0x12>
1000b29e:	f04f 31ff 	mov.w	r1, #4294967295
1000b2a2:	f002 f92d 	bl	1000d500 <__mutex_enter_timeout_ms_veneer>
1000b2a6:	6920      	ldr	r0, [r4, #16]
1000b2a8:	b118      	cbz	r0, 1000b2b2 <tu_fifo_set_overwritable+0x1e>
1000b2aa:	f04f 31ff 	mov.w	r1, #4294967295
1000b2ae:	f002 f927 	bl	1000d500 <__mutex_enter_timeout_ms_veneer>
1000b2b2:	79e3      	ldrb	r3, [r4, #7]
1000b2b4:	68e0      	ldr	r0, [r4, #12]
1000b2b6:	f365 13c7 	bfi	r3, r5, #7, #1
1000b2ba:	71e3      	strb	r3, [r4, #7]
1000b2bc:	b108      	cbz	r0, 1000b2c2 <tu_fifo_set_overwritable+0x2e>
1000b2be:	f002 f92b 	bl	1000d518 <__mutex_exit_veneer>
1000b2c2:	6920      	ldr	r0, [r4, #16]
1000b2c4:	b108      	cbz	r0, 1000b2ca <tu_fifo_set_overwritable+0x36>
1000b2c6:	f002 f927 	bl	1000d518 <__mutex_exit_veneer>
1000b2ca:	2001      	movs	r0, #1
1000b2cc:	bd38      	pop	{r3, r4, r5, pc}
1000b2ce:	bf00      	nop

1000b2d0 <spi_init>:
1000b2d0:	4b38      	ldr	r3, [pc, #224]	@ (1000b3b4 <spi_init+0xe4>)
1000b2d2:	e92d 47f0 	stmdb	sp!, {r4, r5, r6, r7, r8, r9, sl, lr}
1000b2d6:	4298      	cmp	r0, r3
1000b2d8:	bf14      	ite	ne
1000b2da:	f44f 2300 	movne.w	r3, #524288	@ 0x80000
1000b2de:	f44f 2380 	moveq.w	r3, #262144	@ 0x40000
1000b2e2:	4607      	mov	r7, r0
1000b2e4:	460e      	mov	r6, r1
1000b2e6:	4d34      	ldr	r5, [pc, #208]	@ (1000b3b8 <spi_init+0xe8>)
1000b2e8:	4c34      	ldr	r4, [pc, #208]	@ (1000b3bc <spi_init+0xec>)
1000b2ea:	4a35      	ldr	r2, [pc, #212]	@ (1000b3c0 <spi_init+0xf0>)
1000b2ec:	602b      	str	r3, [r5, #0]
1000b2ee:	6023      	str	r3, [r4, #0]
1000b2f0:	6895      	ldr	r5, [r2, #8]
1000b2f2:	ea33 0505 	bics.w	r5, r3, r5
1000b2f6:	d1fb      	bne.n	1000b2f0 <spi_init+0x20>
1000b2f8:	2006      	movs	r0, #6
1000b2fa:	f7fb fa3f 	bl	1000677c <clock_get_hz>
1000b2fe:	4639      	mov	r1, r7
1000b300:	f04f 0a02 	mov.w	sl, #2
1000b304:	f851 ef04 	ldr.w	lr, [r1, #4]!
1000b308:	ea4f 59d6 	mov.w	r9, r6, lsr #23
1000b30c:	ea4f 2c46 	mov.w	ip, r6, lsl #9
1000b310:	f501 5840 	add.w	r8, r1, #12288	@ 0x3000
1000b314:	4663      	mov	r3, ip
1000b316:	464a      	mov	r2, r9
1000b318:	4654      	mov	r4, sl
1000b31a:	ea0e 0e0a 	and.w	lr, lr, sl
1000b31e:	f8c8 a000 	str.w	sl, [r8]
1000b322:	e008      	b.n	1000b336 <spi_init+0x66>
1000b324:	eb13 030c 	adds.w	r3, r3, ip
1000b328:	f104 0402 	add.w	r4, r4, #2
1000b32c:	eb42 0209 	adc.w	r2, r2, r9
1000b330:	f5b4 7f80 	cmp.w	r4, #256	@ 0x100
1000b334:	d003      	beq.n	1000b33e <spi_init+0x6e>
1000b336:	4298      	cmp	r0, r3
1000b338:	eb75 0a02 	sbcs.w	sl, r5, r2
1000b33c:	d2f2      	bcs.n	1000b324 <spi_init+0x54>
1000b33e:	f44f 7380 	mov.w	r3, #256	@ 0x100
1000b342:	ebc4 2204 	rsb	r2, r4, r4, lsl #8
1000b346:	e001      	b.n	1000b34c <spi_init+0x7c>
1000b348:	2b01      	cmp	r3, #1
1000b34a:	d030      	beq.n	1000b3ae <spi_init+0xde>
1000b34c:	fbb0 fcf2 	udiv	ip, r0, r2
1000b350:	4566      	cmp	r6, ip
1000b352:	4699      	mov	r9, r3
1000b354:	eba2 0204 	sub.w	r2, r2, r4
1000b358:	f103 33ff 	add.w	r3, r3, #4294967295
1000b35c:	d2f4      	bcs.n	1000b348 <spi_init+0x78>
1000b35e:	fb09 f904 	mul.w	r9, r9, r4
1000b362:	021d      	lsls	r5, r3, #8
1000b364:	613c      	str	r4, [r7, #16]
1000b366:	2402      	movs	r4, #2
1000b368:	463b      	mov	r3, r7
1000b36a:	2603      	movs	r6, #3
1000b36c:	683a      	ldr	r2, [r7, #0]
1000b36e:	f501 5100 	add.w	r1, r1, #8192	@ 0x2000
1000b372:	406a      	eors	r2, r5
1000b374:	f507 5c80 	add.w	ip, r7, #4096	@ 0x1000
1000b378:	f402 427f 	and.w	r2, r2, #65280	@ 0xff00
1000b37c:	f8cc 2000 	str.w	r2, [ip]
1000b380:	f8c1 e000 	str.w	lr, [r1]
1000b384:	687d      	ldr	r5, [r7, #4]
1000b386:	f8c8 4000 	str.w	r4, [r8]
1000b38a:	f853 2b24 	ldr.w	r2, [r3], #36
1000b38e:	4025      	ands	r5, r4
1000b390:	f082 0207 	eor.w	r2, r2, #7
1000b394:	f002 02cf 	and.w	r2, r2, #207	@ 0xcf
1000b398:	f503 5300 	add.w	r3, r3, #8192	@ 0x2000
1000b39c:	f8cc 2000 	str.w	r2, [ip]
1000b3a0:	fbb0 f0f9 	udiv	r0, r0, r9
1000b3a4:	600d      	str	r5, [r1, #0]
1000b3a6:	601e      	str	r6, [r3, #0]
1000b3a8:	600c      	str	r4, [r1, #0]
1000b3aa:	e8bd 87f0 	ldmia.w	sp!, {r4, r5, r6, r7, r8, r9, sl, pc}
1000b3ae:	46a1      	mov	r9, r4
1000b3b0:	e7d8      	b.n	1000b364 <spi_init+0x94>
1000b3b2:	bf00      	nop
1000b3b4:	40080000 	.word	0x40080000
1000b3b8:	40022000 	.word	0x40022000
1000b3bc:	40023000 	.word	0x40023000
1000b3c0:	40020000 	.word	0x40020000

1000b3c4 <dma_channel_unclaim>:
1000b3c4:	4601      	mov	r1, r0
1000b3c6:	4801      	ldr	r0, [pc, #4]	@ (1000b3cc <dma_channel_unclaim+0x8>)
1000b3c8:	f7fa ba94 	b.w	100058f4 <hw_claim_clear>
1000b3cc:	20002652 	.word	0x20002652

1000b3d0 <dma_claim_unused_channel>:
1000b3d0:	b510      	push	{r4, lr}
1000b3d2:	4c05      	ldr	r4, [pc, #20]	@ (1000b3e8 <dma_claim_unused_channel+0x18>)
1000b3d4:	b082      	sub	sp, #8
1000b3d6:	4601      	mov	r1, r0
1000b3d8:	230f      	movs	r3, #15
1000b3da:	2200      	movs	r2, #0
1000b3dc:	9400      	str	r4, [sp, #0]
1000b3de:	4803      	ldr	r0, [pc, #12]	@ (1000b3ec <dma_claim_unused_channel+0x1c>)
1000b3e0:	f7fa fa48 	bl	10005874 <hw_claim_unused_from_range>
1000b3e4:	b002      	add	sp, #8
1000b3e6:	bd10      	pop	{r4, pc}
1000b3e8:	1000daf8 	.word	0x1000daf8
1000b3ec:	20002652 	.word	0x20002652

1000b3f0 <adc_init>:
1000b3f0:	2301      	movs	r3, #1
1000b3f2:	4807      	ldr	r0, [pc, #28]	@ (1000b410 <adc_init+0x20>)
1000b3f4:	4907      	ldr	r1, [pc, #28]	@ (1000b414 <adc_init+0x24>)
1000b3f6:	4a08      	ldr	r2, [pc, #32]	@ (1000b418 <adc_init+0x28>)
1000b3f8:	6003      	str	r3, [r0, #0]
1000b3fa:	600b      	str	r3, [r1, #0]
1000b3fc:	6893      	ldr	r3, [r2, #8]
1000b3fe:	07d9      	lsls	r1, r3, #31
1000b400:	d5fc      	bpl.n	1000b3fc <adc_init+0xc>
1000b402:	2301      	movs	r3, #1
1000b404:	4a05      	ldr	r2, [pc, #20]	@ (1000b41c <adc_init+0x2c>)
1000b406:	6013      	str	r3, [r2, #0]
1000b408:	6813      	ldr	r3, [r2, #0]
1000b40a:	05db      	lsls	r3, r3, #23
1000b40c:	d5fc      	bpl.n	1000b408 <adc_init+0x18>
1000b40e:	4770      	bx	lr
1000b410:	40022000 	.word	0x40022000
1000b414:	40023000 	.word	0x40023000
1000b418:	40020000 	.word	0x40020000
1000b41c:	400a0000 	.word	0x400a0000

1000b420 <i2c_write_blocking_internal.constprop.0>:
1000b420:	e92d 41f0 	stmdb	sp!, {r4, r5, r6, r7, r8, lr}
1000b424:	2700      	movs	r7, #0
1000b426:	2401      	movs	r4, #1
1000b428:	4694      	mov	ip, r2
1000b42a:	6802      	ldr	r2, [r0, #0]
1000b42c:	4605      	mov	r5, r0
1000b42e:	66d7      	str	r7, [r2, #108]	@ 0x6c
1000b430:	6051      	str	r1, [r2, #4]
1000b432:	66d4      	str	r4, [r2, #108]	@ 0x6c
1000b434:	1e1c      	subs	r4, r3, #0
1000b436:	4638      	mov	r0, r7
1000b438:	f89d 6018 	ldrb.w	r6, [sp, #24]
1000b43c:	dd1e      	ble.n	1000b47c <i2c_write_blocking_internal.constprop.0+0x5c>
1000b43e:	7929      	ldrb	r1, [r5, #4]
1000b440:	f086 0701 	eor.w	r7, r6, #1
1000b444:	0289      	lsls	r1, r1, #10
1000b446:	027f      	lsls	r7, r7, #9
1000b448:	f104 3eff 	add.w	lr, r4, #4294967295
1000b44c:	4570      	cmp	r0, lr
1000b44e:	bf0c      	ite	eq
1000b450:	46b8      	moveq	r8, r7
1000b452:	f04f 0800 	movne.w	r8, #0
1000b456:	f81c 3b01 	ldrb.w	r3, [ip], #1
1000b45a:	430b      	orrs	r3, r1
1000b45c:	ea43 0308 	orr.w	r3, r3, r8
1000b460:	6113      	str	r3, [r2, #16]
1000b462:	6b53      	ldr	r3, [r2, #52]	@ 0x34
1000b464:	06d9      	lsls	r1, r3, #27
1000b466:	d5fc      	bpl.n	1000b462 <i2c_write_blocking_internal.constprop.0+0x42>
1000b468:	f8d2 1080 	ldr.w	r1, [r2, #128]	@ 0x80
1000b46c:	b949      	cbnz	r1, 1000b482 <i2c_write_blocking_internal.constprop.0+0x62>
1000b46e:	4570      	cmp	r0, lr
1000b470:	d01c      	beq.n	1000b4ac <i2c_write_blocking_internal.constprop.0+0x8c>
1000b472:	3001      	adds	r0, #1
1000b474:	4284      	cmp	r4, r0
1000b476:	f04f 0100 	mov.w	r1, #0
1000b47a:	d1e7      	bne.n	1000b44c <i2c_write_blocking_internal.constprop.0+0x2c>
1000b47c:	712e      	strb	r6, [r5, #4]
1000b47e:	e8bd 81f0 	ldmia.w	sp!, {r4, r5, r6, r7, r8, pc}
1000b482:	f04f 0801 	mov.w	r8, #1
1000b486:	6d53      	ldr	r3, [r2, #84]	@ 0x54
1000b488:	6b53      	ldr	r3, [r2, #52]	@ 0x34
1000b48a:	059b      	lsls	r3, r3, #22
1000b48c:	d5fc      	bpl.n	1000b488 <i2c_write_blocking_internal.constprop.0+0x68>
1000b48e:	6e13      	ldr	r3, [r2, #96]	@ 0x60
1000b490:	f1b8 0f00 	cmp.w	r8, #0
1000b494:	d0ed      	beq.n	1000b472 <i2c_write_blocking_internal.constprop.0+0x52>
1000b496:	b169      	cbz	r1, 1000b4b4 <i2c_write_blocking_internal.constprop.0+0x94>
1000b498:	07cb      	lsls	r3, r1, #31
1000b49a:	d40b      	bmi.n	1000b4b4 <i2c_write_blocking_internal.constprop.0+0x94>
1000b49c:	f011 0f08 	tst.w	r1, #8
1000b4a0:	bf08      	it	eq
1000b4a2:	f04f 30ff 	moveq.w	r0, #4294967295
1000b4a6:	712e      	strb	r6, [r5, #4]
1000b4a8:	e8bd 81f0 	ldmia.w	sp!, {r4, r5, r6, r7, r8, pc}
1000b4ac:	2e00      	cmp	r6, #0
1000b4ae:	d1e0      	bne.n	1000b472 <i2c_write_blocking_internal.constprop.0+0x52>
1000b4b0:	46b0      	mov	r8, r6
1000b4b2:	e7e9      	b.n	1000b488 <i2c_write_blocking_internal.constprop.0+0x68>
1000b4b4:	f04f 30ff 	mov.w	r0, #4294967295
1000b4b8:	e7e0      	b.n	1000b47c <i2c_write_blocking_internal.constprop.0+0x5c>
1000b4ba:	bf00      	nop

1000b4bc <i2c_set_baudrate>:
1000b4bc:	b5f8      	push	{r3, r4, r5, r6, r7, lr}
1000b4be:	4604      	mov	r4, r0
1000b4c0:	2005      	movs	r0, #5
1000b4c2:	460f      	mov	r7, r1
1000b4c4:	f7fb f95a 	bl	1000677c <clock_get_hz>
1000b4c8:	eb00 0c57 	add.w	ip, r0, r7, lsr #1
1000b4cc:	fbbc fcf7 	udiv	ip, ip, r7
1000b4d0:	4d20      	ldr	r5, [pc, #128]	@ (1000b554 <i2c_set_baudrate+0x98>)
1000b4d2:	eb0c 024c 	add.w	r2, ip, ip, lsl #1
1000b4d6:	fba5 6502 	umull	r6, r5, r5, r2
1000b4da:	491f      	ldr	r1, [pc, #124]	@ (1000b558 <i2c_set_baudrate+0x9c>)
1000b4dc:	08ae      	lsrs	r6, r5, #2
1000b4de:	428f      	cmp	r7, r1
1000b4e0:	eb00 0340 	add.w	r3, r0, r0, lsl #1
1000b4e4:	ebac 0595 	sub.w	r5, ip, r5, lsr #2
1000b4e8:	d82e      	bhi.n	1000b548 <i2c_set_baudrate+0x8c>
1000b4ea:	f101 41d6 	add.w	r1, r1, #1795162112	@ 0x6b000000
1000b4ee:	f501 01a1 	add.w	r1, r1, #5275648	@ 0x508000
1000b4f2:	f601 012c 	addw	r1, r1, #2092	@ 0x82c
1000b4f6:	fba1 1303 	umull	r1, r3, r1, r3
1000b4fa:	0d9b      	lsrs	r3, r3, #22
1000b4fc:	3301      	adds	r3, #1
1000b4fe:	2100      	movs	r1, #0
1000b500:	2a4f      	cmp	r2, #79	@ 0x4f
1000b502:	bf98      	it	ls
1000b504:	2201      	movls	r2, #1
1000b506:	6824      	ldr	r4, [r4, #0]
1000b508:	fbb0 f0fc 	udiv	r0, r0, ip
1000b50c:	66e1      	str	r1, [r4, #108]	@ 0x6c
1000b50e:	6821      	ldr	r1, [r4, #0]
1000b510:	f504 5780 	add.w	r7, r4, #4096	@ 0x1000
1000b514:	f081 0104 	eor.w	r1, r1, #4
1000b518:	f001 0106 	and.w	r1, r1, #6
1000b51c:	6039      	str	r1, [r7, #0]
1000b51e:	bf88      	it	hi
1000b520:	490c      	ldrhi	r1, [pc, #48]	@ (1000b554 <i2c_set_baudrate+0x98>)
1000b522:	61e5      	str	r5, [r4, #28]
1000b524:	bf84      	itt	hi
1000b526:	fba1 1202 	umullhi	r1, r2, r1, r2
1000b52a:	0992      	lsrhi	r2, r2, #6
1000b52c:	6226      	str	r6, [r4, #32]
1000b52e:	f8c4 20a0 	str.w	r2, [r4, #160]	@ 0xa0
1000b532:	4622      	mov	r2, r4
1000b534:	2101      	movs	r1, #1
1000b536:	f852 5f7c 	ldr.w	r5, [r2, #124]!
1000b53a:	406b      	eors	r3, r5
1000b53c:	b29b      	uxth	r3, r3
1000b53e:	f502 5280 	add.w	r2, r2, #4096	@ 0x1000
1000b542:	6013      	str	r3, [r2, #0]
1000b544:	66e1      	str	r1, [r4, #108]	@ 0x6c
1000b546:	bdf8      	pop	{r3, r4, r5, r6, r7, pc}
1000b548:	4904      	ldr	r1, [pc, #16]	@ (1000b55c <i2c_set_baudrate+0xa0>)
1000b54a:	fba1 1303 	umull	r1, r3, r1, r3
1000b54e:	0ddb      	lsrs	r3, r3, #23
1000b550:	3301      	adds	r3, #1
1000b552:	e7d4      	b.n	1000b4fe <i2c_set_baudrate+0x42>
1000b554:	cccccccd 	.word	0xcccccccd
1000b558:	000f423f 	.word	0x000f423f
1000b55c:	55e63b89 	.word	0x55e63b89

1000b560 <i2c_init>:
1000b560:	4a0e      	ldr	r2, [pc, #56]	@ (1000b59c <i2c_init+0x3c>)
1000b562:	b430      	push	{r4, r5}
1000b564:	4290      	cmp	r0, r2
1000b566:	bf14      	ite	ne
1000b568:	2220      	movne	r2, #32
1000b56a:	2210      	moveq	r2, #16
1000b56c:	4d0c      	ldr	r5, [pc, #48]	@ (1000b5a0 <i2c_init+0x40>)
1000b56e:	4b0d      	ldr	r3, [pc, #52]	@ (1000b5a4 <i2c_init+0x44>)
1000b570:	4c0d      	ldr	r4, [pc, #52]	@ (1000b5a8 <i2c_init+0x48>)
1000b572:	602a      	str	r2, [r5, #0]
1000b574:	601a      	str	r2, [r3, #0]
1000b576:	68a3      	ldr	r3, [r4, #8]
1000b578:	ea32 0303 	bics.w	r3, r2, r3
1000b57c:	d1fb      	bne.n	1000b576 <i2c_init+0x16>
1000b57e:	f240 1565 	movw	r5, #357	@ 0x165
1000b582:	2403      	movs	r4, #3
1000b584:	6802      	ldr	r2, [r0, #0]
1000b586:	7103      	strb	r3, [r0, #4]
1000b588:	66d3      	str	r3, [r2, #108]	@ 0x6c
1000b58a:	6015      	str	r5, [r2, #0]
1000b58c:	63d3      	str	r3, [r2, #60]	@ 0x3c
1000b58e:	6393      	str	r3, [r2, #56]	@ 0x38
1000b590:	f8c2 4088 	str.w	r4, [r2, #136]	@ 0x88
1000b594:	bc30      	pop	{r4, r5}
1000b596:	f7ff bf91 	b.w	1000b4bc <i2c_set_baudrate>
1000b59a:	bf00      	nop
1000b59c:	2000134c 	.word	0x2000134c
1000b5a0:	40022000 	.word	0x40022000
1000b5a4:	40023000 	.word	0x40023000
1000b5a8:	40020000 	.word	0x40020000

1000b5ac <i2c_write_blocking>:
1000b5ac:	b410      	push	{r4}
1000b5ae:	f89d 4004 	ldrb.w	r4, [sp, #4]
1000b5b2:	9401      	str	r4, [sp, #4]
1000b5b4:	f85d 4b04 	ldr.w	r4, [sp], #4
1000b5b8:	f7ff bf32 	b.w	1000b420 <i2c_write_blocking_internal.constprop.0>

1000b5bc <_ZN6st77896ST7789C1Ev>:
1000b5bc:	b510      	push	{r4, lr}
1000b5be:	4604      	mov	r4, r0
1000b5c0:	4b07      	ldr	r3, [pc, #28]	@ (1000b5e0 <_ZN6st77896ST7789C1Ev+0x24>)
1000b5c2:	f840 3b04 	str.w	r3, [r0], #4
1000b5c6:	f000 faef 	bl	1000bba8 <_ZN6st77893HALC1Ev>
1000b5ca:	4621      	mov	r1, r4
1000b5cc:	f104 0048 	add.w	r0, r4, #72	@ 0x48
1000b5d0:	f000 fe6e 	bl	1000c2b0 <_ZN6st77898GraphicsC1EPNS_6ST7789E>
1000b5d4:	2300      	movs	r3, #0
1000b5d6:	4620      	mov	r0, r4
1000b5d8:	f884 3050 	strb.w	r3, [r4, #80]	@ 0x50
1000b5dc:	bd10      	pop	{r4, pc}
1000b5de:	bf00      	nop
1000b5e0:	100258fc 	.word	0x100258fc

1000b5e4 <_ZN6st77896ST778913setAddrWindowEtttt>:
1000b5e4:	e92d 41f0 	stmdb	sp!, {r4, r5, r6, r7, r8, lr}
1000b5e8:	f8b0 c01c 	ldrh.w	ip, [r0, #28]
1000b5ec:	b082      	sub	sp, #8
1000b5ee:	8bc4      	ldrh	r4, [r0, #30]
1000b5f0:	f8bd e020 	ldrh.w	lr, [sp, #32]
1000b5f4:	eb01 050c 	add.w	r5, r1, ip
1000b5f8:	8c01      	ldrh	r1, [r0, #32]
1000b5fa:	4463      	add	r3, ip
1000b5fc:	4422      	add	r2, r4
1000b5fe:	44a6      	add	lr, r4
1000b600:	b139      	cbz	r1, 1000b612 <_ZN6st77896ST778913setAddrWindowEtttt+0x2e>
1000b602:	4461      	add	r1, ip
1000b604:	3901      	subs	r1, #1
1000b606:	428d      	cmp	r5, r1
1000b608:	bf28      	it	cs
1000b60a:	460d      	movcs	r5, r1
1000b60c:	428b      	cmp	r3, r1
1000b60e:	bf28      	it	cs
1000b610:	460b      	movcs	r3, r1
1000b612:	8c41      	ldrh	r1, [r0, #34]	@ 0x22
1000b614:	b139      	cbz	r1, 1000b626 <_ZN6st77896ST778913setAddrWindowEtttt+0x42>
1000b616:	4421      	add	r1, r4
1000b618:	3901      	subs	r1, #1
1000b61a:	428a      	cmp	r2, r1
1000b61c:	bf28      	it	cs
1000b61e:	460a      	movcs	r2, r1
1000b620:	458e      	cmp	lr, r1
1000b622:	bf28      	it	cs
1000b624:	468e      	movcs	lr, r1
1000b626:	f64f 7cff 	movw	ip, #65535	@ 0xffff
1000b62a:	4565      	cmp	r5, ip
1000b62c:	bf28      	it	cs
1000b62e:	4665      	movcs	r5, ip
1000b630:	4562      	cmp	r2, ip
1000b632:	bf28      	it	cs
1000b634:	4662      	movcs	r2, ip
1000b636:	4563      	cmp	r3, ip
1000b638:	bf28      	it	cs
1000b63a:	4663      	movcs	r3, ip
1000b63c:	1d04      	adds	r4, r0, #4
1000b63e:	45e6      	cmp	lr, ip
1000b640:	462f      	mov	r7, r5
1000b642:	4620      	mov	r0, r4
1000b644:	f04f 012a 	mov.w	r1, #42	@ 0x2a
1000b648:	4675      	mov	r5, lr
1000b64a:	4616      	mov	r6, r2
1000b64c:	bf28      	it	cs
1000b64e:	4665      	movcs	r5, ip
1000b650:	4698      	mov	r8, r3
1000b652:	f000 fba1 	bl	1000bd98 <_ZN6st77893HAL12writeCommandEh>
1000b656:	2000      	movs	r0, #0
1000b658:	2204      	movs	r2, #4
1000b65a:	f3c7 2307 	ubfx	r3, r7, #8, #8
1000b65e:	f363 0007 	bfi	r0, r3, #0, #8
1000b662:	f367 200f 	bfi	r0, r7, #8, #8
1000b666:	f3c8 2307 	ubfx	r3, r8, #8, #8
1000b66a:	f363 4017 	bfi	r0, r3, #16, #8
1000b66e:	f368 601f 	bfi	r0, r8, #24, #8
1000b672:	eb0d 0102 	add.w	r1, sp, r2
1000b676:	9001      	str	r0, [sp, #4]
1000b678:	4620      	mov	r0, r4
1000b67a:	f000 fbc1 	bl	1000be00 <_ZN6st77893HAL13writeDataBulkEPKhj>
1000b67e:	4620      	mov	r0, r4
1000b680:	212b      	movs	r1, #43	@ 0x2b
1000b682:	f000 fb89 	bl	1000bd98 <_ZN6st77893HAL12writeCommandEh>
1000b686:	2300      	movs	r3, #0
1000b688:	2204      	movs	r2, #4
1000b68a:	f3c6 2007 	ubfx	r0, r6, #8, #8
1000b68e:	f360 0307 	bfi	r3, r0, #0, #8
1000b692:	f366 230f 	bfi	r3, r6, #8, #8
1000b696:	f3c5 2007 	ubfx	r0, r5, #8, #8
1000b69a:	f360 4317 	bfi	r3, r0, #16, #8
1000b69e:	eb0d 0102 	add.w	r1, sp, r2
1000b6a2:	f365 631f 	bfi	r3, r5, #24, #8
1000b6a6:	4620      	mov	r0, r4
1000b6a8:	9301      	str	r3, [sp, #4]
1000b6aa:	f000 fba9 	bl	1000be00 <_ZN6st77893HAL13writeDataBulkEPKhj>
1000b6ae:	212c      	movs	r1, #44	@ 0x2c
1000b6b0:	4620      	mov	r0, r4
1000b6b2:	f000 fb71 	bl	1000bd98 <_ZN6st77893HAL12writeCommandEh>
1000b6b6:	b002      	add	sp, #8
1000b6b8:	e8bd 81f0 	ldmia.w	sp!, {r4, r5, r6, r7, r8, pc}

1000b6bc <_ZN6st77896ST778911setRotationENS_8RotationE>:
1000b6bc:	f890 3050 	ldrb.w	r3, [r0, #80]	@ 0x50
1000b6c0:	b1eb      	cbz	r3, 1000b6fe <_ZN6st77896ST778911setRotationENS_8RotationE+0x42>
1000b6c2:	2300      	movs	r3, #0
1000b6c4:	e92d 43f0 	stmdb	sp!, {r4, r5, r6, r7, r8, r9, lr}
1000b6c8:	460d      	mov	r5, r1
1000b6ca:	8b01      	ldrh	r1, [r0, #24]
1000b6cc:	8ac2      	ldrh	r2, [r0, #22]
1000b6ce:	f361 030f 	bfi	r3, r1, #0, #16
1000b6d2:	f362 431f 	bfi	r3, r2, #16, #16
1000b6d6:	7e82      	ldrb	r2, [r0, #26]
1000b6d8:	f8d0 8016 	ldr.w	r8, [r0, #22]
1000b6dc:	f012 0ffd 	tst.w	r2, #253	@ 0xfd
1000b6e0:	bf18      	it	ne
1000b6e2:	461a      	movne	r2, r3
1000b6e4:	4604      	mov	r4, r0
1000b6e6:	bf14      	ite	ne
1000b6e8:	4643      	movne	r3, r8
1000b6ea:	4642      	moveq	r2, r8
1000b6ec:	b083      	sub	sp, #12
1000b6ee:	fa1f f988 	uxth.w	r9, r8
1000b6f2:	2d03      	cmp	r5, #3
1000b6f4:	d82c      	bhi.n	1000b750 <_ZN6st77896ST778911setRotationENS_8RotationE+0x94>
1000b6f6:	e8df f005 	tbb	[pc, r5]
1000b6fa:	2d29      	.short	0x2d29
1000b6fc:	0331      	.short	0x0331
1000b6fe:	4770      	bx	lr
1000b700:	26a0      	movs	r6, #160	@ 0xa0
1000b702:	f8c0 3016 	str.w	r3, [r0, #22]
1000b706:	f894 3024 	ldrb.w	r3, [r4, #36]	@ 0x24
1000b70a:	1d27      	adds	r7, r4, #4
1000b70c:	ea46 06c3 	orr.w	r6, r6, r3, lsl #3
1000b710:	2136      	movs	r1, #54	@ 0x36
1000b712:	4638      	mov	r0, r7
1000b714:	b2f6      	uxtb	r6, r6
1000b716:	f000 fb3f 	bl	1000bd98 <_ZN6st77893HAL12writeCommandEh>
1000b71a:	4631      	mov	r1, r6
1000b71c:	4638      	mov	r0, r7
1000b71e:	f000 fb55 	bl	1000bdcc <_ZN6st77893HAL9writeDataEh>
1000b722:	8ae3      	ldrh	r3, [r4, #22]
1000b724:	8b21      	ldrh	r1, [r4, #24]
1000b726:	4599      	cmp	r9, r3
1000b728:	76a5      	strb	r5, [r4, #26]
1000b72a:	d102      	bne.n	1000b732 <_ZN6st77896ST778911setRotationENS_8RotationE+0x76>
1000b72c:	ebb1 4f18 	cmp.w	r1, r8, lsr #16
1000b730:	d009      	beq.n	1000b746 <_ZN6st77896ST778911setRotationENS_8RotationE+0x8a>
1000b732:	2200      	movs	r2, #0
1000b734:	3901      	subs	r1, #1
1000b736:	b289      	uxth	r1, r1
1000b738:	3b01      	subs	r3, #1
1000b73a:	9100      	str	r1, [sp, #0]
1000b73c:	4620      	mov	r0, r4
1000b73e:	4611      	mov	r1, r2
1000b740:	b29b      	uxth	r3, r3
1000b742:	f7ff ff4f 	bl	1000b5e4 <_ZN6st77896ST778913setAddrWindowEtttt>
1000b746:	b003      	add	sp, #12
1000b748:	e8bd 83f0 	ldmia.w	sp!, {r4, r5, r6, r7, r8, r9, pc}
1000b74c:	f8c0 2016 	str.w	r2, [r0, #22]
1000b750:	2600      	movs	r6, #0
1000b752:	e7d8      	b.n	1000b706 <_ZN6st77896ST778911setRotationENS_8RotationE+0x4a>
1000b754:	2660      	movs	r6, #96	@ 0x60
1000b756:	f8c0 3016 	str.w	r3, [r0, #22]
1000b75a:	e7d4      	b.n	1000b706 <_ZN6st77896ST778911setRotationENS_8RotationE+0x4a>
1000b75c:	26c0      	movs	r6, #192	@ 0xc0
1000b75e:	f8c0 2016 	str.w	r2, [r0, #22]
1000b762:	e7d0      	b.n	1000b706 <_ZN6st77896ST778911setRotationENS_8RotationE+0x4a>

1000b764 <_ZN6st77896ST778912drawImageDMAEssssPKt>:
1000b764:	e92d 41f0 	stmdb	sp!, {r4, r5, r6, r7, r8, lr}
1000b768:	4605      	mov	r5, r0
1000b76a:	f890 0050 	ldrb.w	r0, [r0, #80]	@ 0x50
1000b76e:	b082      	sub	sp, #8
1000b770:	f9bd 6020 	ldrsh.w	r6, [sp, #32]
1000b774:	9c09      	ldr	r4, [sp, #36]	@ 0x24
1000b776:	2800      	cmp	r0, #0
1000b778:	d041      	beq.n	1000b7fe <_ZN6st77896ST778912drawImageDMAEssssPKt+0x9a>
1000b77a:	f8b5 c016 	ldrh.w	ip, [r5, #22]
1000b77e:	4561      	cmp	r1, ip
1000b780:	da3d      	bge.n	1000b7fe <_ZN6st77896ST778912drawImageDMAEssssPKt+0x9a>
1000b782:	f8b5 e018 	ldrh.w	lr, [r5, #24]
1000b786:	4572      	cmp	r2, lr
1000b788:	da39      	bge.n	1000b7fe <_ZN6st77896ST778912drawImageDMAEssssPKt+0x9a>
1000b78a:	3b01      	subs	r3, #1
1000b78c:	440b      	add	r3, r1
1000b78e:	1e70      	subs	r0, r6, #1
1000b790:	b21e      	sxth	r6, r3
1000b792:	45b4      	cmp	ip, r6
1000b794:	ea21 71e1 	bic.w	r1, r1, r1, asr #31
1000b798:	4410      	add	r0, r2
1000b79a:	bfd8      	it	le
1000b79c:	f10c 3cff 	addle.w	ip, ip, #4294967295
1000b7a0:	b289      	uxth	r1, r1
1000b7a2:	b29b      	uxth	r3, r3
1000b7a4:	b287      	uxth	r7, r0
1000b7a6:	bfd8      	it	le
1000b7a8:	fa1f f38c 	uxthle.w	r3, ip
1000b7ac:	b200      	sxth	r0, r0
1000b7ae:	f1c1 0601 	rsb	r6, r1, #1
1000b7b2:	4586      	cmp	lr, r0
1000b7b4:	441e      	add	r6, r3
1000b7b6:	bfd8      	it	le
1000b7b8:	f10e 3eff 	addle.w	lr, lr, #4294967295
1000b7bc:	b230      	sxth	r0, r6
1000b7be:	bfd8      	it	le
1000b7c0:	fa1f f78e 	uxthle.w	r7, lr
1000b7c4:	2800      	cmp	r0, #0
1000b7c6:	b2b6      	uxth	r6, r6
1000b7c8:	dd19      	ble.n	1000b7fe <_ZN6st77896ST778912drawImageDMAEssssPKt+0x9a>
1000b7ca:	ea22 72e2 	bic.w	r2, r2, r2, asr #31
1000b7ce:	b292      	uxth	r2, r2
1000b7d0:	f1c2 0001 	rsb	r0, r2, #1
1000b7d4:	4438      	add	r0, r7
1000b7d6:	fa0f fc80 	sxth.w	ip, r0
1000b7da:	f1bc 0f00 	cmp.w	ip, #0
1000b7de:	fa1f f880 	uxth.w	r8, r0
1000b7e2:	dd0c      	ble.n	1000b7fe <_ZN6st77896ST778912drawImageDMAEssssPKt+0x9a>
1000b7e4:	4628      	mov	r0, r5
1000b7e6:	9700      	str	r7, [sp, #0]
1000b7e8:	f7ff fefc 	bl	1000b5e4 <_ZN6st77896ST778913setAddrWindowEtttt>
1000b7ec:	4621      	mov	r1, r4
1000b7ee:	fb16 f208 	smulbb	r2, r6, r8
1000b7f2:	1d28      	adds	r0, r5, #4
1000b7f4:	b002      	add	sp, #8
1000b7f6:	e8bd 41f0 	ldmia.w	sp!, {r4, r5, r6, r7, r8, lr}
1000b7fa:	f000 bb17 	b.w	1000be2c <_ZN6st77893HAL12writeDataDmaEPKtj>
1000b7fe:	2000      	movs	r0, #0
1000b800:	b002      	add	sp, #8
1000b802:	e8bd 81f0 	ldmia.w	sp!, {r4, r5, r6, r7, r8, pc}
1000b806:	bf00      	nop

1000b808 <_ZN6st77896ST778911fillRectDMAEsssst>:
1000b808:	e92d 41f0 	stmdb	sp!, {r4, r5, r6, r7, r8, lr}
1000b80c:	4604      	mov	r4, r0
1000b80e:	f890 0050 	ldrb.w	r0, [r0, #80]	@ 0x50
1000b812:	b082      	sub	sp, #8
1000b814:	f9bd c020 	ldrsh.w	ip, [sp, #32]
1000b818:	f8bd 5024 	ldrh.w	r5, [sp, #36]	@ 0x24
1000b81c:	2800      	cmp	r0, #0
1000b81e:	d048      	beq.n	1000b8b2 <_ZN6st77896ST778911fillRectDMAEsssst+0xaa>
1000b820:	2b00      	cmp	r3, #0
1000b822:	dd46      	ble.n	1000b8b2 <_ZN6st77896ST778911fillRectDMAEsssst+0xaa>
1000b824:	f1bc 0f00 	cmp.w	ip, #0
1000b828:	dd43      	ble.n	1000b8b2 <_ZN6st77896ST778911fillRectDMAEsssst+0xaa>
1000b82a:	8ae0      	ldrh	r0, [r4, #22]
1000b82c:	4281      	cmp	r1, r0
1000b82e:	da40      	bge.n	1000b8b2 <_ZN6st77896ST778911fillRectDMAEsssst+0xaa>
1000b830:	8b26      	ldrh	r6, [r4, #24]
1000b832:	42b2      	cmp	r2, r6
1000b834:	da3d      	bge.n	1000b8b2 <_ZN6st77896ST778911fillRectDMAEsssst+0xaa>
1000b836:	1e4f      	subs	r7, r1, #1
1000b838:	443b      	add	r3, r7
1000b83a:	f102 3eff 	add.w	lr, r2, #4294967295
1000b83e:	44f4      	add	ip, lr
1000b840:	fa0f fe83 	sxth.w	lr, r3
1000b844:	4570      	cmp	r0, lr
1000b846:	bfd8      	it	le
1000b848:	f100 30ff 	addle.w	r0, r0, #4294967295
1000b84c:	fa1f f78c 	uxth.w	r7, ip
1000b850:	fa0f fc8c 	sxth.w	ip, ip
1000b854:	b29b      	uxth	r3, r3
1000b856:	ea21 71e1 	bic.w	r1, r1, r1, asr #31
1000b85a:	bfd8      	it	le
1000b85c:	b283      	uxthle	r3, r0
1000b85e:	4566      	cmp	r6, ip
1000b860:	bfd8      	it	le
1000b862:	f106 30ff 	addle.w	r0, r6, #4294967295
1000b866:	b289      	uxth	r1, r1
1000b868:	bfd8      	it	le
1000b86a:	b287      	uxthle	r7, r0
1000b86c:	f1c1 0001 	rsb	r0, r1, #1
1000b870:	4418      	add	r0, r3
1000b872:	fa0f fc80 	sxth.w	ip, r0
1000b876:	f1bc 0f00 	cmp.w	ip, #0
1000b87a:	b286      	uxth	r6, r0
1000b87c:	dd19      	ble.n	1000b8b2 <_ZN6st77896ST778911fillRectDMAEsssst+0xaa>
1000b87e:	ea22 72e2 	bic.w	r2, r2, r2, asr #31
1000b882:	b292      	uxth	r2, r2
1000b884:	f1c2 0001 	rsb	r0, r2, #1
1000b888:	4438      	add	r0, r7
1000b88a:	fa0f fc80 	sxth.w	ip, r0
1000b88e:	f1bc 0f00 	cmp.w	ip, #0
1000b892:	fa1f f880 	uxth.w	r8, r0
1000b896:	dd0c      	ble.n	1000b8b2 <_ZN6st77896ST778911fillRectDMAEsssst+0xaa>
1000b898:	4620      	mov	r0, r4
1000b89a:	9700      	str	r7, [sp, #0]
1000b89c:	f7ff fea2 	bl	1000b5e4 <_ZN6st77896ST778913setAddrWindowEtttt>
1000b8a0:	4629      	mov	r1, r5
1000b8a2:	fb08 f206 	mul.w	r2, r8, r6
1000b8a6:	1d20      	adds	r0, r4, #4
1000b8a8:	b002      	add	sp, #8
1000b8aa:	e8bd 41f0 	ldmia.w	sp!, {r4, r5, r6, r7, r8, lr}
1000b8ae:	f000 bbc1 	b.w	1000c034 <_ZN6st77893HAL22writeDataDmaSolidColorEtj>
1000b8b2:	2000      	movs	r0, #0
1000b8b4:	b002      	add	sp, #8
1000b8b6:	e8bd 81f0 	ldmia.w	sp!, {r4, r5, r6, r7, r8, pc}
1000b8ba:	bf00      	nop

1000b8bc <_ZN6st77896ST778917initializeDisplayEv>:
1000b8bc:	e92d 43f0 	stmdb	sp!, {r4, r5, r6, r7, r8, r9, lr}
1000b8c0:	4605      	mov	r5, r0
1000b8c2:	1d04      	adds	r4, r0, #4
1000b8c4:	b083      	sub	sp, #12
1000b8c6:	4620      	mov	r0, r4
1000b8c8:	f000 fccc 	bl	1000c264 <_ZN6st77893HAL5resetEv>
1000b8cc:	2101      	movs	r1, #1
1000b8ce:	4620      	mov	r0, r4
1000b8d0:	f000 fa62 	bl	1000bd98 <_ZN6st77893HAL12writeCommandEh>
1000b8d4:	2196      	movs	r1, #150	@ 0x96
1000b8d6:	4620      	mov	r0, r4
1000b8d8:	f000 fcdc 	bl	1000c294 <_ZN6st77893HAL5delayEm>
1000b8dc:	2111      	movs	r1, #17
1000b8de:	4620      	mov	r0, r4
1000b8e0:	f000 fa5a 	bl	1000bd98 <_ZN6st77893HAL12writeCommandEh>
1000b8e4:	2178      	movs	r1, #120	@ 0x78
1000b8e6:	4620      	mov	r0, r4
1000b8e8:	f000 fcd4 	bl	1000c294 <_ZN6st77893HAL5delayEm>
1000b8ec:	213a      	movs	r1, #58	@ 0x3a
1000b8ee:	4620      	mov	r0, r4
1000b8f0:	f000 fa52 	bl	1000bd98 <_ZN6st77893HAL12writeCommandEh>
1000b8f4:	2155      	movs	r1, #85	@ 0x55
1000b8f6:	4620      	mov	r0, r4
1000b8f8:	f000 fa68 	bl	1000bdcc <_ZN6st77893HAL9writeDataEh>
1000b8fc:	f895 3050 	ldrb.w	r3, [r5, #80]	@ 0x50
1000b900:	b333      	cbz	r3, 1000b950 <_ZN6st77896ST778917initializeDisplayEv+0x94>
1000b902:	7eaf      	ldrb	r7, [r5, #26]
1000b904:	f8b5 9016 	ldrh.w	r9, [r5, #22]
1000b908:	f8b5 8018 	ldrh.w	r8, [r5, #24]
1000b90c:	2f00      	cmp	r7, #0
1000b90e:	f040 80a5 	bne.w	1000ba5c <_ZN6st77896ST778917initializeDisplayEv+0x1a0>
1000b912:	463e      	mov	r6, r7
1000b914:	f895 3024 	ldrb.w	r3, [r5, #36]	@ 0x24
1000b918:	2136      	movs	r1, #54	@ 0x36
1000b91a:	ea46 06c3 	orr.w	r6, r6, r3, lsl #3
1000b91e:	4620      	mov	r0, r4
1000b920:	b2f6      	uxtb	r6, r6
1000b922:	f000 fa39 	bl	1000bd98 <_ZN6st77893HAL12writeCommandEh>
1000b926:	4631      	mov	r1, r6
1000b928:	4620      	mov	r0, r4
1000b92a:	f000 fa4f 	bl	1000bdcc <_ZN6st77893HAL9writeDataEh>
1000b92e:	8aeb      	ldrh	r3, [r5, #22]
1000b930:	8b29      	ldrh	r1, [r5, #24]
1000b932:	4599      	cmp	r9, r3
1000b934:	76af      	strb	r7, [r5, #26]
1000b936:	d101      	bne.n	1000b93c <_ZN6st77896ST778917initializeDisplayEv+0x80>
1000b938:	4588      	cmp	r8, r1
1000b93a:	d009      	beq.n	1000b950 <_ZN6st77896ST778917initializeDisplayEv+0x94>
1000b93c:	2200      	movs	r2, #0
1000b93e:	3901      	subs	r1, #1
1000b940:	b289      	uxth	r1, r1
1000b942:	3b01      	subs	r3, #1
1000b944:	9100      	str	r1, [sp, #0]
1000b946:	4628      	mov	r0, r5
1000b948:	4611      	mov	r1, r2
1000b94a:	b29b      	uxth	r3, r3
1000b94c:	f7ff fe4a 	bl	1000b5e4 <_ZN6st77896ST778913setAddrWindowEtttt>
1000b950:	4620      	mov	r0, r4
1000b952:	21c6      	movs	r1, #198	@ 0xc6
1000b954:	f000 fa20 	bl	1000bd98 <_ZN6st77893HAL12writeCommandEh>
1000b958:	4620      	mov	r0, r4
1000b95a:	210f      	movs	r1, #15
1000b95c:	f000 fa36 	bl	1000bdcc <_ZN6st77893HAL9writeDataEh>
1000b960:	4620      	mov	r0, r4
1000b962:	2121      	movs	r1, #33	@ 0x21
1000b964:	f000 fa18 	bl	1000bd98 <_ZN6st77893HAL12writeCommandEh>
1000b968:	4620      	mov	r0, r4
1000b96a:	21b2      	movs	r1, #178	@ 0xb2
1000b96c:	f000 fa14 	bl	1000bd98 <_ZN6st77893HAL12writeCommandEh>
1000b970:	4620      	mov	r0, r4
1000b972:	210c      	movs	r1, #12
1000b974:	f000 fa2a 	bl	1000bdcc <_ZN6st77893HAL9writeDataEh>
1000b978:	4620      	mov	r0, r4
1000b97a:	210c      	movs	r1, #12
1000b97c:	f000 fa26 	bl	1000bdcc <_ZN6st77893HAL9writeDataEh>
1000b980:	4620      	mov	r0, r4
1000b982:	2100      	movs	r1, #0
1000b984:	f000 fa22 	bl	1000bdcc <_ZN6st77893HAL9writeDataEh>
1000b988:	4620      	mov	r0, r4
1000b98a:	2133      	movs	r1, #51	@ 0x33
1000b98c:	f000 fa1e 	bl	1000bdcc <_ZN6st77893HAL9writeDataEh>
1000b990:	4620      	mov	r0, r4
1000b992:	2133      	movs	r1, #51	@ 0x33
1000b994:	f000 fa1a 	bl	1000bdcc <_ZN6st77893HAL9writeDataEh>
1000b998:	4620      	mov	r0, r4
1000b99a:	21b7      	movs	r1, #183	@ 0xb7
1000b99c:	f000 f9fc 	bl	1000bd98 <_ZN6st77893HAL12writeCommandEh>
1000b9a0:	4620      	mov	r0, r4
1000b9a2:	2135      	movs	r1, #53	@ 0x35
1000b9a4:	f000 fa12 	bl	1000bdcc <_ZN6st77893HAL9writeDataEh>
1000b9a8:	4620      	mov	r0, r4
1000b9aa:	21bb      	movs	r1, #187	@ 0xbb
1000b9ac:	f000 f9f4 	bl	1000bd98 <_ZN6st77893HAL12writeCommandEh>
1000b9b0:	4620      	mov	r0, r4
1000b9b2:	2128      	movs	r1, #40	@ 0x28
1000b9b4:	f000 fa0a 	bl	1000bdcc <_ZN6st77893HAL9writeDataEh>
1000b9b8:	4620      	mov	r0, r4
1000b9ba:	21c0      	movs	r1, #192	@ 0xc0
1000b9bc:	f000 f9ec 	bl	1000bd98 <_ZN6st77893HAL12writeCommandEh>
1000b9c0:	4620      	mov	r0, r4
1000b9c2:	210c      	movs	r1, #12
1000b9c4:	f000 fa02 	bl	1000bdcc <_ZN6st77893HAL9writeDataEh>
1000b9c8:	4620      	mov	r0, r4
1000b9ca:	21c2      	movs	r1, #194	@ 0xc2
1000b9cc:	f000 f9e4 	bl	1000bd98 <_ZN6st77893HAL12writeCommandEh>
1000b9d0:	4620      	mov	r0, r4
1000b9d2:	2101      	movs	r1, #1
1000b9d4:	f000 f9fa 	bl	1000bdcc <_ZN6st77893HAL9writeDataEh>
1000b9d8:	4620      	mov	r0, r4
1000b9da:	21ff      	movs	r1, #255	@ 0xff
1000b9dc:	f000 f9f6 	bl	1000bdcc <_ZN6st77893HAL9writeDataEh>
1000b9e0:	4620      	mov	r0, r4
1000b9e2:	21c3      	movs	r1, #195	@ 0xc3
1000b9e4:	f000 f9d8 	bl	1000bd98 <_ZN6st77893HAL12writeCommandEh>
1000b9e8:	4620      	mov	r0, r4
1000b9ea:	2110      	movs	r1, #16
1000b9ec:	f000 f9ee 	bl	1000bdcc <_ZN6st77893HAL9writeDataEh>
1000b9f0:	4620      	mov	r0, r4
1000b9f2:	21c4      	movs	r1, #196	@ 0xc4
1000b9f4:	f000 f9d0 	bl	1000bd98 <_ZN6st77893HAL12writeCommandEh>
1000b9f8:	4620      	mov	r0, r4
1000b9fa:	2120      	movs	r1, #32
1000b9fc:	f000 f9e6 	bl	1000bdcc <_ZN6st77893HAL9writeDataEh>
1000ba00:	4620      	mov	r0, r4
1000ba02:	2113      	movs	r1, #19
1000ba04:	f000 f9c8 	bl	1000bd98 <_ZN6st77893HAL12writeCommandEh>
1000ba08:	4620      	mov	r0, r4
1000ba0a:	210a      	movs	r1, #10
1000ba0c:	f000 fc42 	bl	1000c294 <_ZN6st77893HAL5delayEm>
1000ba10:	4620      	mov	r0, r4
1000ba12:	2129      	movs	r1, #41	@ 0x29
1000ba14:	f000 f9c0 	bl	1000bd98 <_ZN6st77893HAL12writeCommandEh>
1000ba18:	4620      	mov	r0, r4
1000ba1a:	2178      	movs	r1, #120	@ 0x78
1000ba1c:	f000 fc3a 	bl	1000c294 <_ZN6st77893HAL5delayEm>
1000ba20:	2200      	movs	r2, #0
1000ba22:	8b29      	ldrh	r1, [r5, #24]
1000ba24:	8aeb      	ldrh	r3, [r5, #22]
1000ba26:	3901      	subs	r1, #1
1000ba28:	b289      	uxth	r1, r1
1000ba2a:	3b01      	subs	r3, #1
1000ba2c:	4628      	mov	r0, r5
1000ba2e:	9100      	str	r1, [sp, #0]
1000ba30:	b29b      	uxth	r3, r3
1000ba32:	4611      	mov	r1, r2
1000ba34:	f7ff fdd6 	bl	1000b5e4 <_ZN6st77896ST778913setAddrWindowEtttt>
1000ba38:	2200      	movs	r2, #0
1000ba3a:	f9b5 6018 	ldrsh.w	r6, [r5, #24]
1000ba3e:	f9b5 3016 	ldrsh.w	r3, [r5, #22]
1000ba42:	4611      	mov	r1, r2
1000ba44:	4628      	mov	r0, r5
1000ba46:	9201      	str	r2, [sp, #4]
1000ba48:	9600      	str	r6, [sp, #0]
1000ba4a:	f7ff fedd 	bl	1000b808 <_ZN6st77896ST778911fillRectDMAEsssst>
1000ba4e:	2101      	movs	r1, #1
1000ba50:	4620      	mov	r0, r4
1000ba52:	b003      	add	sp, #12
1000ba54:	e8bd 43f0 	ldmia.w	sp!, {r4, r5, r6, r7, r8, r9, lr}
1000ba58:	f000 bc18 	b.w	1000c28c <_ZN6st77893HAL12setBacklightEb>
1000ba5c:	2f02      	cmp	r7, #2
1000ba5e:	d008      	beq.n	1000ba72 <_ZN6st77896ST778917initializeDisplayEv+0x1b6>
1000ba60:	2f03      	cmp	r7, #3
1000ba62:	d004      	beq.n	1000ba6e <_ZN6st77896ST778917initializeDisplayEv+0x1b2>
1000ba64:	2f01      	cmp	r7, #1
1000ba66:	bf14      	ite	ne
1000ba68:	2600      	movne	r6, #0
1000ba6a:	2660      	moveq	r6, #96	@ 0x60
1000ba6c:	e752      	b.n	1000b914 <_ZN6st77896ST778917initializeDisplayEv+0x58>
1000ba6e:	26a0      	movs	r6, #160	@ 0xa0
1000ba70:	e750      	b.n	1000b914 <_ZN6st77896ST778917initializeDisplayEv+0x58>
1000ba72:	26c0      	movs	r6, #192	@ 0xc0
1000ba74:	e74e      	b.n	1000b914 <_ZN6st77896ST778917initializeDisplayEv+0x58>
1000ba76:	bf00      	nop

1000ba78 <_ZN6st77896ST77895beginERKNS_6ConfigE>:
1000ba78:	b538      	push	{r3, r4, r5, lr}
1000ba7a:	f890 3050 	ldrb.w	r3, [r0, #80]	@ 0x50
1000ba7e:	b113      	cbz	r3, 1000ba86 <_ZN6st77896ST77895beginERKNS_6ConfigE+0xe>
1000ba80:	2501      	movs	r5, #1
1000ba82:	4628      	mov	r0, r5
1000ba84:	bd38      	pop	{r3, r4, r5, pc}
1000ba86:	4604      	mov	r4, r0
1000ba88:	3004      	adds	r0, #4
1000ba8a:	f000 f929 	bl	1000bce0 <_ZN6st77893HAL4initERKNS_6ConfigE>
1000ba8e:	4605      	mov	r5, r0
1000ba90:	b130      	cbz	r0, 1000baa0 <_ZN6st77896ST77895beginERKNS_6ConfigE+0x28>
1000ba92:	2301      	movs	r3, #1
1000ba94:	4620      	mov	r0, r4
1000ba96:	f884 3050 	strb.w	r3, [r4, #80]	@ 0x50
1000ba9a:	f7ff ff0f 	bl	1000b8bc <_ZN6st77896ST778917initializeDisplayEv>
1000ba9e:	e7ef      	b.n	1000ba80 <_ZN6st77896ST77895beginERKNS_6ConfigE+0x8>
1000baa0:	4802      	ldr	r0, [pc, #8]	@ (1000baac <_ZN6st77896ST77895beginERKNS_6ConfigE+0x34>)
1000baa2:	f7fd f80f 	bl	10008ac4 <__wrap_puts>
1000baa6:	4628      	mov	r0, r5
1000baa8:	bd38      	pop	{r3, r4, r5, pc}
1000baaa:	bf00      	nop
1000baac:	1000db18 	.word	0x1000db18

1000bab0 <_ZN6st77896ST7789D1Ev>:
1000bab0:	b510      	push	{r4, lr}
1000bab2:	4604      	mov	r4, r0
1000bab4:	4b04      	ldr	r3, [pc, #16]	@ (1000bac8 <_ZN6st77896ST7789D1Ev+0x18>)
1000bab6:	f840 3b48 	str.w	r3, [r0], #72
1000baba:	f000 fbef 	bl	1000c29c <_ZN6st77898GraphicsD1Ev>
1000babe:	1d20      	adds	r0, r4, #4
1000bac0:	f000 f82a 	bl	1000bb18 <_ZN6st77893HALD1Ev>
1000bac4:	4620      	mov	r0, r4
1000bac6:	bd10      	pop	{r4, pc}
1000bac8:	100258fc 	.word	0x100258fc

1000bacc <_ZN6st77896ST7789D0Ev>:
1000bacc:	b510      	push	{r4, lr}
1000bace:	4604      	mov	r4, r0
1000bad0:	4b06      	ldr	r3, [pc, #24]	@ (1000baec <_ZN6st77896ST7789D0Ev+0x20>)
1000bad2:	f840 3b48 	str.w	r3, [r0], #72
1000bad6:	f000 fbe1 	bl	1000c29c <_ZN6st77898GraphicsD1Ev>
1000bada:	1d20      	adds	r0, r4, #4
1000badc:	f000 f81c 	bl	1000bb18 <_ZN6st77893HALD1Ev>
1000bae0:	4620      	mov	r0, r4
1000bae2:	2154      	movs	r1, #84	@ 0x54
1000bae4:	f7fb face 	bl	10007084 <_ZdlPvj>
1000bae8:	4620      	mov	r0, r4
1000baea:	bd10      	pop	{r4, pc}
1000baec:	100258fc 	.word	0x100258fc

1000baf0 <_ZN6st778920dma_complete_handlerEv>:
1000baf0:	4b08      	ldr	r3, [pc, #32]	@ (1000bb14 <_ZN6st778920dma_complete_handlerEv+0x24>)
1000baf2:	681b      	ldr	r3, [r3, #0]
1000baf4:	b16b      	cbz	r3, 1000bb12 <_ZN6st778920dma_complete_handlerEv+0x22>
1000baf6:	2201      	movs	r2, #1
1000baf8:	f04f 40a0 	mov.w	r0, #1342177280	@ 0x50000000
1000bafc:	2100      	movs	r1, #0
1000bafe:	b410      	push	{r4}
1000bb00:	6b5c      	ldr	r4, [r3, #52]	@ 0x34
1000bb02:	40a2      	lsls	r2, r4
1000bb04:	f8c0 240c 	str.w	r2, [r0, #1036]	@ 0x40c
1000bb08:	f85d 4b04 	ldr.w	r4, [sp], #4
1000bb0c:	f883 1041 	strb.w	r1, [r3, #65]	@ 0x41
1000bb10:	4770      	bx	lr
1000bb12:	4770      	bx	lr
1000bb14:	20001a40 	.word	0x20001a40

1000bb18 <_ZN6st77893HALD1Ev>:
1000bb18:	b510      	push	{r4, lr}
1000bb1a:	4604      	mov	r4, r0
1000bb1c:	6b40      	ldr	r0, [r0, #52]	@ 0x34
1000bb1e:	4b0d      	ldr	r3, [pc, #52]	@ (1000bb54 <_ZN6st77893HALD1Ev+0x3c>)
1000bb20:	2800      	cmp	r0, #0
1000bb22:	6023      	str	r3, [r4, #0]
1000bb24:	db0f      	blt.n	1000bb46 <_ZN6st77893HALD1Ev+0x2e>
1000bb26:	2101      	movs	r1, #1
1000bb28:	f04f 43a0 	mov.w	r3, #1342177280	@ 0x50000000
1000bb2c:	0182      	lsls	r2, r0, #6
1000bb2e:	4081      	lsls	r1, r0
1000bb30:	441a      	add	r2, r3
1000bb32:	f8c3 1464 	str.w	r1, [r3, #1124]	@ 0x464
1000bb36:	68d3      	ldr	r3, [r2, #12]
1000bb38:	015b      	lsls	r3, r3, #5
1000bb3a:	d4fc      	bmi.n	1000bb36 <_ZN6st77893HALD1Ev+0x1e>
1000bb3c:	4b06      	ldr	r3, [pc, #24]	@ (1000bb58 <_ZN6st77893HALD1Ev+0x40>)
1000bb3e:	f8c3 1404 	str.w	r1, [r3, #1028]	@ 0x404
1000bb42:	f7ff fc3f 	bl	1000b3c4 <dma_channel_unclaim>
1000bb46:	6ba0      	ldr	r0, [r4, #56]	@ 0x38
1000bb48:	b108      	cbz	r0, 1000bb4e <_ZN6st77893HALD1Ev+0x36>
1000bb4a:	f7fb fa95 	bl	10007078 <__wrap_free>
1000bb4e:	4620      	mov	r0, r4
1000bb50:	bd10      	pop	{r4, pc}
1000bb52:	bf00      	nop
1000bb54:	1002590c 	.word	0x1002590c
1000bb58:	50003000 	.word	0x50003000

1000bb5c <_ZN6st77893HALD0Ev>:
1000bb5c:	b510      	push	{r4, lr}
1000bb5e:	4604      	mov	r4, r0
1000bb60:	6b40      	ldr	r0, [r0, #52]	@ 0x34
1000bb62:	4b0f      	ldr	r3, [pc, #60]	@ (1000bba0 <_ZN6st77893HALD0Ev+0x44>)
1000bb64:	2800      	cmp	r0, #0
1000bb66:	6023      	str	r3, [r4, #0]
1000bb68:	db0f      	blt.n	1000bb8a <_ZN6st77893HALD0Ev+0x2e>
1000bb6a:	2101      	movs	r1, #1
1000bb6c:	f04f 43a0 	mov.w	r3, #1342177280	@ 0x50000000
1000bb70:	0182      	lsls	r2, r0, #6
1000bb72:	4081      	lsls	r1, r0
1000bb74:	441a      	add	r2, r3
1000bb76:	f8c3 1464 	str.w	r1, [r3, #1124]	@ 0x464
1000bb7a:	68d3      	ldr	r3, [r2, #12]
1000bb7c:	015b      	lsls	r3, r3, #5
1000bb7e:	d4fc      	bmi.n	1000bb7a <_ZN6st77893HALD0Ev+0x1e>
1000bb80:	4b08      	ldr	r3, [pc, #32]	@ (1000bba4 <_ZN6st77893HALD0Ev+0x48>)
1000bb82:	f8c3 1404 	str.w	r1, [r3, #1028]	@ 0x404
1000bb86:	f7ff fc1d 	bl	1000b3c4 <dma_channel_unclaim>
1000bb8a:	6ba0      	ldr	r0, [r4, #56]	@ 0x38
1000bb8c:	b108      	cbz	r0, 1000bb92 <_ZN6st77893HALD0Ev+0x36>
1000bb8e:	f7fb fa73 	bl	10007078 <__wrap_free>
1000bb92:	4620      	mov	r0, r4
1000bb94:	2144      	movs	r1, #68	@ 0x44
1000bb96:	f7fb fa75 	bl	10007084 <_ZdlPvj>
1000bb9a:	4620      	mov	r0, r4
1000bb9c:	bd10      	pop	{r4, pc}
1000bb9e:	bf00      	nop
1000bba0:	1002590c 	.word	0x1002590c
1000bba4:	50003000 	.word	0x50003000

1000bba8 <_ZN6st77893HALC1Ev>:
1000bba8:	e92d 43f0 	stmdb	sp!, {r4, r5, r6, r7, r8, r9, lr}
1000bbac:	2200      	movs	r2, #0
1000bbae:	f44f 76a0 	mov.w	r6, #320	@ 0x140
1000bbb2:	2501      	movs	r5, #1
1000bbb4:	f44f 5480 	mov.w	r4, #4096	@ 0x1000
1000bbb8:	f04f 31ff 	mov.w	r1, #4294967295
1000bbbc:	f8df 903c 	ldr.w	r9, [pc, #60]	@ 1000bbfc <_ZN6st77893HALC1Ev+0x54>
1000bbc0:	f8df 803c 	ldr.w	r8, [pc, #60]	@ 1000bc00 <_ZN6st77893HALC1Ev+0x58>
1000bbc4:	f8df e03c 	ldr.w	lr, [pc, #60]	@ 1000bc04 <_ZN6st77893HALC1Ev+0x5c>
1000bbc8:	f8df c03c 	ldr.w	ip, [pc, #60]	@ 1000bc08 <_ZN6st77893HALC1Ev+0x60>
1000bbcc:	4f0a      	ldr	r7, [pc, #40]	@ (1000bbf8 <_ZN6st77893HALC1Ev+0x50>)
1000bbce:	e9c0 9800 	strd	r9, r8, [r0]
1000bbd2:	e9c0 ec02 	strd	lr, ip, [r0, #8]
1000bbd6:	e9c0 7604 	strd	r7, r6, [r0, #16]
1000bbda:	e9c0 2206 	strd	r2, r2, [r0, #24]
1000bbde:	e9c0 240a 	strd	r2, r4, [r0, #40]	@ 0x28
1000bbe2:	e9c0 120d 	strd	r1, r2, [r0, #52]	@ 0x34
1000bbe6:	6245      	str	r5, [r0, #36]	@ 0x24
1000bbe8:	6202      	str	r2, [r0, #32]
1000bbea:	f880 2030 	strb.w	r2, [r0, #48]	@ 0x30
1000bbee:	63c2      	str	r2, [r0, #60]	@ 0x3c
1000bbf0:	f8a0 2040 	strh.w	r2, [r0, #64]	@ 0x40
1000bbf4:	e8bd 83f0 	ldmia.w	sp!, {r4, r5, r6, r7, r8, r9, pc}
1000bbf8:	00f00a0f 	.word	0x00f00a0f
1000bbfc:	1002590c 	.word	0x1002590c
1000bc00:	40080000 	.word	0x40080000
1000bc04:	02625a00 	.word	0x02625a00
1000bc08:	14111213 	.word	0x14111213

1000bc0c <_ZN6st77893HAL7initDmaEv>:
1000bc0c:	e92d 41f0 	stmdb	sp!, {r4, r5, r6, r7, r8, lr}
1000bc10:	4604      	mov	r4, r0
1000bc12:	4b2b      	ldr	r3, [pc, #172]	@ (1000bcc0 <_ZN6st77893HAL7initDmaEv+0xb4>)
1000bc14:	2001      	movs	r0, #1
1000bc16:	601c      	str	r4, [r3, #0]
1000bc18:	f7ff fbda 	bl	1000b3d0 <dma_claim_unused_channel>
1000bc1c:	2800      	cmp	r0, #0
1000bc1e:	6360      	str	r0, [r4, #52]	@ 0x34
1000bc20:	db3a      	blt.n	1000bc98 <_ZN6st77893HAL7initDmaEv+0x8c>
1000bc22:	4605      	mov	r5, r0
1000bc24:	6ae0      	ldr	r0, [r4, #44]	@ 0x2c
1000bc26:	63e0      	str	r0, [r4, #60]	@ 0x3c
1000bc28:	f7fb fa14 	bl	10007054 <__wrap_malloc>
1000bc2c:	4606      	mov	r6, r0
1000bc2e:	63a0      	str	r0, [r4, #56]	@ 0x38
1000bc30:	2800      	cmp	r0, #0
1000bc32:	d039      	beq.n	1000bca8 <_ZN6st77893HAL7initDmaEv+0x9c>
1000bc34:	6867      	ldr	r7, [r4, #4]
1000bc36:	4a23      	ldr	r2, [pc, #140]	@ (1000bcc4 <_ZN6st77893HAL7initDmaEv+0xb8>)
1000bc38:	2601      	movs	r6, #1
1000bc3a:	4297      	cmp	r7, r2
1000bc3c:	bf14      	ite	ne
1000bc3e:	f44f 1840 	movne.w	r8, #3145728	@ 0x300000
1000bc42:	f44f 1850 	moveq.w	r8, #3407872	@ 0x340000
1000bc46:	f04f 0c00 	mov.w	ip, #0
1000bc4a:	4b1f      	ldr	r3, [pc, #124]	@ (1000bcc8 <_ZN6st77893HAL7initDmaEv+0xbc>)
1000bc4c:	f8df e08c 	ldr.w	lr, [pc, #140]	@ 1000bcdc <_ZN6st77893HAL7initDmaEv+0xd0>
1000bc50:	ea03 3345 	and.w	r3, r3, r5, lsl #13
1000bc54:	01aa      	lsls	r2, r5, #6
1000bc56:	ea43 0308 	orr.w	r3, r3, r8
1000bc5a:	f102 42a0 	add.w	r2, r2, #1342177280	@ 0x50000000
1000bc5e:	f043 0315 	orr.w	r3, r3, #21
1000bc62:	3708      	adds	r7, #8
1000bc64:	fa06 f505 	lsl.w	r5, r6, r5
1000bc68:	f8c2 c000 	str.w	ip, [r2]
1000bc6c:	200a      	movs	r0, #10
1000bc6e:	6057      	str	r7, [r2, #4]
1000bc70:	4916      	ldr	r1, [pc, #88]	@ (1000bccc <_ZN6st77893HAL7initDmaEv+0xc0>)
1000bc72:	f8c2 c008 	str.w	ip, [r2, #8]
1000bc76:	6113      	str	r3, [r2, #16]
1000bc78:	f8ce 5404 	str.w	r5, [lr, #1028]	@ 0x404
1000bc7c:	f7f9 fef4 	bl	10005a68 <irq_set_exclusive_handler>
1000bc80:	4631      	mov	r1, r6
1000bc82:	200a      	movs	r0, #10
1000bc84:	f7f9 feae 	bl	100059e4 <irq_set_enabled>
1000bc88:	6b61      	ldr	r1, [r4, #52]	@ 0x34
1000bc8a:	f884 6040 	strb.w	r6, [r4, #64]	@ 0x40
1000bc8e:	4810      	ldr	r0, [pc, #64]	@ (1000bcd0 <_ZN6st77893HAL7initDmaEv+0xc4>)
1000bc90:	e8bd 41f0 	ldmia.w	sp!, {r4, r5, r6, r7, r8, lr}
1000bc94:	f7fc bf96 	b.w	10008bc4 <__wrap_printf>
1000bc98:	480e      	ldr	r0, [pc, #56]	@ (1000bcd4 <_ZN6st77893HAL7initDmaEv+0xc8>)
1000bc9a:	f7fc ff13 	bl	10008ac4 <__wrap_puts>
1000bc9e:	2300      	movs	r3, #0
1000bca0:	f884 3040 	strb.w	r3, [r4, #64]	@ 0x40
1000bca4:	e8bd 81f0 	ldmia.w	sp!, {r4, r5, r6, r7, r8, pc}
1000bca8:	480b      	ldr	r0, [pc, #44]	@ (1000bcd8 <_ZN6st77893HAL7initDmaEv+0xcc>)
1000bcaa:	f7fc ff0b 	bl	10008ac4 <__wrap_puts>
1000bcae:	6b60      	ldr	r0, [r4, #52]	@ 0x34
1000bcb0:	f7ff fb88 	bl	1000b3c4 <dma_channel_unclaim>
1000bcb4:	f04f 33ff 	mov.w	r3, #4294967295
1000bcb8:	f884 6040 	strb.w	r6, [r4, #64]	@ 0x40
1000bcbc:	6363      	str	r3, [r4, #52]	@ 0x34
1000bcbe:	e7f1      	b.n	1000bca4 <_ZN6st77893HAL7initDmaEv+0x98>
1000bcc0:	20001a40 	.word	0x20001a40
1000bcc4:	40088000 	.word	0x40088000
1000bcc8:	fc01fffd 	.word	0xfc01fffd
1000bccc:	1000baf1 	.word	0x1000baf1
1000bcd0:	1000db84 	.word	0x1000db84
1000bcd4:	1000db48 	.word	0x1000db48
1000bcd8:	1000db64 	.word	0x1000db64
1000bcdc:	50002000 	.word	0x50002000

1000bce0 <_ZN6st77893HAL4initERKNS_6ConfigE>:
1000bce0:	468c      	mov	ip, r1
1000bce2:	b570      	push	{r4, r5, r6, lr}
1000bce4:	4604      	mov	r4, r0
1000bce6:	f100 0e04 	add.w	lr, r0, #4
1000bcea:	e8bc 000f 	ldmia.w	ip!, {r0, r1, r2, r3}
1000bcee:	e8ae 000f 	stmia.w	lr!, {r0, r1, r2, r3}
1000bcf2:	e8bc 000f 	ldmia.w	ip!, {r0, r1, r2, r3}
1000bcf6:	e8ae 000f 	stmia.w	lr!, {r0, r1, r2, r3}
1000bcfa:	e89c 0007 	ldmia.w	ip, {r0, r1, r2}
1000bcfe:	e88e 0007 	stmia.w	lr, {r0, r1, r2}
1000bd02:	7ba0      	ldrb	r0, [r4, #14]
1000bd04:	f7f9 fd4e 	bl	100057a4 <gpio_init>
1000bd08:	7be0      	ldrb	r0, [r4, #15]
1000bd0a:	f7f9 fd4b 	bl	100057a4 <gpio_init>
1000bd0e:	7c20      	ldrb	r0, [r4, #16]
1000bd10:	f7f9 fd48 	bl	100057a4 <gpio_init>
1000bd14:	7c60      	ldrb	r0, [r4, #17]
1000bd16:	f7f9 fd45 	bl	100057a4 <gpio_init>
1000bd1a:	f04f 0501 	mov.w	r5, #1
1000bd1e:	7ba0      	ldrb	r0, [r4, #14]
1000bd20:	ec45 0044 	gpioc_bit_oe_put r0, r5
1000bd24:	7be1      	ldrb	r1, [r4, #15]
1000bd26:	ec45 1044 	gpioc_bit_oe_put r1, r5
1000bd2a:	7c22      	ldrb	r2, [r4, #16]
1000bd2c:	ec45 2044 	gpioc_bit_oe_put r2, r5
1000bd30:	7c63      	ldrb	r3, [r4, #17]
1000bd32:	ec45 3044 	gpioc_bit_oe_put r3, r5
1000bd36:	ec45 0040 	gpioc_bit_out_put r0, r5
1000bd3a:	ec45 1040 	gpioc_bit_out_put r1, r5
1000bd3e:	ec45 2040 	gpioc_bit_out_put r2, r5
1000bd42:	f04f 0600 	mov.w	r6, #0
1000bd46:	ec46 3040 	gpioc_bit_out_put r3, r6
1000bd4a:	e9d4 0101 	ldrd	r0, r1, [r4, #4]
1000bd4e:	f7ff fabf 	bl	1000b2d0 <spi_init>
1000bd52:	7b60      	ldrb	r0, [r4, #13]
1000bd54:	2101      	movs	r1, #1
1000bd56:	f7f9 fce3 	bl	10005720 <gpio_set_function>
1000bd5a:	2101      	movs	r1, #1
1000bd5c:	7b20      	ldrb	r0, [r4, #12]
1000bd5e:	f7f9 fcdf 	bl	10005720 <gpio_set_function>
1000bd62:	7c23      	ldrb	r3, [r4, #16]
1000bd64:	ec46 3040 	gpioc_bit_out_put r3, r6
1000bd68:	2014      	movs	r0, #20
1000bd6a:	f7fa fb91 	bl	10006490 <sleep_ms>
1000bd6e:	7c23      	ldrb	r3, [r4, #16]
1000bd70:	ec45 3040 	gpioc_bit_out_put r3, r5
1000bd74:	2078      	movs	r0, #120	@ 0x78
1000bd76:	f7fa fb8b 	bl	10006490 <sleep_ms>
1000bd7a:	f894 3024 	ldrb.w	r3, [r4, #36]	@ 0x24
1000bd7e:	b91b      	cbnz	r3, 1000bd88 <_ZN6st77893HAL4initERKNS_6ConfigE+0xa8>
1000bd80:	2001      	movs	r0, #1
1000bd82:	f884 0030 	strb.w	r0, [r4, #48]	@ 0x30
1000bd86:	bd70      	pop	{r4, r5, r6, pc}
1000bd88:	4620      	mov	r0, r4
1000bd8a:	f7ff ff3f 	bl	1000bc0c <_ZN6st77893HAL7initDmaEv>
1000bd8e:	2001      	movs	r0, #1
1000bd90:	f884 0030 	strb.w	r0, [r4, #48]	@ 0x30
1000bd94:	bd70      	pop	{r4, r5, r6, pc}
1000bd96:	bf00      	nop

1000bd98 <_ZN6st77893HAL12writeCommandEh>:
1000bd98:	b510      	push	{r4, lr}
1000bd9a:	b082      	sub	sp, #8
1000bd9c:	f04f 0300 	mov.w	r3, #0
1000bda0:	4604      	mov	r4, r0
1000bda2:	7b82      	ldrb	r2, [r0, #14]
1000bda4:	f88d 1007 	strb.w	r1, [sp, #7]
1000bda8:	ec43 2040 	gpioc_bit_out_put r2, r3
1000bdac:	7bc2      	ldrb	r2, [r0, #15]
1000bdae:	ec43 2040 	gpioc_bit_out_put r2, r3
1000bdb2:	2201      	movs	r2, #1
1000bdb4:	f10d 0107 	add.w	r1, sp, #7
1000bdb8:	6840      	ldr	r0, [r0, #4]
1000bdba:	f001 fbc9 	bl	1000d550 <__spi_write_blocking_veneer>
1000bdbe:	f04f 0201 	mov.w	r2, #1
1000bdc2:	7ba3      	ldrb	r3, [r4, #14]
1000bdc4:	ec42 3040 	gpioc_bit_out_put r3, r2
1000bdc8:	b002      	add	sp, #8
1000bdca:	bd10      	pop	{r4, pc}

1000bdcc <_ZN6st77893HAL9writeDataEh>:
1000bdcc:	b530      	push	{r4, r5, lr}
1000bdce:	b083      	sub	sp, #12
1000bdd0:	f04f 0200 	mov.w	r2, #0
1000bdd4:	4604      	mov	r4, r0
1000bdd6:	7b83      	ldrb	r3, [r0, #14]
1000bdd8:	f88d 1007 	strb.w	r1, [sp, #7]
1000bddc:	ec42 3040 	gpioc_bit_out_put r3, r2
1000bde0:	f04f 0501 	mov.w	r5, #1
1000bde4:	7bc3      	ldrb	r3, [r0, #15]
1000bde6:	ec45 3040 	gpioc_bit_out_put r3, r5
1000bdea:	2201      	movs	r2, #1
1000bdec:	f10d 0107 	add.w	r1, sp, #7
1000bdf0:	6840      	ldr	r0, [r0, #4]
1000bdf2:	f001 fbad 	bl	1000d550 <__spi_write_blocking_veneer>
1000bdf6:	7ba3      	ldrb	r3, [r4, #14]
1000bdf8:	ec45 3040 	gpioc_bit_out_put r3, r5
1000bdfc:	b003      	add	sp, #12
1000bdfe:	bd30      	pop	{r4, r5, pc}

1000be00 <_ZN6st77893HAL13writeDataBulkEPKhj>:
1000be00:	b902      	cbnz	r2, 1000be04 <_ZN6st77893HAL13writeDataBulkEPKhj+0x4>
1000be02:	4770      	bx	lr
1000be04:	b538      	push	{r3, r4, r5, lr}
1000be06:	4604      	mov	r4, r0
1000be08:	7b83      	ldrb	r3, [r0, #14]
1000be0a:	f04f 0000 	mov.w	r0, #0
1000be0e:	ec40 3040 	gpioc_bit_out_put r3, r0
1000be12:	f04f 0501 	mov.w	r5, #1
1000be16:	7be3      	ldrb	r3, [r4, #15]
1000be18:	ec45 3040 	gpioc_bit_out_put r3, r5
1000be1c:	6860      	ldr	r0, [r4, #4]
1000be1e:	f001 fb97 	bl	1000d550 <__spi_write_blocking_veneer>
1000be22:	7ba3      	ldrb	r3, [r4, #14]
1000be24:	ec45 3040 	gpioc_bit_out_put r3, r5
1000be28:	bd38      	pop	{r3, r4, r5, pc}
1000be2a:	bf00      	nop

1000be2c <_ZN6st77893HAL12writeDataDmaEPKtj>:
1000be2c:	e92d 43f0 	stmdb	sp!, {r4, r5, r6, r7, r8, r9, lr}
1000be30:	f890 3040 	ldrb.w	r3, [r0, #64]	@ 0x40
1000be34:	4605      	mov	r5, r0
1000be36:	460c      	mov	r4, r1
1000be38:	4617      	mov	r7, r2
1000be3a:	b0c1      	sub	sp, #260	@ 0x104
1000be3c:	2b00      	cmp	r3, #0
1000be3e:	d06f      	beq.n	1000bf20 <_ZN6st77893HAL12writeDataDmaEPKtj+0xf4>
1000be40:	6b83      	ldr	r3, [r0, #56]	@ 0x38
1000be42:	2b00      	cmp	r3, #0
1000be44:	d06c      	beq.n	1000bf20 <_ZN6st77893HAL12writeDataDmaEPKtj+0xf4>
1000be46:	6b43      	ldr	r3, [r0, #52]	@ 0x34
1000be48:	2b00      	cmp	r3, #0
1000be4a:	db69      	blt.n	1000bf20 <_ZN6st77893HAL12writeDataDmaEPKtj+0xf4>
1000be4c:	f890 3041 	ldrb.w	r3, [r0, #65]	@ 0x41
1000be50:	2b00      	cmp	r3, #0
1000be52:	f040 80aa 	bne.w	1000bfaa <_ZN6st77893HAL12writeDataDmaEPKtj+0x17e>
1000be56:	f04f 0201 	mov.w	r2, #1
1000be5a:	7beb      	ldrb	r3, [r5, #15]
1000be5c:	ec42 3040 	gpioc_bit_out_put r3, r2
1000be60:	f04f 0200 	mov.w	r2, #0
1000be64:	7bab      	ldrb	r3, [r5, #14]
1000be66:	ec42 3040 	gpioc_bit_out_put r3, r2
1000be6a:	2f00      	cmp	r7, #0
1000be6c:	d07f      	beq.n	1000bf6e <_ZN6st77893HAL12writeDataDmaEPKtj+0x142>
1000be6e:	f8df 91c0 	ldr.w	r9, [pc, #448]	@ 1000c030 <_ZN6st77893HAL12writeDataDmaEPKtj+0x204>
1000be72:	e9d5 630e 	ldrd	r6, r3, [r5, #56]	@ 0x38
1000be76:	ea4f 0853 	mov.w	r8, r3, lsr #1
1000be7a:	45b8      	cmp	r8, r7
1000be7c:	bf28      	it	cs
1000be7e:	46b8      	movcs	r8, r7
1000be80:	f1b8 0f00 	cmp.w	r8, #0
1000be84:	d00a      	beq.n	1000be9c <_ZN6st77893HAL12writeDataDmaEPKtj+0x70>
1000be86:	1ea2      	subs	r2, r4, #2
1000be88:	1eb1      	subs	r1, r6, #2
1000be8a:	eb02 0048 	add.w	r0, r2, r8, lsl #1
1000be8e:	f832 3f02 	ldrh.w	r3, [r2, #2]!
1000be92:	ba5b      	rev16	r3, r3
1000be94:	4290      	cmp	r0, r2
1000be96:	f821 3f02 	strh.w	r3, [r1, #2]!
1000be9a:	d1f8      	bne.n	1000be8e <_ZN6st77893HAL12writeDataDmaEPKtj+0x62>
1000be9c:	2201      	movs	r2, #1
1000be9e:	6b6b      	ldr	r3, [r5, #52]	@ 0x34
1000bea0:	f885 2041 	strb.w	r2, [r5, #65]	@ 0x41
1000bea4:	019b      	lsls	r3, r3, #6
1000bea6:	f103 43a0 	add.w	r3, r3, #1342177280	@ 0x50000000
1000beaa:	601e      	str	r6, [r3, #0]
1000beac:	f8c3 801c 	str.w	r8, [r3, #28]
1000beb0:	f7fa fbe0 	bl	10006674 <time_us_64>
1000beb4:	2900      	cmp	r1, #0
1000beb6:	d074      	beq.n	1000bfa2 <_ZN6st77893HAL12writeDataDmaEPKtj+0x176>
1000beb8:	f44f 727a 	mov.w	r2, #1000	@ 0x3e8
1000bebc:	2300      	movs	r3, #0
1000bebe:	f001 fb27 	bl	1000d510 <____aeabi_uldivmod_veneer>
1000bec2:	4606      	mov	r6, r0
1000bec4:	f895 3041 	ldrb.w	r3, [r5, #65]	@ 0x41
1000bec8:	2b00      	cmp	r3, #0
1000beca:	d063      	beq.n	1000bf94 <_ZN6st77893HAL12writeDataDmaEPKtj+0x168>
1000becc:	f7fa fbd2 	bl	10006674 <time_us_64>
1000bed0:	4603      	mov	r3, r0
1000bed2:	2900      	cmp	r1, #0
1000bed4:	d053      	beq.n	1000bf7e <_ZN6st77893HAL12writeDataDmaEPKtj+0x152>
1000bed6:	f44f 727a 	mov.w	r2, #1000	@ 0x3e8
1000beda:	2300      	movs	r3, #0
1000bedc:	f001 fb18 	bl	1000d510 <____aeabi_uldivmod_veneer>
1000bee0:	1b80      	subs	r0, r0, r6
1000bee2:	f5b0 7f7a 	cmp.w	r0, #1000	@ 0x3e8
1000bee6:	d9ed      	bls.n	1000bec4 <_ZN6st77893HAL12writeDataDmaEPKtj+0x98>
1000bee8:	484f      	ldr	r0, [pc, #316]	@ (1000c028 <_ZN6st77893HAL12writeDataDmaEPKtj+0x1fc>)
1000beea:	f7fc fdeb 	bl	10008ac4 <__wrap_puts>
1000beee:	6b6b      	ldr	r3, [r5, #52]	@ 0x34
1000bef0:	2b00      	cmp	r3, #0
1000bef2:	db0b      	blt.n	1000bf0c <_ZN6st77893HAL12writeDataDmaEPKtj+0xe0>
1000bef4:	2101      	movs	r1, #1
1000bef6:	f04f 40a0 	mov.w	r0, #1342177280	@ 0x50000000
1000befa:	019a      	lsls	r2, r3, #6
1000befc:	fa01 f303 	lsl.w	r3, r1, r3
1000bf00:	4402      	add	r2, r0
1000bf02:	f8c0 3464 	str.w	r3, [r0, #1124]	@ 0x464
1000bf06:	68d3      	ldr	r3, [r2, #12]
1000bf08:	015b      	lsls	r3, r3, #5
1000bf0a:	d4fc      	bmi.n	1000bf06 <_ZN6st77893HAL12writeDataDmaEPKtj+0xda>
1000bf0c:	2100      	movs	r1, #0
1000bf0e:	7bab      	ldrb	r3, [r5, #14]
1000bf10:	f04f 0201 	mov.w	r2, #1
1000bf14:	f885 1041 	strb.w	r1, [r5, #65]	@ 0x41
1000bf18:	ec42 3040 	gpioc_bit_out_put r3, r2
1000bf1c:	2000      	movs	r0, #0
1000bf1e:	e02b      	b.n	1000bf78 <_ZN6st77893HAL12writeDataDmaEPKtj+0x14c>
1000bf20:	f04f 0201 	mov.w	r2, #1
1000bf24:	7beb      	ldrb	r3, [r5, #15]
1000bf26:	ec42 3040 	gpioc_bit_out_put r3, r2
1000bf2a:	f04f 0200 	mov.w	r2, #0
1000bf2e:	7bab      	ldrb	r3, [r5, #14]
1000bf30:	ec42 3040 	gpioc_bit_out_put r3, r2
1000bf34:	b1df      	cbz	r7, 1000bf6e <_ZN6st77893HAL12writeDataDmaEPKtj+0x142>
1000bf36:	2f80      	cmp	r7, #128	@ 0x80
1000bf38:	46b8      	mov	r8, r7
1000bf3a:	bf28      	it	cs
1000bf3c:	f04f 0880 	movcs.w	r8, #128	@ 0x80
1000bf40:	466b      	mov	r3, sp
1000bf42:	ea4f 0248 	mov.w	r2, r8, lsl #1
1000bf46:	eb04 0648 	add.w	r6, r4, r8, lsl #1
1000bf4a:	f834 1b02 	ldrh.w	r1, [r4], #2
1000bf4e:	3302      	adds	r3, #2
1000bf50:	0a08      	lsrs	r0, r1, #8
1000bf52:	42b4      	cmp	r4, r6
1000bf54:	f803 0c02 	strb.w	r0, [r3, #-2]
1000bf58:	f803 1c01 	strb.w	r1, [r3, #-1]
1000bf5c:	d1f5      	bne.n	1000bf4a <_ZN6st77893HAL12writeDataDmaEPKtj+0x11e>
1000bf5e:	4669      	mov	r1, sp
1000bf60:	6868      	ldr	r0, [r5, #4]
1000bf62:	f001 faf5 	bl	1000d550 <__spi_write_blocking_veneer>
1000bf66:	ebb7 0708 	subs.w	r7, r7, r8
1000bf6a:	d1e4      	bne.n	1000bf36 <_ZN6st77893HAL12writeDataDmaEPKtj+0x10a>
1000bf6c:	7bab      	ldrb	r3, [r5, #14]
1000bf6e:	f04f 0201 	mov.w	r2, #1
1000bf72:	ec42 3040 	gpioc_bit_out_put r3, r2
1000bf76:	2001      	movs	r0, #1
1000bf78:	b041      	add	sp, #260	@ 0x104
1000bf7a:	e8bd 83f0 	ldmia.w	sp!, {r4, r5, r6, r7, r8, r9, pc}
1000bf7e:	fba9 3003 	umull	r3, r0, r9, r3
1000bf82:	ebc6 1090 	rsb	r0, r6, r0, lsr #6
1000bf86:	f5b0 7f7a 	cmp.w	r0, #1000	@ 0x3e8
1000bf8a:	d8ad      	bhi.n	1000bee8 <_ZN6st77893HAL12writeDataDmaEPKtj+0xbc>
1000bf8c:	f895 3041 	ldrb.w	r3, [r5, #65]	@ 0x41
1000bf90:	2b00      	cmp	r3, #0
1000bf92:	d19b      	bne.n	1000becc <_ZN6st77893HAL12writeDataDmaEPKtj+0xa0>
1000bf94:	ebb7 0708 	subs.w	r7, r7, r8
1000bf98:	eb04 0448 	add.w	r4, r4, r8, lsl #1
1000bf9c:	f47f af69 	bne.w	1000be72 <_ZN6st77893HAL12writeDataDmaEPKtj+0x46>
1000bfa0:	e7e4      	b.n	1000bf6c <_ZN6st77893HAL12writeDataDmaEPKtj+0x140>
1000bfa2:	fba9 3600 	umull	r3, r6, r9, r0
1000bfa6:	09b6      	lsrs	r6, r6, #6
1000bfa8:	e78c      	b.n	1000bec4 <_ZN6st77893HAL12writeDataDmaEPKtj+0x98>
1000bfaa:	f7fa fb63 	bl	10006674 <time_us_64>
1000bfae:	b3b1      	cbz	r1, 1000c01e <_ZN6st77893HAL12writeDataDmaEPKtj+0x1f2>
1000bfb0:	f44f 727a 	mov.w	r2, #1000	@ 0x3e8
1000bfb4:	2300      	movs	r3, #0
1000bfb6:	f001 faab 	bl	1000d510 <____aeabi_uldivmod_veneer>
1000bfba:	4606      	mov	r6, r0
1000bfbc:	f8df 8070 	ldr.w	r8, [pc, #112]	@ 1000c030 <_ZN6st77893HAL12writeDataDmaEPKtj+0x204>
1000bfc0:	f895 3041 	ldrb.w	r3, [r5, #65]	@ 0x41
1000bfc4:	2b00      	cmp	r3, #0
1000bfc6:	f43f af46 	beq.w	1000be56 <_ZN6st77893HAL12writeDataDmaEPKtj+0x2a>
1000bfca:	f7fa fb53 	bl	10006674 <time_us_64>
1000bfce:	b1f1      	cbz	r1, 1000c00e <_ZN6st77893HAL12writeDataDmaEPKtj+0x1e2>
1000bfd0:	2300      	movs	r3, #0
1000bfd2:	f44f 727a 	mov.w	r2, #1000	@ 0x3e8
1000bfd6:	f001 fa9b 	bl	1000d510 <____aeabi_uldivmod_veneer>
1000bfda:	1b83      	subs	r3, r0, r6
1000bfdc:	f5b3 7f7a 	cmp.w	r3, #1000	@ 0x3e8
1000bfe0:	d9ee      	bls.n	1000bfc0 <_ZN6st77893HAL12writeDataDmaEPKtj+0x194>
1000bfe2:	4812      	ldr	r0, [pc, #72]	@ (1000c02c <_ZN6st77893HAL12writeDataDmaEPKtj+0x200>)
1000bfe4:	f7fc fd6e 	bl	10008ac4 <__wrap_puts>
1000bfe8:	6b6a      	ldr	r2, [r5, #52]	@ 0x34
1000bfea:	2a00      	cmp	r2, #0
1000bfec:	db0b      	blt.n	1000c006 <_ZN6st77893HAL12writeDataDmaEPKtj+0x1da>
1000bfee:	2101      	movs	r1, #1
1000bff0:	f04f 40a0 	mov.w	r0, #1342177280	@ 0x50000000
1000bff4:	0193      	lsls	r3, r2, #6
1000bff6:	fa01 f202 	lsl.w	r2, r1, r2
1000bffa:	4403      	add	r3, r0
1000bffc:	f8c0 2464 	str.w	r2, [r0, #1124]	@ 0x464
1000c000:	68da      	ldr	r2, [r3, #12]
1000c002:	0152      	lsls	r2, r2, #5
1000c004:	d4fc      	bmi.n	1000c000 <_ZN6st77893HAL12writeDataDmaEPKtj+0x1d4>
1000c006:	2300      	movs	r3, #0
1000c008:	f885 3041 	strb.w	r3, [r5, #65]	@ 0x41
1000c00c:	e786      	b.n	1000bf1c <_ZN6st77893HAL12writeDataDmaEPKtj+0xf0>
1000c00e:	fba8 2300 	umull	r2, r3, r8, r0
1000c012:	ebc6 1393 	rsb	r3, r6, r3, lsr #6
1000c016:	f5b3 7f7a 	cmp.w	r3, #1000	@ 0x3e8
1000c01a:	d9d1      	bls.n	1000bfc0 <_ZN6st77893HAL12writeDataDmaEPKtj+0x194>
1000c01c:	e7e1      	b.n	1000bfe2 <_ZN6st77893HAL12writeDataDmaEPKtj+0x1b6>
1000c01e:	4a04      	ldr	r2, [pc, #16]	@ (1000c030 <_ZN6st77893HAL12writeDataDmaEPKtj+0x204>)
1000c020:	fba2 2300 	umull	r2, r3, r2, r0
1000c024:	099e      	lsrs	r6, r3, #6
1000c026:	e7c9      	b.n	1000bfbc <_ZN6st77893HAL12writeDataDmaEPKtj+0x190>
1000c028:	1000dbb0 	.word	0x1000dbb0
1000c02c:	1000dbc8 	.word	0x1000dbc8
1000c030:	10624dd3 	.word	0x10624dd3

1000c034 <_ZN6st77893HAL22writeDataDmaSolidColorEtj>:
1000c034:	2a00      	cmp	r2, #0
1000c036:	f000 80f5 	beq.w	1000c224 <_ZN6st77893HAL22writeDataDmaSolidColorEtj+0x1f0>
1000c03a:	e92d 43f0 	stmdb	sp!, {r4, r5, r6, r7, r8, r9, lr}
1000c03e:	f890 3040 	ldrb.w	r3, [r0, #64]	@ 0x40
1000c042:	4604      	mov	r4, r0
1000c044:	460e      	mov	r6, r1
1000c046:	4617      	mov	r7, r2
1000c048:	b0c1      	sub	sp, #260	@ 0x104
1000c04a:	2b00      	cmp	r3, #0
1000c04c:	d075      	beq.n	1000c13a <_ZN6st77893HAL22writeDataDmaSolidColorEtj+0x106>
1000c04e:	6b85      	ldr	r5, [r0, #56]	@ 0x38
1000c050:	2d00      	cmp	r5, #0
1000c052:	d072      	beq.n	1000c13a <_ZN6st77893HAL22writeDataDmaSolidColorEtj+0x106>
1000c054:	6b40      	ldr	r0, [r0, #52]	@ 0x34
1000c056:	2800      	cmp	r0, #0
1000c058:	db6f      	blt.n	1000c13a <_ZN6st77893HAL22writeDataDmaSolidColorEtj+0x106>
1000c05a:	f894 3041 	ldrb.w	r3, [r4, #65]	@ 0x41
1000c05e:	2b00      	cmp	r3, #0
1000c060:	f040 80ae 	bne.w	1000c1c0 <_ZN6st77893HAL22writeDataDmaSolidColorEtj+0x18c>
1000c064:	ba76      	rev16	r6, r6
1000c066:	fa1f f986 	uxth.w	r9, r6
1000c06a:	7be3      	ldrb	r3, [r4, #15]
1000c06c:	f04f 0201 	mov.w	r2, #1
1000c070:	ec42 3040 	gpioc_bit_out_put r3, r2
1000c074:	f04f 0200 	mov.w	r2, #0
1000c078:	7ba3      	ldrb	r3, [r4, #14]
1000c07a:	ec42 3040 	gpioc_bit_out_put r3, r2
1000c07e:	f8df 81dc 	ldr.w	r8, [pc, #476]	@ 1000c25c <_ZN6st77893HAL22writeDataDmaSolidColorEtj+0x228>
1000c082:	6be6      	ldr	r6, [r4, #60]	@ 0x3c
1000c084:	0876      	lsrs	r6, r6, #1
1000c086:	42be      	cmp	r6, r7
1000c088:	bf28      	it	cs
1000c08a:	463e      	movcs	r6, r7
1000c08c:	b1ae      	cbz	r6, 1000c0ba <_ZN6st77893HAL22writeDataDmaSolidColorEtj+0x86>
1000c08e:	2e01      	cmp	r6, #1
1000c090:	f000 80c6 	beq.w	1000c220 <_ZN6st77893HAL22writeDataDmaSolidColorEtj+0x1ec>
1000c094:	2200      	movs	r2, #0
1000c096:	462b      	mov	r3, r5
1000c098:	0871      	lsrs	r1, r6, #1
1000c09a:	f369 020f 	bfi	r2, r9, #0, #16
1000c09e:	eb05 0181 	add.w	r1, r5, r1, lsl #2
1000c0a2:	f369 421f 	bfi	r2, r9, #16, #16
1000c0a6:	f843 2b04 	str.w	r2, [r3], #4
1000c0aa:	4299      	cmp	r1, r3
1000c0ac:	d1fb      	bne.n	1000c0a6 <_ZN6st77893HAL22writeDataDmaSolidColorEtj+0x72>
1000c0ae:	07f2      	lsls	r2, r6, #31
1000c0b0:	d503      	bpl.n	1000c0ba <_ZN6st77893HAL22writeDataDmaSolidColorEtj+0x86>
1000c0b2:	f026 0301 	bic.w	r3, r6, #1
1000c0b6:	f825 9013 	strh.w	r9, [r5, r3, lsl #1]
1000c0ba:	2201      	movs	r2, #1
1000c0bc:	0183      	lsls	r3, r0, #6
1000c0be:	f103 43a0 	add.w	r3, r3, #1342177280	@ 0x50000000
1000c0c2:	f884 2041 	strb.w	r2, [r4, #65]	@ 0x41
1000c0c6:	601d      	str	r5, [r3, #0]
1000c0c8:	61de      	str	r6, [r3, #28]
1000c0ca:	f7fa fad3 	bl	10006674 <time_us_64>
1000c0ce:	2900      	cmp	r1, #0
1000c0d0:	d072      	beq.n	1000c1b8 <_ZN6st77893HAL22writeDataDmaSolidColorEtj+0x184>
1000c0d2:	f44f 727a 	mov.w	r2, #1000	@ 0x3e8
1000c0d6:	2300      	movs	r3, #0
1000c0d8:	f001 fa1a 	bl	1000d510 <____aeabi_uldivmod_veneer>
1000c0dc:	4605      	mov	r5, r0
1000c0de:	f894 3041 	ldrb.w	r3, [r4, #65]	@ 0x41
1000c0e2:	2b00      	cmp	r3, #0
1000c0e4:	d063      	beq.n	1000c1ae <_ZN6st77893HAL22writeDataDmaSolidColorEtj+0x17a>
1000c0e6:	f7fa fac5 	bl	10006674 <time_us_64>
1000c0ea:	4603      	mov	r3, r0
1000c0ec:	2900      	cmp	r1, #0
1000c0ee:	d053      	beq.n	1000c198 <_ZN6st77893HAL22writeDataDmaSolidColorEtj+0x164>
1000c0f0:	f44f 727a 	mov.w	r2, #1000	@ 0x3e8
1000c0f4:	2300      	movs	r3, #0
1000c0f6:	f001 fa0b 	bl	1000d510 <____aeabi_uldivmod_veneer>
1000c0fa:	1b40      	subs	r0, r0, r5
1000c0fc:	f5b0 7f7a 	cmp.w	r0, #1000	@ 0x3e8
1000c100:	d9ed      	bls.n	1000c0de <_ZN6st77893HAL22writeDataDmaSolidColorEtj+0xaa>
1000c102:	4855      	ldr	r0, [pc, #340]	@ (1000c258 <_ZN6st77893HAL22writeDataDmaSolidColorEtj+0x224>)
1000c104:	f7fc fcde 	bl	10008ac4 <__wrap_puts>
1000c108:	6b63      	ldr	r3, [r4, #52]	@ 0x34
1000c10a:	2b00      	cmp	r3, #0
1000c10c:	db0b      	blt.n	1000c126 <_ZN6st77893HAL22writeDataDmaSolidColorEtj+0xf2>
1000c10e:	2101      	movs	r1, #1
1000c110:	f04f 40a0 	mov.w	r0, #1342177280	@ 0x50000000
1000c114:	019a      	lsls	r2, r3, #6
1000c116:	fa01 f303 	lsl.w	r3, r1, r3
1000c11a:	4402      	add	r2, r0
1000c11c:	f8c0 3464 	str.w	r3, [r0, #1124]	@ 0x464
1000c120:	68d3      	ldr	r3, [r2, #12]
1000c122:	015b      	lsls	r3, r3, #5
1000c124:	d4fc      	bmi.n	1000c120 <_ZN6st77893HAL22writeDataDmaSolidColorEtj+0xec>
1000c126:	2100      	movs	r1, #0
1000c128:	7ba3      	ldrb	r3, [r4, #14]
1000c12a:	f04f 0201 	mov.w	r2, #1
1000c12e:	f884 1041 	strb.w	r1, [r4, #65]	@ 0x41
1000c132:	ec42 3040 	gpioc_bit_out_put r3, r2
1000c136:	2000      	movs	r0, #0
1000c138:	e02b      	b.n	1000c192 <_ZN6st77893HAL22writeDataDmaSolidColorEtj+0x15e>
1000c13a:	7be3      	ldrb	r3, [r4, #15]
1000c13c:	f04f 0201 	mov.w	r2, #1
1000c140:	ec42 3040 	gpioc_bit_out_put r3, r2
1000c144:	f04f 0200 	mov.w	r2, #0
1000c148:	7ba3      	ldrb	r3, [r4, #14]
1000c14a:	ec42 3040 	gpioc_bit_out_put r3, r2
1000c14e:	2200      	movs	r2, #0
1000c150:	466b      	mov	r3, sp
1000c152:	0a31      	lsrs	r1, r6, #8
1000c154:	f361 0207 	bfi	r2, r1, #0, #8
1000c158:	b2f6      	uxtb	r6, r6
1000c15a:	f366 220f 	bfi	r2, r6, #8, #8
1000c15e:	f361 4217 	bfi	r2, r1, #16, #8
1000c162:	f366 621f 	bfi	r2, r6, #24, #8
1000c166:	f843 2b04 	str.w	r2, [r3], #4
1000c16a:	a940      	add	r1, sp, #256	@ 0x100
1000c16c:	428b      	cmp	r3, r1
1000c16e:	d1fa      	bne.n	1000c166 <_ZN6st77893HAL22writeDataDmaSolidColorEtj+0x132>
1000c170:	2f80      	cmp	r7, #128	@ 0x80
1000c172:	463d      	mov	r5, r7
1000c174:	bf28      	it	cs
1000c176:	2580      	movcs	r5, #128	@ 0x80
1000c178:	4669      	mov	r1, sp
1000c17a:	6860      	ldr	r0, [r4, #4]
1000c17c:	006a      	lsls	r2, r5, #1
1000c17e:	f001 f9e7 	bl	1000d550 <__spi_write_blocking_veneer>
1000c182:	1b7f      	subs	r7, r7, r5
1000c184:	d1f4      	bne.n	1000c170 <_ZN6st77893HAL22writeDataDmaSolidColorEtj+0x13c>
1000c186:	7ba3      	ldrb	r3, [r4, #14]
1000c188:	f04f 0201 	mov.w	r2, #1
1000c18c:	ec42 3040 	gpioc_bit_out_put r3, r2
1000c190:	2001      	movs	r0, #1
1000c192:	b041      	add	sp, #260	@ 0x104
1000c194:	e8bd 83f0 	ldmia.w	sp!, {r4, r5, r6, r7, r8, r9, pc}
1000c198:	fba8 3003 	umull	r3, r0, r8, r3
1000c19c:	ebc5 1090 	rsb	r0, r5, r0, lsr #6
1000c1a0:	f5b0 7f7a 	cmp.w	r0, #1000	@ 0x3e8
1000c1a4:	d8ad      	bhi.n	1000c102 <_ZN6st77893HAL22writeDataDmaSolidColorEtj+0xce>
1000c1a6:	f894 3041 	ldrb.w	r3, [r4, #65]	@ 0x41
1000c1aa:	2b00      	cmp	r3, #0
1000c1ac:	d19b      	bne.n	1000c0e6 <_ZN6st77893HAL22writeDataDmaSolidColorEtj+0xb2>
1000c1ae:	1bbf      	subs	r7, r7, r6
1000c1b0:	d03a      	beq.n	1000c228 <_ZN6st77893HAL22writeDataDmaSolidColorEtj+0x1f4>
1000c1b2:	e9d4 050d 	ldrd	r0, r5, [r4, #52]	@ 0x34
1000c1b6:	e764      	b.n	1000c082 <_ZN6st77893HAL22writeDataDmaSolidColorEtj+0x4e>
1000c1b8:	fba8 3500 	umull	r3, r5, r8, r0
1000c1bc:	09ad      	lsrs	r5, r5, #6
1000c1be:	e78e      	b.n	1000c0de <_ZN6st77893HAL22writeDataDmaSolidColorEtj+0xaa>
1000c1c0:	f7fa fa58 	bl	10006674 <time_us_64>
1000c1c4:	2900      	cmp	r1, #0
1000c1c6:	d135      	bne.n	1000c234 <_ZN6st77893HAL22writeDataDmaSolidColorEtj+0x200>
1000c1c8:	4a24      	ldr	r2, [pc, #144]	@ (1000c25c <_ZN6st77893HAL22writeDataDmaSolidColorEtj+0x228>)
1000c1ca:	fba2 2300 	umull	r2, r3, r2, r0
1000c1ce:	099d      	lsrs	r5, r3, #6
1000c1d0:	f8df 8088 	ldr.w	r8, [pc, #136]	@ 1000c25c <_ZN6st77893HAL22writeDataDmaSolidColorEtj+0x228>
1000c1d4:	f894 3041 	ldrb.w	r3, [r4, #65]	@ 0x41
1000c1d8:	2b00      	cmp	r3, #0
1000c1da:	d03a      	beq.n	1000c252 <_ZN6st77893HAL22writeDataDmaSolidColorEtj+0x21e>
1000c1dc:	f7fa fa4a 	bl	10006674 <time_us_64>
1000c1e0:	b379      	cbz	r1, 1000c242 <_ZN6st77893HAL22writeDataDmaSolidColorEtj+0x20e>
1000c1e2:	2300      	movs	r3, #0
1000c1e4:	f44f 727a 	mov.w	r2, #1000	@ 0x3e8
1000c1e8:	f001 f992 	bl	1000d510 <____aeabi_uldivmod_veneer>
1000c1ec:	1b43      	subs	r3, r0, r5
1000c1ee:	f5b3 7f7a 	cmp.w	r3, #1000	@ 0x3e8
1000c1f2:	d9ef      	bls.n	1000c1d4 <_ZN6st77893HAL22writeDataDmaSolidColorEtj+0x1a0>
1000c1f4:	481a      	ldr	r0, [pc, #104]	@ (1000c260 <_ZN6st77893HAL22writeDataDmaSolidColorEtj+0x22c>)
1000c1f6:	f7fc fc65 	bl	10008ac4 <__wrap_puts>
1000c1fa:	6b62      	ldr	r2, [r4, #52]	@ 0x34
1000c1fc:	2a00      	cmp	r2, #0
1000c1fe:	db0b      	blt.n	1000c218 <_ZN6st77893HAL22writeDataDmaSolidColorEtj+0x1e4>
1000c200:	2101      	movs	r1, #1
1000c202:	f04f 40a0 	mov.w	r0, #1342177280	@ 0x50000000
1000c206:	0193      	lsls	r3, r2, #6
1000c208:	fa01 f202 	lsl.w	r2, r1, r2
1000c20c:	4403      	add	r3, r0
1000c20e:	f8c0 2464 	str.w	r2, [r0, #1124]	@ 0x464
1000c212:	68da      	ldr	r2, [r3, #12]
1000c214:	0151      	lsls	r1, r2, #5
1000c216:	d4fc      	bmi.n	1000c212 <_ZN6st77893HAL22writeDataDmaSolidColorEtj+0x1de>
1000c218:	2300      	movs	r3, #0
1000c21a:	f884 3041 	strb.w	r3, [r4, #65]	@ 0x41
1000c21e:	e78a      	b.n	1000c136 <_ZN6st77893HAL22writeDataDmaSolidColorEtj+0x102>
1000c220:	2300      	movs	r3, #0
1000c222:	e748      	b.n	1000c0b6 <_ZN6st77893HAL22writeDataDmaSolidColorEtj+0x82>
1000c224:	2001      	movs	r0, #1
1000c226:	4770      	bx	lr
1000c228:	f04f 0201 	mov.w	r2, #1
1000c22c:	7ba3      	ldrb	r3, [r4, #14]
1000c22e:	ec42 3040 	gpioc_bit_out_put r3, r2
1000c232:	e7ad      	b.n	1000c190 <_ZN6st77893HAL22writeDataDmaSolidColorEtj+0x15c>
1000c234:	f44f 727a 	mov.w	r2, #1000	@ 0x3e8
1000c238:	2300      	movs	r3, #0
1000c23a:	f001 f969 	bl	1000d510 <____aeabi_uldivmod_veneer>
1000c23e:	4605      	mov	r5, r0
1000c240:	e7c6      	b.n	1000c1d0 <_ZN6st77893HAL22writeDataDmaSolidColorEtj+0x19c>
1000c242:	fba8 2300 	umull	r2, r3, r8, r0
1000c246:	ebc5 1393 	rsb	r3, r5, r3, lsr #6
1000c24a:	f5b3 7f7a 	cmp.w	r3, #1000	@ 0x3e8
1000c24e:	d9c1      	bls.n	1000c1d4 <_ZN6st77893HAL22writeDataDmaSolidColorEtj+0x1a0>
1000c250:	e7d0      	b.n	1000c1f4 <_ZN6st77893HAL22writeDataDmaSolidColorEtj+0x1c0>
1000c252:	e9d4 050d 	ldrd	r0, r5, [r4, #52]	@ 0x34
1000c256:	e705      	b.n	1000c064 <_ZN6st77893HAL22writeDataDmaSolidColorEtj+0x30>
1000c258:	1000dbb0 	.word	0x1000dbb0
1000c25c:	10624dd3 	.word	0x10624dd3
1000c260:	1000dbc8 	.word	0x1000dbc8

1000c264 <_ZN6st77893HAL5resetEv>:
1000c264:	b510      	push	{r4, lr}
1000c266:	f04f 0200 	mov.w	r2, #0
1000c26a:	4604      	mov	r4, r0
1000c26c:	7c03      	ldrb	r3, [r0, #16]
1000c26e:	ec42 3040 	gpioc_bit_out_put r3, r2
1000c272:	2014      	movs	r0, #20
1000c274:	f7fa f90c 	bl	10006490 <sleep_ms>
1000c278:	f04f 0201 	mov.w	r2, #1
1000c27c:	7c23      	ldrb	r3, [r4, #16]
1000c27e:	ec42 3040 	gpioc_bit_out_put r3, r2
1000c282:	2078      	movs	r0, #120	@ 0x78
1000c284:	e8bd 4010 	ldmia.w	sp!, {r4, lr}
1000c288:	f7fa b902 	b.w	10006490 <sleep_ms>

1000c28c <_ZN6st77893HAL12setBacklightEb>:
1000c28c:	7c43      	ldrb	r3, [r0, #17]
1000c28e:	ec41 3040 	gpioc_bit_out_put r3, r1
1000c292:	4770      	bx	lr

1000c294 <_ZN6st77893HAL5delayEm>:
1000c294:	4608      	mov	r0, r1
1000c296:	f7fa b8fb 	b.w	10006490 <sleep_ms>
1000c29a:	bf00      	nop

1000c29c <_ZN6st77898GraphicsD1Ev>:
1000c29c:	4770      	bx	lr
1000c29e:	bf00      	nop

1000c2a0 <_ZN6st77898GraphicsD0Ev>:
1000c2a0:	b510      	push	{r4, lr}
1000c2a2:	4604      	mov	r4, r0
1000c2a4:	2108      	movs	r1, #8
1000c2a6:	f7fa feed 	bl	10007084 <_ZdlPvj>
1000c2aa:	4620      	mov	r0, r4
1000c2ac:	bd10      	pop	{r4, pc}
1000c2ae:	bf00      	nop

1000c2b0 <_ZN6st77898GraphicsC1EPNS_6ST7789E>:
1000c2b0:	4a01      	ldr	r2, [pc, #4]	@ (1000c2b8 <_ZN6st77898GraphicsC1EPNS_6ST7789E+0x8>)
1000c2b2:	e9c0 2100 	strd	r2, r1, [r0]
1000c2b6:	4770      	bx	lr
1000c2b8:	1002591c 	.word	0x1002591c

1000c2bc <malloc>:
1000c2bc:	4b02      	ldr	r3, [pc, #8]	@ (1000c2c8 <malloc+0xc>)
1000c2be:	4601      	mov	r1, r0
1000c2c0:	6818      	ldr	r0, [r3, #0]
1000c2c2:	f000 b80b 	b.w	1000c2dc <_malloc_r>
1000c2c6:	bf00      	nop
1000c2c8:	20001768 	.word	0x20001768

1000c2cc <free>:
1000c2cc:	4b02      	ldr	r3, [pc, #8]	@ (1000c2d8 <free+0xc>)
1000c2ce:	4601      	mov	r1, r0
1000c2d0:	6818      	ldr	r0, [r3, #0]
1000c2d2:	f000 bf9b 	b.w	1000d20c <_free_r>
1000c2d6:	bf00      	nop
1000c2d8:	20001768 	.word	0x20001768

1000c2dc <_malloc_r>:
1000c2dc:	f101 030b 	add.w	r3, r1, #11
1000c2e0:	2b16      	cmp	r3, #22
1000c2e2:	e92d 4ff0 	stmdb	sp!, {r4, r5, r6, r7, r8, r9, sl, fp, lr}
1000c2e6:	4607      	mov	r7, r0
1000c2e8:	b083      	sub	sp, #12
1000c2ea:	d823      	bhi.n	1000c334 <_malloc_r+0x58>
1000c2ec:	2910      	cmp	r1, #16
1000c2ee:	f200 80af 	bhi.w	1000c450 <_malloc_r+0x174>
1000c2f2:	f000 faaf 	bl	1000c854 <__malloc_lock>
1000c2f6:	2510      	movs	r5, #16
1000c2f8:	2318      	movs	r3, #24
1000c2fa:	2002      	movs	r0, #2
1000c2fc:	4eba      	ldr	r6, [pc, #744]	@ (1000c5e8 <_malloc_r+0x30c>)
1000c2fe:	4433      	add	r3, r6
1000c300:	685c      	ldr	r4, [r3, #4]
1000c302:	f1a3 0208 	sub.w	r2, r3, #8
1000c306:	4294      	cmp	r4, r2
1000c308:	f000 8156 	beq.w	1000c5b8 <_malloc_r+0x2dc>
1000c30c:	6863      	ldr	r3, [r4, #4]
1000c30e:	4638      	mov	r0, r7
1000c310:	f023 0303 	bic.w	r3, r3, #3
1000c314:	e9d4 1202 	ldrd	r1, r2, [r4, #8]
1000c318:	4423      	add	r3, r4
1000c31a:	60ca      	str	r2, [r1, #12]
1000c31c:	6091      	str	r1, [r2, #8]
1000c31e:	685a      	ldr	r2, [r3, #4]
1000c320:	3408      	adds	r4, #8
1000c322:	f042 0201 	orr.w	r2, r2, #1
1000c326:	605a      	str	r2, [r3, #4]
1000c328:	f000 fa9a 	bl	1000c860 <__malloc_unlock>
1000c32c:	4620      	mov	r0, r4
1000c32e:	b003      	add	sp, #12
1000c330:	e8bd 8ff0 	ldmia.w	sp!, {r4, r5, r6, r7, r8, r9, sl, fp, pc}
1000c334:	2b00      	cmp	r3, #0
1000c336:	f023 0507 	bic.w	r5, r3, #7
1000c33a:	f2c0 8089 	blt.w	1000c450 <_malloc_r+0x174>
1000c33e:	42a9      	cmp	r1, r5
1000c340:	f200 8086 	bhi.w	1000c450 <_malloc_r+0x174>
1000c344:	f000 fa86 	bl	1000c854 <__malloc_lock>
1000c348:	f5b5 7ffc 	cmp.w	r5, #504	@ 0x1f8
1000c34c:	f0c0 827b 	bcc.w	1000c846 <_malloc_r+0x56a>
1000c350:	0a6b      	lsrs	r3, r5, #9
1000c352:	f000 8084 	beq.w	1000c45e <_malloc_r+0x182>
1000c356:	2b04      	cmp	r3, #4
1000c358:	f200 8162 	bhi.w	1000c620 <_malloc_r+0x344>
1000c35c:	09ab      	lsrs	r3, r5, #6
1000c35e:	f103 0039 	add.w	r0, r3, #57	@ 0x39
1000c362:	f103 0e38 	add.w	lr, r3, #56	@ 0x38
1000c366:	00c3      	lsls	r3, r0, #3
1000c368:	4e9f      	ldr	r6, [pc, #636]	@ (1000c5e8 <_malloc_r+0x30c>)
1000c36a:	4433      	add	r3, r6
1000c36c:	f1a3 0c08 	sub.w	ip, r3, #8
1000c370:	685c      	ldr	r4, [r3, #4]
1000c372:	45a4      	cmp	ip, r4
1000c374:	d107      	bne.n	1000c386 <_malloc_r+0xaa>
1000c376:	e00d      	b.n	1000c394 <_malloc_r+0xb8>
1000c378:	2a00      	cmp	r2, #0
1000c37a:	68e1      	ldr	r1, [r4, #12]
1000c37c:	f280 8116 	bge.w	1000c5ac <_malloc_r+0x2d0>
1000c380:	458c      	cmp	ip, r1
1000c382:	460c      	mov	r4, r1
1000c384:	d006      	beq.n	1000c394 <_malloc_r+0xb8>
1000c386:	6863      	ldr	r3, [r4, #4]
1000c388:	f023 0303 	bic.w	r3, r3, #3
1000c38c:	1b5a      	subs	r2, r3, r5
1000c38e:	2a0f      	cmp	r2, #15
1000c390:	ddf2      	ble.n	1000c378 <_malloc_r+0x9c>
1000c392:	4670      	mov	r0, lr
1000c394:	f8df 8268 	ldr.w	r8, [pc, #616]	@ 1000c600 <_malloc_r+0x324>
1000c398:	6934      	ldr	r4, [r6, #16]
1000c39a:	4544      	cmp	r4, r8
1000c39c:	f000 80f2 	beq.w	1000c584 <_malloc_r+0x2a8>
1000c3a0:	6863      	ldr	r3, [r4, #4]
1000c3a2:	f023 0c03 	bic.w	ip, r3, #3
1000c3a6:	ebac 0305 	sub.w	r3, ip, r5
1000c3aa:	2b0f      	cmp	r3, #15
1000c3ac:	f300 8174 	bgt.w	1000c698 <_malloc_r+0x3bc>
1000c3b0:	2b00      	cmp	r3, #0
1000c3b2:	e9c6 8804 	strd	r8, r8, [r6, #16]
1000c3b6:	f280 8163 	bge.w	1000c680 <_malloc_r+0x3a4>
1000c3ba:	f5bc 7f00 	cmp.w	ip, #512	@ 0x200
1000c3be:	f8d6 e004 	ldr.w	lr, [r6, #4]
1000c3c2:	f080 80ff 	bcs.w	1000c5c4 <_malloc_r+0x2e8>
1000c3c6:	ea4f 03dc 	mov.w	r3, ip, lsr #3
1000c3ca:	2201      	movs	r2, #1
1000c3cc:	ea4f 1c5c 	mov.w	ip, ip, lsr #5
1000c3d0:	3301      	adds	r3, #1
1000c3d2:	fa02 f20c 	lsl.w	r2, r2, ip
1000c3d6:	f856 1033 	ldr.w	r1, [r6, r3, lsl #3]
1000c3da:	ea4e 0e02 	orr.w	lr, lr, r2
1000c3de:	eb06 02c3 	add.w	r2, r6, r3, lsl #3
1000c3e2:	3a08      	subs	r2, #8
1000c3e4:	f8c6 e004 	str.w	lr, [r6, #4]
1000c3e8:	e9c4 1202 	strd	r1, r2, [r4, #8]
1000c3ec:	f846 4033 	str.w	r4, [r6, r3, lsl #3]
1000c3f0:	60cc      	str	r4, [r1, #12]
1000c3f2:	1083      	asrs	r3, r0, #2
1000c3f4:	f04f 0c01 	mov.w	ip, #1
1000c3f8:	fa0c fc03 	lsl.w	ip, ip, r3
1000c3fc:	45f4      	cmp	ip, lr
1000c3fe:	d834      	bhi.n	1000c46a <_malloc_r+0x18e>
1000c400:	ea1c 0f0e 	tst.w	ip, lr
1000c404:	d107      	bne.n	1000c416 <_malloc_r+0x13a>
1000c406:	f020 0003 	bic.w	r0, r0, #3
1000c40a:	ea4f 0c4c 	mov.w	ip, ip, lsl #1
1000c40e:	3004      	adds	r0, #4
1000c410:	ea1c 0f0e 	tst.w	ip, lr
1000c414:	d0f9      	beq.n	1000c40a <_malloc_r+0x12e>
1000c416:	eb06 0ac0 	add.w	sl, r6, r0, lsl #3
1000c41a:	4681      	mov	r9, r0
1000c41c:	46d6      	mov	lr, sl
1000c41e:	f8de 300c 	ldr.w	r3, [lr, #12]
1000c422:	e00b      	b.n	1000c43c <_malloc_r+0x160>
1000c424:	685a      	ldr	r2, [r3, #4]
1000c426:	461c      	mov	r4, r3
1000c428:	68db      	ldr	r3, [r3, #12]
1000c42a:	f022 0203 	bic.w	r2, r2, #3
1000c42e:	1b51      	subs	r1, r2, r5
1000c430:	290f      	cmp	r1, #15
1000c432:	f300 8101 	bgt.w	1000c638 <_malloc_r+0x35c>
1000c436:	2900      	cmp	r1, #0
1000c438:	f280 8115 	bge.w	1000c666 <_malloc_r+0x38a>
1000c43c:	459e      	cmp	lr, r3
1000c43e:	d1f1      	bne.n	1000c424 <_malloc_r+0x148>
1000c440:	f109 0901 	add.w	r9, r9, #1
1000c444:	f10e 0e08 	add.w	lr, lr, #8
1000c448:	f019 0f03 	tst.w	r9, #3
1000c44c:	d1e7      	bne.n	1000c41e <_malloc_r+0x142>
1000c44e:	e158      	b.n	1000c702 <_malloc_r+0x426>
1000c450:	230c      	movs	r3, #12
1000c452:	603b      	str	r3, [r7, #0]
1000c454:	2400      	movs	r4, #0
1000c456:	4620      	mov	r0, r4
1000c458:	b003      	add	sp, #12
1000c45a:	e8bd 8ff0 	ldmia.w	sp!, {r4, r5, r6, r7, r8, r9, sl, fp, pc}
1000c45e:	f44f 7300 	mov.w	r3, #512	@ 0x200
1000c462:	2040      	movs	r0, #64	@ 0x40
1000c464:	f04f 0e3f 	mov.w	lr, #63	@ 0x3f
1000c468:	e77e      	b.n	1000c368 <_malloc_r+0x8c>
1000c46a:	68b4      	ldr	r4, [r6, #8]
1000c46c:	6863      	ldr	r3, [r4, #4]
1000c46e:	f023 0903 	bic.w	r9, r3, #3
1000c472:	45a9      	cmp	r9, r5
1000c474:	eba9 0305 	sub.w	r3, r9, r5
1000c478:	d302      	bcc.n	1000c480 <_malloc_r+0x1a4>
1000c47a:	2b0f      	cmp	r3, #15
1000c47c:	f300 8085 	bgt.w	1000c58a <_malloc_r+0x2ae>
1000c480:	4b5a      	ldr	r3, [pc, #360]	@ (1000c5ec <_malloc_r+0x310>)
1000c482:	2008      	movs	r0, #8
1000c484:	681b      	ldr	r3, [r3, #0]
1000c486:	f103 0810 	add.w	r8, r3, #16
1000c48a:	eb04 0309 	add.w	r3, r4, r9
1000c48e:	9300      	str	r3, [sp, #0]
1000c490:	f000 fcd0 	bl	1000ce34 <sysconf>
1000c494:	4a56      	ldr	r2, [pc, #344]	@ (1000c5f0 <_malloc_r+0x314>)
1000c496:	44a8      	add	r8, r5
1000c498:	4683      	mov	fp, r0
1000c49a:	6813      	ldr	r3, [r2, #0]
1000c49c:	3301      	adds	r3, #1
1000c49e:	d005      	beq.n	1000c4ac <_malloc_r+0x1d0>
1000c4a0:	f108 38ff 	add.w	r8, r8, #4294967295
1000c4a4:	4243      	negs	r3, r0
1000c4a6:	4480      	add	r8, r0
1000c4a8:	ea03 0808 	and.w	r8, r3, r8
1000c4ac:	4641      	mov	r1, r8
1000c4ae:	4638      	mov	r0, r7
1000c4b0:	f000 fca4 	bl	1000cdfc <_sbrk_r>
1000c4b4:	f1b0 3fff 	cmp.w	r0, #4294967295
1000c4b8:	4682      	mov	sl, r0
1000c4ba:	4a4d      	ldr	r2, [pc, #308]	@ (1000c5f0 <_malloc_r+0x314>)
1000c4bc:	f000 8107 	beq.w	1000c6ce <_malloc_r+0x3f2>
1000c4c0:	eb04 0309 	add.w	r3, r4, r9
1000c4c4:	4283      	cmp	r3, r0
1000c4c6:	f200 8100 	bhi.w	1000c6ca <_malloc_r+0x3ee>
1000c4ca:	4b4a      	ldr	r3, [pc, #296]	@ (1000c5f4 <_malloc_r+0x318>)
1000c4cc:	f10b 3cff 	add.w	ip, fp, #4294967295
1000c4d0:	6818      	ldr	r0, [r3, #0]
1000c4d2:	4440      	add	r0, r8
1000c4d4:	6018      	str	r0, [r3, #0]
1000c4d6:	f000 8164 	beq.w	1000c7a2 <_malloc_r+0x4c6>
1000c4da:	6811      	ldr	r1, [r2, #0]
1000c4dc:	3101      	adds	r1, #1
1000c4de:	f000 816c 	beq.w	1000c7ba <_malloc_r+0x4de>
1000c4e2:	eb04 0209 	add.w	r2, r4, r9
1000c4e6:	ebaa 0202 	sub.w	r2, sl, r2
1000c4ea:	4402      	add	r2, r0
1000c4ec:	601a      	str	r2, [r3, #0]
1000c4ee:	f01a 0207 	ands.w	r2, sl, #7
1000c4f2:	e9cd 2300 	strd	r2, r3, [sp]
1000c4f6:	f000 8127 	beq.w	1000c748 <_malloc_r+0x46c>
1000c4fa:	f1c2 0208 	rsb	r2, r2, #8
1000c4fe:	4638      	mov	r0, r7
1000c500:	4492      	add	sl, r2
1000c502:	445a      	add	r2, fp
1000c504:	44d0      	add	r8, sl
1000c506:	ea08 010c 	and.w	r1, r8, ip
1000c50a:	1a52      	subs	r2, r2, r1
1000c50c:	ea02 0b0c 	and.w	fp, r2, ip
1000c510:	4659      	mov	r1, fp
1000c512:	f000 fc73 	bl	1000cdfc <_sbrk_r>
1000c516:	1c42      	adds	r2, r0, #1
1000c518:	9b01      	ldr	r3, [sp, #4]
1000c51a:	f000 816a 	beq.w	1000c7f2 <_malloc_r+0x516>
1000c51e:	eba0 000a 	sub.w	r0, r0, sl
1000c522:	eb00 080b 	add.w	r8, r0, fp
1000c526:	6818      	ldr	r0, [r3, #0]
1000c528:	f048 0201 	orr.w	r2, r8, #1
1000c52c:	42b4      	cmp	r4, r6
1000c52e:	f8c6 a008 	str.w	sl, [r6, #8]
1000c532:	4458      	add	r0, fp
1000c534:	f8ca 2004 	str.w	r2, [sl, #4]
1000c538:	6018      	str	r0, [r3, #0]
1000c53a:	d017      	beq.n	1000c56c <_malloc_r+0x290>
1000c53c:	f1b9 0f0f 	cmp.w	r9, #15
1000c540:	f240 813e 	bls.w	1000c7c0 <_malloc_r+0x4e4>
1000c544:	6861      	ldr	r1, [r4, #4]
1000c546:	f1a9 020c 	sub.w	r2, r9, #12
1000c54a:	f04f 0c05 	mov.w	ip, #5
1000c54e:	f022 0207 	bic.w	r2, r2, #7
1000c552:	f001 0101 	and.w	r1, r1, #1
1000c556:	4311      	orrs	r1, r2
1000c558:	2a0f      	cmp	r2, #15
1000c55a:	6061      	str	r1, [r4, #4]
1000c55c:	eb04 0102 	add.w	r1, r4, r2
1000c560:	e9c1 cc01 	strd	ip, ip, [r1, #4]
1000c564:	f200 814d 	bhi.w	1000c802 <_malloc_r+0x526>
1000c568:	f8da 2004 	ldr.w	r2, [sl, #4]
1000c56c:	4b22      	ldr	r3, [pc, #136]	@ (1000c5f8 <_malloc_r+0x31c>)
1000c56e:	4654      	mov	r4, sl
1000c570:	6819      	ldr	r1, [r3, #0]
1000c572:	4281      	cmp	r1, r0
1000c574:	bf38      	it	cc
1000c576:	6018      	strcc	r0, [r3, #0]
1000c578:	4b20      	ldr	r3, [pc, #128]	@ (1000c5fc <_malloc_r+0x320>)
1000c57a:	6819      	ldr	r1, [r3, #0]
1000c57c:	4281      	cmp	r1, r0
1000c57e:	bf38      	it	cc
1000c580:	6018      	strcc	r0, [r3, #0]
1000c582:	e0a6      	b.n	1000c6d2 <_malloc_r+0x3f6>
1000c584:	f8d6 e004 	ldr.w	lr, [r6, #4]
1000c588:	e733      	b.n	1000c3f2 <_malloc_r+0x116>
1000c58a:	1962      	adds	r2, r4, r5
1000c58c:	f045 0501 	orr.w	r5, r5, #1
1000c590:	f043 0301 	orr.w	r3, r3, #1
1000c594:	3408      	adds	r4, #8
1000c596:	f844 5c04 	str.w	r5, [r4, #-4]
1000c59a:	4638      	mov	r0, r7
1000c59c:	60b2      	str	r2, [r6, #8]
1000c59e:	6053      	str	r3, [r2, #4]
1000c5a0:	f000 f95e 	bl	1000c860 <__malloc_unlock>
1000c5a4:	4620      	mov	r0, r4
1000c5a6:	b003      	add	sp, #12
1000c5a8:	e8bd 8ff0 	ldmia.w	sp!, {r4, r5, r6, r7, r8, r9, sl, fp, pc}
1000c5ac:	68a2      	ldr	r2, [r4, #8]
1000c5ae:	4423      	add	r3, r4
1000c5b0:	4638      	mov	r0, r7
1000c5b2:	60d1      	str	r1, [r2, #12]
1000c5b4:	608a      	str	r2, [r1, #8]
1000c5b6:	e6b2      	b.n	1000c31e <_malloc_r+0x42>
1000c5b8:	68dc      	ldr	r4, [r3, #12]
1000c5ba:	42a3      	cmp	r3, r4
1000c5bc:	f47f aea6 	bne.w	1000c30c <_malloc_r+0x30>
1000c5c0:	3002      	adds	r0, #2
1000c5c2:	e6e7      	b.n	1000c394 <_malloc_r+0xb8>
1000c5c4:	f5bc 6f20 	cmp.w	ip, #2560	@ 0xa00
1000c5c8:	ea4f 225c 	mov.w	r2, ip, lsr #9
1000c5cc:	d376      	bcc.n	1000c6bc <_malloc_r+0x3e0>
1000c5ce:	2a14      	cmp	r2, #20
1000c5d0:	f200 80cd 	bhi.w	1000c76e <_malloc_r+0x492>
1000c5d4:	f102 035c 	add.w	r3, r2, #92	@ 0x5c
1000c5d8:	325b      	adds	r2, #91	@ 0x5b
1000c5da:	00db      	lsls	r3, r3, #3
1000c5dc:	18f1      	adds	r1, r6, r3
1000c5de:	58f3      	ldr	r3, [r6, r3]
1000c5e0:	3908      	subs	r1, #8
1000c5e2:	4299      	cmp	r1, r3
1000c5e4:	d111      	bne.n	1000c60a <_malloc_r+0x32e>
1000c5e6:	e0a5      	b.n	1000c734 <_malloc_r+0x458>
1000c5e8:	20001360 	.word	0x20001360
1000c5ec:	20001a78 	.word	0x20001a78
1000c5f0:	20001354 	.word	0x20001354
1000c5f4:	20001a48 	.word	0x20001a48
1000c5f8:	20001a70 	.word	0x20001a70
1000c5fc:	20001a74 	.word	0x20001a74
1000c600:	20001368 	.word	0x20001368
1000c604:	689b      	ldr	r3, [r3, #8]
1000c606:	4299      	cmp	r1, r3
1000c608:	d004      	beq.n	1000c614 <_malloc_r+0x338>
1000c60a:	685a      	ldr	r2, [r3, #4]
1000c60c:	f022 0203 	bic.w	r2, r2, #3
1000c610:	4562      	cmp	r2, ip
1000c612:	d8f7      	bhi.n	1000c604 <_malloc_r+0x328>
1000c614:	68d9      	ldr	r1, [r3, #12]
1000c616:	e9c4 3102 	strd	r3, r1, [r4, #8]
1000c61a:	608c      	str	r4, [r1, #8]
1000c61c:	60dc      	str	r4, [r3, #12]
1000c61e:	e6e8      	b.n	1000c3f2 <_malloc_r+0x116>
1000c620:	2b14      	cmp	r3, #20
1000c622:	d963      	bls.n	1000c6ec <_malloc_r+0x410>
1000c624:	2b54      	cmp	r3, #84	@ 0x54
1000c626:	f200 80ab 	bhi.w	1000c780 <_malloc_r+0x4a4>
1000c62a:	0b2b      	lsrs	r3, r5, #12
1000c62c:	f103 006f 	add.w	r0, r3, #111	@ 0x6f
1000c630:	f103 0e6e 	add.w	lr, r3, #110	@ 0x6e
1000c634:	00c3      	lsls	r3, r0, #3
1000c636:	e697      	b.n	1000c368 <_malloc_r+0x8c>
1000c638:	f8d4 c008 	ldr.w	ip, [r4, #8]
1000c63c:	4638      	mov	r0, r7
1000c63e:	1967      	adds	r7, r4, r5
1000c640:	f045 0501 	orr.w	r5, r5, #1
1000c644:	6065      	str	r5, [r4, #4]
1000c646:	f8cc 300c 	str.w	r3, [ip, #12]
1000c64a:	f8c3 c008 	str.w	ip, [r3, #8]
1000c64e:	f041 0301 	orr.w	r3, r1, #1
1000c652:	e9c6 7704 	strd	r7, r7, [r6, #16]
1000c656:	e9c7 8802 	strd	r8, r8, [r7, #8]
1000c65a:	607b      	str	r3, [r7, #4]
1000c65c:	50a1      	str	r1, [r4, r2]
1000c65e:	3408      	adds	r4, #8
1000c660:	f000 f8fe 	bl	1000c860 <__malloc_unlock>
1000c664:	e6f7      	b.n	1000c456 <_malloc_r+0x17a>
1000c666:	4422      	add	r2, r4
1000c668:	4638      	mov	r0, r7
1000c66a:	6851      	ldr	r1, [r2, #4]
1000c66c:	f041 0101 	orr.w	r1, r1, #1
1000c670:	6051      	str	r1, [r2, #4]
1000c672:	f854 2f08 	ldr.w	r2, [r4, #8]!
1000c676:	60d3      	str	r3, [r2, #12]
1000c678:	609a      	str	r2, [r3, #8]
1000c67a:	f000 f8f1 	bl	1000c860 <__malloc_unlock>
1000c67e:	e6ea      	b.n	1000c456 <_malloc_r+0x17a>
1000c680:	44a4      	add	ip, r4
1000c682:	4638      	mov	r0, r7
1000c684:	3408      	adds	r4, #8
1000c686:	f8dc 3004 	ldr.w	r3, [ip, #4]
1000c68a:	f043 0301 	orr.w	r3, r3, #1
1000c68e:	f8cc 3004 	str.w	r3, [ip, #4]
1000c692:	f000 f8e5 	bl	1000c860 <__malloc_unlock>
1000c696:	e6de      	b.n	1000c456 <_malloc_r+0x17a>
1000c698:	1962      	adds	r2, r4, r5
1000c69a:	f043 0101 	orr.w	r1, r3, #1
1000c69e:	f045 0501 	orr.w	r5, r5, #1
1000c6a2:	4638      	mov	r0, r7
1000c6a4:	6065      	str	r5, [r4, #4]
1000c6a6:	e9c6 2204 	strd	r2, r2, [r6, #16]
1000c6aa:	e9c2 8802 	strd	r8, r8, [r2, #8]
1000c6ae:	6051      	str	r1, [r2, #4]
1000c6b0:	f844 300c 	str.w	r3, [r4, ip]
1000c6b4:	3408      	adds	r4, #8
1000c6b6:	f000 f8d3 	bl	1000c860 <__malloc_unlock>
1000c6ba:	e6cc      	b.n	1000c456 <_malloc_r+0x17a>
1000c6bc:	ea4f 129c 	mov.w	r2, ip, lsr #6
1000c6c0:	f102 0339 	add.w	r3, r2, #57	@ 0x39
1000c6c4:	3238      	adds	r2, #56	@ 0x38
1000c6c6:	00db      	lsls	r3, r3, #3
1000c6c8:	e788      	b.n	1000c5dc <_malloc_r+0x300>
1000c6ca:	42b4      	cmp	r4, r6
1000c6cc:	d062      	beq.n	1000c794 <_malloc_r+0x4b8>
1000c6ce:	68b4      	ldr	r4, [r6, #8]
1000c6d0:	6862      	ldr	r2, [r4, #4]
1000c6d2:	f022 0803 	bic.w	r8, r2, #3
1000c6d6:	45a8      	cmp	r8, r5
1000c6d8:	eba8 0305 	sub.w	r3, r8, r5
1000c6dc:	d302      	bcc.n	1000c6e4 <_malloc_r+0x408>
1000c6de:	2b0f      	cmp	r3, #15
1000c6e0:	f73f af53 	bgt.w	1000c58a <_malloc_r+0x2ae>
1000c6e4:	4638      	mov	r0, r7
1000c6e6:	f000 f8bb 	bl	1000c860 <__malloc_unlock>
1000c6ea:	e6b3      	b.n	1000c454 <_malloc_r+0x178>
1000c6ec:	f103 005c 	add.w	r0, r3, #92	@ 0x5c
1000c6f0:	f103 0e5b 	add.w	lr, r3, #91	@ 0x5b
1000c6f4:	00c3      	lsls	r3, r0, #3
1000c6f6:	e637      	b.n	1000c368 <_malloc_r+0x8c>
1000c6f8:	f85a 3908 	ldr.w	r3, [sl], #-8
1000c6fc:	4553      	cmp	r3, sl
1000c6fe:	f040 80a0 	bne.w	1000c842 <_malloc_r+0x566>
1000c702:	f010 0f03 	tst.w	r0, #3
1000c706:	f100 30ff 	add.w	r0, r0, #4294967295
1000c70a:	d1f5      	bne.n	1000c6f8 <_malloc_r+0x41c>
1000c70c:	6873      	ldr	r3, [r6, #4]
1000c70e:	ea23 030c 	bic.w	r3, r3, ip
1000c712:	6073      	str	r3, [r6, #4]
1000c714:	ea4f 0c4c 	mov.w	ip, ip, lsl #1
1000c718:	f10c 32ff 	add.w	r2, ip, #4294967295
1000c71c:	429a      	cmp	r2, r3
1000c71e:	d304      	bcc.n	1000c72a <_malloc_r+0x44e>
1000c720:	e6a3      	b.n	1000c46a <_malloc_r+0x18e>
1000c722:	ea4f 0c4c 	mov.w	ip, ip, lsl #1
1000c726:	f109 0904 	add.w	r9, r9, #4
1000c72a:	ea1c 0f03 	tst.w	ip, r3
1000c72e:	d0f8      	beq.n	1000c722 <_malloc_r+0x446>
1000c730:	4648      	mov	r0, r9
1000c732:	e670      	b.n	1000c416 <_malloc_r+0x13a>
1000c734:	1092      	asrs	r2, r2, #2
1000c736:	f04f 0c01 	mov.w	ip, #1
1000c73a:	fa0c f202 	lsl.w	r2, ip, r2
1000c73e:	ea4e 0e02 	orr.w	lr, lr, r2
1000c742:	f8c6 e004 	str.w	lr, [r6, #4]
1000c746:	e766      	b.n	1000c616 <_malloc_r+0x33a>
1000c748:	eb0a 0208 	add.w	r2, sl, r8
1000c74c:	4638      	mov	r0, r7
1000c74e:	ea02 020c 	and.w	r2, r2, ip
1000c752:	ebab 0b02 	sub.w	fp, fp, r2
1000c756:	ea0b 0b0c 	and.w	fp, fp, ip
1000c75a:	4659      	mov	r1, fp
1000c75c:	f000 fb4e 	bl	1000cdfc <_sbrk_r>
1000c760:	1c43      	adds	r3, r0, #1
1000c762:	9b01      	ldr	r3, [sp, #4]
1000c764:	f47f aedb 	bne.w	1000c51e <_malloc_r+0x242>
1000c768:	f8dd b000 	ldr.w	fp, [sp]
1000c76c:	e6db      	b.n	1000c526 <_malloc_r+0x24a>
1000c76e:	2a54      	cmp	r2, #84	@ 0x54
1000c770:	d82a      	bhi.n	1000c7c8 <_malloc_r+0x4ec>
1000c772:	ea4f 321c 	mov.w	r2, ip, lsr #12
1000c776:	f102 036f 	add.w	r3, r2, #111	@ 0x6f
1000c77a:	326e      	adds	r2, #110	@ 0x6e
1000c77c:	00db      	lsls	r3, r3, #3
1000c77e:	e72d      	b.n	1000c5dc <_malloc_r+0x300>
1000c780:	f5b3 7faa 	cmp.w	r3, #340	@ 0x154
1000c784:	d82a      	bhi.n	1000c7dc <_malloc_r+0x500>
1000c786:	0beb      	lsrs	r3, r5, #15
1000c788:	f103 0078 	add.w	r0, r3, #120	@ 0x78
1000c78c:	f103 0e77 	add.w	lr, r3, #119	@ 0x77
1000c790:	00c3      	lsls	r3, r0, #3
1000c792:	e5e9      	b.n	1000c368 <_malloc_r+0x8c>
1000c794:	4b2e      	ldr	r3, [pc, #184]	@ (1000c850 <_malloc_r+0x574>)
1000c796:	f10b 3cff 	add.w	ip, fp, #4294967295
1000c79a:	6818      	ldr	r0, [r3, #0]
1000c79c:	4440      	add	r0, r8
1000c79e:	6018      	str	r0, [r3, #0]
1000c7a0:	e69b      	b.n	1000c4da <_malloc_r+0x1fe>
1000c7a2:	ea1a 0f0c 	tst.w	sl, ip
1000c7a6:	f47f ae98 	bne.w	1000c4da <_malloc_r+0x1fe>
1000c7aa:	44c8      	add	r8, r9
1000c7ac:	f8d6 a008 	ldr.w	sl, [r6, #8]
1000c7b0:	f048 0201 	orr.w	r2, r8, #1
1000c7b4:	f8ca 2004 	str.w	r2, [sl, #4]
1000c7b8:	e6d8      	b.n	1000c56c <_malloc_r+0x290>
1000c7ba:	f8c2 a000 	str.w	sl, [r2]
1000c7be:	e696      	b.n	1000c4ee <_malloc_r+0x212>
1000c7c0:	2301      	movs	r3, #1
1000c7c2:	f8ca 3004 	str.w	r3, [sl, #4]
1000c7c6:	e78d      	b.n	1000c6e4 <_malloc_r+0x408>
1000c7c8:	f5b2 7faa 	cmp.w	r2, #340	@ 0x154
1000c7cc:	d824      	bhi.n	1000c818 <_malloc_r+0x53c>
1000c7ce:	ea4f 32dc 	mov.w	r2, ip, lsr #15
1000c7d2:	f102 0378 	add.w	r3, r2, #120	@ 0x78
1000c7d6:	3277      	adds	r2, #119	@ 0x77
1000c7d8:	00db      	lsls	r3, r3, #3
1000c7da:	e6ff      	b.n	1000c5dc <_malloc_r+0x300>
1000c7dc:	f240 5254 	movw	r2, #1364	@ 0x554
1000c7e0:	4293      	cmp	r3, r2
1000c7e2:	d824      	bhi.n	1000c82e <_malloc_r+0x552>
1000c7e4:	0cab      	lsrs	r3, r5, #18
1000c7e6:	f103 007d 	add.w	r0, r3, #125	@ 0x7d
1000c7ea:	f103 0e7c 	add.w	lr, r3, #124	@ 0x7c
1000c7ee:	00c3      	lsls	r3, r0, #3
1000c7f0:	e5ba      	b.n	1000c368 <_malloc_r+0x8c>
1000c7f2:	9a00      	ldr	r2, [sp, #0]
1000c7f4:	f04f 0b00 	mov.w	fp, #0
1000c7f8:	3a08      	subs	r2, #8
1000c7fa:	4490      	add	r8, r2
1000c7fc:	eba8 080a 	sub.w	r8, r8, sl
1000c800:	e691      	b.n	1000c526 <_malloc_r+0x24a>
1000c802:	4638      	mov	r0, r7
1000c804:	f104 0108 	add.w	r1, r4, #8
1000c808:	9300      	str	r3, [sp, #0]
1000c80a:	f000 fcff 	bl	1000d20c <_free_r>
1000c80e:	9b00      	ldr	r3, [sp, #0]
1000c810:	f8d6 a008 	ldr.w	sl, [r6, #8]
1000c814:	6818      	ldr	r0, [r3, #0]
1000c816:	e6a7      	b.n	1000c568 <_malloc_r+0x28c>
1000c818:	f240 5354 	movw	r3, #1364	@ 0x554
1000c81c:	429a      	cmp	r2, r3
1000c81e:	d80c      	bhi.n	1000c83a <_malloc_r+0x55e>
1000c820:	ea4f 429c 	mov.w	r2, ip, lsr #18
1000c824:	f102 037d 	add.w	r3, r2, #125	@ 0x7d
1000c828:	327c      	adds	r2, #124	@ 0x7c
1000c82a:	00db      	lsls	r3, r3, #3
1000c82c:	e6d6      	b.n	1000c5dc <_malloc_r+0x300>
1000c82e:	f44f 737e 	mov.w	r3, #1016	@ 0x3f8
1000c832:	207f      	movs	r0, #127	@ 0x7f
1000c834:	f04f 0e7e 	mov.w	lr, #126	@ 0x7e
1000c838:	e596      	b.n	1000c368 <_malloc_r+0x8c>
1000c83a:	f44f 737e 	mov.w	r3, #1016	@ 0x3f8
1000c83e:	227e      	movs	r2, #126	@ 0x7e
1000c840:	e6cc      	b.n	1000c5dc <_malloc_r+0x300>
1000c842:	6873      	ldr	r3, [r6, #4]
1000c844:	e766      	b.n	1000c714 <_malloc_r+0x438>
1000c846:	08e8      	lsrs	r0, r5, #3
1000c848:	f105 0308 	add.w	r3, r5, #8
1000c84c:	e556      	b.n	1000c2fc <_malloc_r+0x20>
1000c84e:	bf00      	nop
1000c850:	20001a48 	.word	0x20001a48

1000c854 <__malloc_lock>:
1000c854:	4801      	ldr	r0, [pc, #4]	@ (1000c85c <__malloc_lock+0x8>)
1000c856:	f000 bae9 	b.w	1000ce2c <__retarget_lock_acquire_recursive>
1000c85a:	bf00      	nop
1000c85c:	20001a44 	.word	0x20001a44

1000c860 <__malloc_unlock>:
1000c860:	4801      	ldr	r0, [pc, #4]	@ (1000c868 <__malloc_unlock+0x8>)
1000c862:	f000 bae5 	b.w	1000ce30 <__retarget_lock_release_recursive>
1000c866:	bf00      	nop
1000c868:	20001a44 	.word	0x20001a44

1000c86c <memcmp>:
1000c86c:	2a03      	cmp	r2, #3
1000c86e:	b430      	push	{r4, r5}
1000c870:	d912      	bls.n	1000c898 <memcmp+0x2c>
1000c872:	ea41 0400 	orr.w	r4, r1, r0
1000c876:	4684      	mov	ip, r0
1000c878:	460b      	mov	r3, r1
1000c87a:	07a4      	lsls	r4, r4, #30
1000c87c:	d121      	bne.n	1000c8c2 <memcmp+0x56>
1000c87e:	4619      	mov	r1, r3
1000c880:	4660      	mov	r0, ip
1000c882:	f853 4b04 	ldr.w	r4, [r3], #4
1000c886:	f85c 5b04 	ldr.w	r5, [ip], #4
1000c88a:	42a5      	cmp	r5, r4
1000c88c:	d119      	bne.n	1000c8c2 <memcmp+0x56>
1000c88e:	3a04      	subs	r2, #4
1000c890:	2a03      	cmp	r2, #3
1000c892:	d8f4      	bhi.n	1000c87e <memcmp+0x12>
1000c894:	4660      	mov	r0, ip
1000c896:	4619      	mov	r1, r3
1000c898:	1e54      	subs	r4, r2, #1
1000c89a:	b17a      	cbz	r2, 1000c8bc <memcmp+0x50>
1000c89c:	1e43      	subs	r3, r0, #1
1000c89e:	3901      	subs	r1, #1
1000c8a0:	1902      	adds	r2, r0, r4
1000c8a2:	e001      	b.n	1000c8a8 <memcmp+0x3c>
1000c8a4:	429a      	cmp	r2, r3
1000c8a6:	d009      	beq.n	1000c8bc <memcmp+0x50>
1000c8a8:	f813 0f01 	ldrb.w	r0, [r3, #1]!
1000c8ac:	f811 cf01 	ldrb.w	ip, [r1, #1]!
1000c8b0:	4560      	cmp	r0, ip
1000c8b2:	d0f7      	beq.n	1000c8a4 <memcmp+0x38>
1000c8b4:	eba0 000c 	sub.w	r0, r0, ip
1000c8b8:	bc30      	pop	{r4, r5}
1000c8ba:	4770      	bx	lr
1000c8bc:	2000      	movs	r0, #0
1000c8be:	bc30      	pop	{r4, r5}
1000c8c0:	4770      	bx	lr
1000c8c2:	1e54      	subs	r4, r2, #1
1000c8c4:	e7ea      	b.n	1000c89c <memcmp+0x30>
1000c8c6:	bf00      	nop

1000c8c8 <memset>:
1000c8c8:	0783      	lsls	r3, r0, #30
1000c8ca:	b530      	push	{r4, r5, lr}
1000c8cc:	d046      	beq.n	1000c95c <memset+0x94>
1000c8ce:	1884      	adds	r4, r0, r2
1000c8d0:	4684      	mov	ip, r0
1000c8d2:	e004      	b.n	1000c8de <memset+0x16>
1000c8d4:	f803 1b01 	strb.w	r1, [r3], #1
1000c8d8:	079d      	lsls	r5, r3, #30
1000c8da:	d004      	beq.n	1000c8e6 <memset+0x1e>
1000c8dc:	469c      	mov	ip, r3
1000c8de:	45a4      	cmp	ip, r4
1000c8e0:	4663      	mov	r3, ip
1000c8e2:	d1f7      	bne.n	1000c8d4 <memset+0xc>
1000c8e4:	bd30      	pop	{r4, r5, pc}
1000c8e6:	3a01      	subs	r2, #1
1000c8e8:	4402      	add	r2, r0
1000c8ea:	eba2 020c 	sub.w	r2, r2, ip
1000c8ee:	2a03      	cmp	r2, #3
1000c8f0:	d929      	bls.n	1000c946 <memset+0x7e>
1000c8f2:	b2cc      	uxtb	r4, r1
1000c8f4:	2a0f      	cmp	r2, #15
1000c8f6:	eb04 2404 	add.w	r4, r4, r4, lsl #8
1000c8fa:	eb04 4404 	add.w	r4, r4, r4, lsl #16
1000c8fe:	d92f      	bls.n	1000c960 <memset+0x98>
1000c900:	f1a2 0c10 	sub.w	ip, r2, #16
1000c904:	f103 0510 	add.w	r5, r3, #16
1000c908:	f02c 0c0f 	bic.w	ip, ip, #15
1000c90c:	44ac      	add	ip, r5
1000c90e:	e9c3 4400 	strd	r4, r4, [r3]
1000c912:	e9c3 4402 	strd	r4, r4, [r3, #8]
1000c916:	3310      	adds	r3, #16
1000c918:	4563      	cmp	r3, ip
1000c91a:	d1f8      	bne.n	1000c90e <memset+0x46>
1000c91c:	f012 0f0c 	tst.w	r2, #12
1000c920:	f002 0e0f 	and.w	lr, r2, #15
1000c924:	d018      	beq.n	1000c958 <memset+0x90>
1000c926:	f02e 0c03 	bic.w	ip, lr, #3
1000c92a:	f1ae 0504 	sub.w	r5, lr, #4
1000c92e:	461a      	mov	r2, r3
1000c930:	449c      	add	ip, r3
1000c932:	f842 4b04 	str.w	r4, [r2], #4
1000c936:	4562      	cmp	r2, ip
1000c938:	d1fb      	bne.n	1000c932 <memset+0x6a>
1000c93a:	f025 0403 	bic.w	r4, r5, #3
1000c93e:	3304      	adds	r3, #4
1000c940:	f00e 0203 	and.w	r2, lr, #3
1000c944:	4423      	add	r3, r4
1000c946:	2a00      	cmp	r2, #0
1000c948:	d0cc      	beq.n	1000c8e4 <memset+0x1c>
1000c94a:	b2c9      	uxtb	r1, r1
1000c94c:	441a      	add	r2, r3
1000c94e:	f803 1b01 	strb.w	r1, [r3], #1
1000c952:	4293      	cmp	r3, r2
1000c954:	d1fb      	bne.n	1000c94e <memset+0x86>
1000c956:	bd30      	pop	{r4, r5, pc}
1000c958:	4672      	mov	r2, lr
1000c95a:	e7f4      	b.n	1000c946 <memset+0x7e>
1000c95c:	4603      	mov	r3, r0
1000c95e:	e7c6      	b.n	1000c8ee <memset+0x26>
1000c960:	4696      	mov	lr, r2
1000c962:	e7e0      	b.n	1000c926 <memset+0x5e>

1000c964 <strncpy>:
1000c964:	ea40 0301 	orr.w	r3, r0, r1
1000c968:	079b      	lsls	r3, r3, #30
1000c96a:	b530      	push	{r4, r5, lr}
1000c96c:	d101      	bne.n	1000c972 <strncpy+0xe>
1000c96e:	2a03      	cmp	r2, #3
1000c970:	d817      	bhi.n	1000c9a2 <strncpy+0x3e>
1000c972:	4684      	mov	ip, r0
1000c974:	f101 3eff 	add.w	lr, r1, #4294967295
1000c978:	e007      	b.n	1000c98a <strncpy+0x26>
1000c97a:	f81e 1f01 	ldrb.w	r1, [lr, #1]!
1000c97e:	1e54      	subs	r4, r2, #1
1000c980:	f803 1b01 	strb.w	r1, [r3], #1
1000c984:	b129      	cbz	r1, 1000c992 <strncpy+0x2e>
1000c986:	4622      	mov	r2, r4
1000c988:	469c      	mov	ip, r3
1000c98a:	4663      	mov	r3, ip
1000c98c:	2a00      	cmp	r2, #0
1000c98e:	d1f4      	bne.n	1000c97a <strncpy+0x16>
1000c990:	bd30      	pop	{r4, r5, pc}
1000c992:	2c00      	cmp	r4, #0
1000c994:	d0fc      	beq.n	1000c990 <strncpy+0x2c>
1000c996:	4494      	add	ip, r2
1000c998:	f803 1b01 	strb.w	r1, [r3], #1
1000c99c:	4563      	cmp	r3, ip
1000c99e:	d1fb      	bne.n	1000c998 <strncpy+0x34>
1000c9a0:	bd30      	pop	{r4, r5, pc}
1000c9a2:	460c      	mov	r4, r1
1000c9a4:	4684      	mov	ip, r0
1000c9a6:	6825      	ldr	r5, [r4, #0]
1000c9a8:	4621      	mov	r1, r4
1000c9aa:	3404      	adds	r4, #4
1000c9ac:	f1a5 3301 	sub.w	r3, r5, #16843009	@ 0x1010101
1000c9b0:	ea23 0305 	bic.w	r3, r3, r5
1000c9b4:	f013 3f80 	tst.w	r3, #2155905152	@ 0x80808080
1000c9b8:	d1dc      	bne.n	1000c974 <strncpy+0x10>
1000c9ba:	3a04      	subs	r2, #4
1000c9bc:	f84c 5b04 	str.w	r5, [ip], #4
1000c9c0:	2a03      	cmp	r2, #3
1000c9c2:	d8f0      	bhi.n	1000c9a6 <strncpy+0x42>
1000c9c4:	4621      	mov	r1, r4
1000c9c6:	e7d5      	b.n	1000c974 <strncpy+0x10>

1000c9c8 <critical_factorization>:
1000c9c8:	2901      	cmp	r1, #1
1000c9ca:	e92d 41f0 	stmdb	sp!, {r4, r5, r6, r7, r8, lr}
1000c9ce:	d95d      	bls.n	1000ca8c <critical_factorization+0xc4>
1000c9d0:	f04f 0801 	mov.w	r8, #1
1000c9d4:	2400      	movs	r4, #0
1000c9d6:	f04f 35ff 	mov.w	r5, #4294967295
1000c9da:	46c6      	mov	lr, r8
1000c9dc:	4643      	mov	r3, r8
1000c9de:	e008      	b.n	1000c9f2 <critical_factorization+0x2a>
1000c9e0:	eba3 0805 	sub.w	r8, r3, r5
1000c9e4:	461c      	mov	r4, r3
1000c9e6:	f04f 0e01 	mov.w	lr, #1
1000c9ea:	eb04 030e 	add.w	r3, r4, lr
1000c9ee:	4299      	cmp	r1, r3
1000c9f0:	d910      	bls.n	1000ca14 <critical_factorization+0x4c>
1000c9f2:	eb00 0c05 	add.w	ip, r0, r5
1000c9f6:	5cc7      	ldrb	r7, [r0, r3]
1000c9f8:	f81c 600e 	ldrb.w	r6, [ip, lr]
1000c9fc:	42b7      	cmp	r7, r6
1000c9fe:	d3ef      	bcc.n	1000c9e0 <critical_factorization+0x18>
1000ca00:	d032      	beq.n	1000ca68 <critical_factorization+0xa0>
1000ca02:	f04f 0801 	mov.w	r8, #1
1000ca06:	4625      	mov	r5, r4
1000ca08:	46c6      	mov	lr, r8
1000ca0a:	4444      	add	r4, r8
1000ca0c:	eb04 030e 	add.w	r3, r4, lr
1000ca10:	4299      	cmp	r1, r3
1000ca12:	d8ee      	bhi.n	1000c9f2 <critical_factorization+0x2a>
1000ca14:	2701      	movs	r7, #1
1000ca16:	2400      	movs	r4, #0
1000ca18:	f04f 36ff 	mov.w	r6, #4294967295
1000ca1c:	f8c2 8000 	str.w	r8, [r2]
1000ca20:	46be      	mov	lr, r7
1000ca22:	463b      	mov	r3, r7
1000ca24:	e007      	b.n	1000ca36 <critical_factorization+0x6e>
1000ca26:	1b9f      	subs	r7, r3, r6
1000ca28:	461c      	mov	r4, r3
1000ca2a:	f04f 0e01 	mov.w	lr, #1
1000ca2e:	eb04 030e 	add.w	r3, r4, lr
1000ca32:	4299      	cmp	r1, r3
1000ca34:	d910      	bls.n	1000ca58 <critical_factorization+0x90>
1000ca36:	eb00 0c06 	add.w	ip, r0, r6
1000ca3a:	f810 8003 	ldrb.w	r8, [r0, r3]
1000ca3e:	f81c c00e 	ldrb.w	ip, [ip, lr]
1000ca42:	45e0      	cmp	r8, ip
1000ca44:	d8ef      	bhi.n	1000ca26 <critical_factorization+0x5e>
1000ca46:	d014      	beq.n	1000ca72 <critical_factorization+0xaa>
1000ca48:	2701      	movs	r7, #1
1000ca4a:	4626      	mov	r6, r4
1000ca4c:	46be      	mov	lr, r7
1000ca4e:	443c      	add	r4, r7
1000ca50:	eb04 030e 	add.w	r3, r4, lr
1000ca54:	4299      	cmp	r1, r3
1000ca56:	d8ee      	bhi.n	1000ca36 <critical_factorization+0x6e>
1000ca58:	3601      	adds	r6, #1
1000ca5a:	1c68      	adds	r0, r5, #1
1000ca5c:	4286      	cmp	r6, r0
1000ca5e:	d301      	bcc.n	1000ca64 <critical_factorization+0x9c>
1000ca60:	4630      	mov	r0, r6
1000ca62:	6017      	str	r7, [r2, #0]
1000ca64:	e8bd 81f0 	ldmia.w	sp!, {r4, r5, r6, r7, r8, pc}
1000ca68:	45c6      	cmp	lr, r8
1000ca6a:	d007      	beq.n	1000ca7c <critical_factorization+0xb4>
1000ca6c:	f10e 0e01 	add.w	lr, lr, #1
1000ca70:	e7bb      	b.n	1000c9ea <critical_factorization+0x22>
1000ca72:	45be      	cmp	lr, r7
1000ca74:	d006      	beq.n	1000ca84 <critical_factorization+0xbc>
1000ca76:	f10e 0e01 	add.w	lr, lr, #1
1000ca7a:	e7d8      	b.n	1000ca2e <critical_factorization+0x66>
1000ca7c:	4474      	add	r4, lr
1000ca7e:	f04f 0e01 	mov.w	lr, #1
1000ca82:	e7b2      	b.n	1000c9ea <critical_factorization+0x22>
1000ca84:	4474      	add	r4, lr
1000ca86:	f04f 0e01 	mov.w	lr, #1
1000ca8a:	e7d0      	b.n	1000ca2e <critical_factorization+0x66>
1000ca8c:	2701      	movs	r7, #1
1000ca8e:	2600      	movs	r6, #0
1000ca90:	e7e6      	b.n	1000ca60 <critical_factorization+0x98>
1000ca92:	bf00      	nop

1000ca94 <two_way_long_needle>:
1000ca94:	e92d 4ff0 	stmdb	sp!, {r4, r5, r6, r7, r8, r9, sl, fp, lr}
1000ca98:	f2ad 4d1c 	subw	sp, sp, #1052	@ 0x41c
1000ca9c:	4693      	mov	fp, r2
1000ca9e:	4680      	mov	r8, r0
1000caa0:	468a      	mov	sl, r1
1000caa2:	ad05      	add	r5, sp, #20
1000caa4:	4619      	mov	r1, r3
1000caa6:	4658      	mov	r0, fp
1000caa8:	461c      	mov	r4, r3
1000caaa:	462a      	mov	r2, r5
1000caac:	f7ff ff8c 	bl	1000c9c8 <critical_factorization>
1000cab0:	462b      	mov	r3, r5
1000cab2:	4681      	mov	r9, r0
1000cab4:	f20d 4214 	addw	r2, sp, #1044	@ 0x414
1000cab8:	f843 4f04 	str.w	r4, [r3, #4]!
1000cabc:	4293      	cmp	r3, r2
1000cabe:	d1fb      	bne.n	1000cab8 <two_way_long_needle+0x24>
1000cac0:	b174      	cbz	r4, 1000cae0 <two_way_long_needle+0x4c>
1000cac2:	1e60      	subs	r0, r4, #1
1000cac4:	f10b 32ff 	add.w	r2, fp, #4294967295
1000cac8:	4458      	add	r0, fp
1000caca:	f812 1f01 	ldrb.w	r1, [r2, #1]!
1000cace:	ae06      	add	r6, sp, #24
1000cad0:	1aa3      	subs	r3, r4, r2
1000cad2:	4282      	cmp	r2, r0
1000cad4:	f103 33ff 	add.w	r3, r3, #4294967295
1000cad8:	445b      	add	r3, fp
1000cada:	f846 3021 	str.w	r3, [r6, r1, lsl #2]
1000cade:	d1f4      	bne.n	1000caca <two_way_long_needle+0x36>
1000cae0:	682b      	ldr	r3, [r5, #0]
1000cae2:	464a      	mov	r2, r9
1000cae4:	4658      	mov	r0, fp
1000cae6:	eb0b 0103 	add.w	r1, fp, r3
1000caea:	9301      	str	r3, [sp, #4]
1000caec:	f7ff febe 	bl	1000c86c <memcmp>
1000caf0:	2800      	cmp	r0, #0
1000caf2:	d177      	bne.n	1000cbe4 <two_way_long_needle+0x150>
1000caf4:	f444 6300 	orr.w	r3, r4, #2048	@ 0x800
1000caf8:	4607      	mov	r7, r0
1000cafa:	ebaa 0e04 	sub.w	lr, sl, r4
1000cafe:	1e66      	subs	r6, r4, #1
1000cb00:	4605      	mov	r5, r0
1000cb02:	9302      	str	r3, [sp, #8]
1000cb04:	45ae      	cmp	lr, r5
1000cb06:	d310      	bcc.n	1000cb2a <two_way_long_needle+0x96>
1000cb08:	eb08 0c05 	add.w	ip, r8, r5
1000cb0c:	aa06      	add	r2, sp, #24
1000cb0e:	f81c 3006 	ldrb.w	r3, [ip, r6]
1000cb12:	f852 3023 	ldr.w	r3, [r2, r3, lsl #2]
1000cb16:	b1bb      	cbz	r3, 1000cb48 <two_way_long_needle+0xb4>
1000cb18:	b11f      	cbz	r7, 1000cb22 <two_way_long_needle+0x8e>
1000cb1a:	9a01      	ldr	r2, [sp, #4]
1000cb1c:	429a      	cmp	r2, r3
1000cb1e:	bf88      	it	hi
1000cb20:	1aa3      	subhi	r3, r4, r2
1000cb22:	441d      	add	r5, r3
1000cb24:	2700      	movs	r7, #0
1000cb26:	45ae      	cmp	lr, r5
1000cb28:	d2ee      	bcs.n	1000cb08 <two_way_long_needle+0x74>
1000cb2a:	eb08 000a 	add.w	r0, r8, sl
1000cb2e:	9902      	ldr	r1, [sp, #8]
1000cb30:	f000 fcc8 	bl	1000d4c4 <strnlen>
1000cb34:	4482      	add	sl, r0
1000cb36:	ebaa 0e04 	sub.w	lr, sl, r4
1000cb3a:	45ae      	cmp	lr, r5
1000cb3c:	d2e4      	bcs.n	1000cb08 <two_way_long_needle+0x74>
1000cb3e:	2000      	movs	r0, #0
1000cb40:	f20d 4d1c 	addw	sp, sp, #1052	@ 0x41c
1000cb44:	e8bd 8ff0 	ldmia.w	sp!, {r4, r5, r6, r7, r8, r9, sl, fp, pc}
1000cb48:	454f      	cmp	r7, r9
1000cb4a:	463b      	mov	r3, r7
1000cb4c:	bf38      	it	cc
1000cb4e:	464b      	movcc	r3, r9
1000cb50:	429e      	cmp	r6, r3
1000cb52:	d918      	bls.n	1000cb86 <two_way_long_needle+0xf2>
1000cb54:	1e59      	subs	r1, r3, #1
1000cb56:	18ea      	adds	r2, r5, r3
1000cb58:	9500      	str	r5, [sp, #0]
1000cb5a:	4459      	add	r1, fp
1000cb5c:	4442      	add	r2, r8
1000cb5e:	e002      	b.n	1000cb66 <two_way_long_needle+0xd2>
1000cb60:	3301      	adds	r3, #1
1000cb62:	429e      	cmp	r6, r3
1000cb64:	d00e      	beq.n	1000cb84 <two_way_long_needle+0xf0>
1000cb66:	f812 0b01 	ldrb.w	r0, [r2], #1
1000cb6a:	f811 5f01 	ldrb.w	r5, [r1, #1]!
1000cb6e:	4285      	cmp	r5, r0
1000cb70:	d0f6      	beq.n	1000cb60 <two_way_long_needle+0xcc>
1000cb72:	429e      	cmp	r6, r3
1000cb74:	9d00      	ldr	r5, [sp, #0]
1000cb76:	d906      	bls.n	1000cb86 <two_way_long_needle+0xf2>
1000cb78:	f1c9 0201 	rsb	r2, r9, #1
1000cb7c:	2700      	movs	r7, #0
1000cb7e:	442a      	add	r2, r5
1000cb80:	18d5      	adds	r5, r2, r3
1000cb82:	e7bf      	b.n	1000cb04 <two_way_long_needle+0x70>
1000cb84:	9d00      	ldr	r5, [sp, #0]
1000cb86:	454f      	cmp	r7, r9
1000cb88:	f109 33ff 	add.w	r3, r9, #4294967295
1000cb8c:	f080 8081 	bcs.w	1000cc92 <two_way_long_needle+0x1fe>
1000cb90:	eb05 0209 	add.w	r2, r5, r9
1000cb94:	eb0b 0109 	add.w	r1, fp, r9
1000cb98:	9500      	str	r5, [sp, #0]
1000cb9a:	4442      	add	r2, r8
1000cb9c:	f8cd 900c 	str.w	r9, [sp, #12]
1000cba0:	e002      	b.n	1000cba8 <two_way_long_needle+0x114>
1000cba2:	429f      	cmp	r7, r3
1000cba4:	d013      	beq.n	1000cbce <two_way_long_needle+0x13a>
1000cba6:	464b      	mov	r3, r9
1000cba8:	f811 5d01 	ldrb.w	r5, [r1, #-1]!
1000cbac:	f103 39ff 	add.w	r9, r3, #4294967295
1000cbb0:	f812 0d01 	ldrb.w	r0, [r2, #-1]!
1000cbb4:	4285      	cmp	r5, r0
1000cbb6:	d0f4      	beq.n	1000cba2 <two_way_long_needle+0x10e>
1000cbb8:	9d00      	ldr	r5, [sp, #0]
1000cbba:	3301      	adds	r3, #1
1000cbbc:	f8dd 900c 	ldr.w	r9, [sp, #12]
1000cbc0:	3701      	adds	r7, #1
1000cbc2:	429f      	cmp	r7, r3
1000cbc4:	d809      	bhi.n	1000cbda <two_way_long_needle+0x146>
1000cbc6:	9b01      	ldr	r3, [sp, #4]
1000cbc8:	441d      	add	r5, r3
1000cbca:	1ae7      	subs	r7, r4, r3
1000cbcc:	e79a      	b.n	1000cb04 <two_way_long_needle+0x70>
1000cbce:	3701      	adds	r7, #1
1000cbd0:	9d00      	ldr	r5, [sp, #0]
1000cbd2:	f8dd 900c 	ldr.w	r9, [sp, #12]
1000cbd6:	429f      	cmp	r7, r3
1000cbd8:	d9f5      	bls.n	1000cbc6 <two_way_long_needle+0x132>
1000cbda:	4660      	mov	r0, ip
1000cbdc:	f20d 4d1c 	addw	sp, sp, #1052	@ 0x41c
1000cbe0:	e8bd 8ff0 	ldmia.w	sp!, {r4, r5, r6, r7, r8, r9, sl, fp, pc}
1000cbe4:	eba4 0309 	sub.w	r3, r4, r9
1000cbe8:	ebaa 0e04 	sub.w	lr, sl, r4
1000cbec:	1e66      	subs	r6, r4, #1
1000cbee:	454b      	cmp	r3, r9
1000cbf0:	bf38      	it	cc
1000cbf2:	464b      	movcc	r3, r9
1000cbf4:	3301      	adds	r3, #1
1000cbf6:	602b      	str	r3, [r5, #0]
1000cbf8:	2500      	movs	r5, #0
1000cbfa:	9301      	str	r3, [sp, #4]
1000cbfc:	f444 6300 	orr.w	r3, r4, #2048	@ 0x800
1000cc00:	9300      	str	r3, [sp, #0]
1000cc02:	45ae      	cmp	lr, r5
1000cc04:	d309      	bcc.n	1000cc1a <two_way_long_needle+0x186>
1000cc06:	eb08 0005 	add.w	r0, r8, r5
1000cc0a:	aa06      	add	r2, sp, #24
1000cc0c:	5d83      	ldrb	r3, [r0, r6]
1000cc0e:	f852 3023 	ldr.w	r3, [r2, r3, lsl #2]
1000cc12:	b16b      	cbz	r3, 1000cc30 <two_way_long_needle+0x19c>
1000cc14:	441d      	add	r5, r3
1000cc16:	45ae      	cmp	lr, r5
1000cc18:	d2f5      	bcs.n	1000cc06 <two_way_long_needle+0x172>
1000cc1a:	eb08 000a 	add.w	r0, r8, sl
1000cc1e:	9900      	ldr	r1, [sp, #0]
1000cc20:	f000 fc50 	bl	1000d4c4 <strnlen>
1000cc24:	4482      	add	sl, r0
1000cc26:	ebaa 0e04 	sub.w	lr, sl, r4
1000cc2a:	45ae      	cmp	lr, r5
1000cc2c:	d2eb      	bcs.n	1000cc06 <two_way_long_needle+0x172>
1000cc2e:	e786      	b.n	1000cb3e <two_way_long_needle+0xaa>
1000cc30:	45b1      	cmp	r9, r6
1000cc32:	d217      	bcs.n	1000cc64 <two_way_long_needle+0x1d0>
1000cc34:	f109 31ff 	add.w	r1, r9, #4294967295
1000cc38:	eb05 0209 	add.w	r2, r5, r9
1000cc3c:	464b      	mov	r3, r9
1000cc3e:	4459      	add	r1, fp
1000cc40:	4442      	add	r2, r8
1000cc42:	e002      	b.n	1000cc4a <two_way_long_needle+0x1b6>
1000cc44:	3301      	adds	r3, #1
1000cc46:	42b3      	cmp	r3, r6
1000cc48:	d00c      	beq.n	1000cc64 <two_way_long_needle+0x1d0>
1000cc4a:	f812 7b01 	ldrb.w	r7, [r2], #1
1000cc4e:	f811 cf01 	ldrb.w	ip, [r1, #1]!
1000cc52:	45bc      	cmp	ip, r7
1000cc54:	d0f6      	beq.n	1000cc44 <two_way_long_needle+0x1b0>
1000cc56:	429e      	cmp	r6, r3
1000cc58:	d904      	bls.n	1000cc64 <two_way_long_needle+0x1d0>
1000cc5a:	f1c9 0201 	rsb	r2, r9, #1
1000cc5e:	442a      	add	r2, r5
1000cc60:	18d5      	adds	r5, r2, r3
1000cc62:	e7ce      	b.n	1000cc02 <two_way_long_needle+0x16e>
1000cc64:	f1b9 0f00 	cmp.w	r9, #0
1000cc68:	f43f af6a 	beq.w	1000cb40 <two_way_long_needle+0xac>
1000cc6c:	eb05 0109 	add.w	r1, r5, r9
1000cc70:	eb0b 0209 	add.w	r2, fp, r9
1000cc74:	4441      	add	r1, r8
1000cc76:	e002      	b.n	1000cc7e <two_way_long_needle+0x1ea>
1000cc78:	455b      	cmp	r3, fp
1000cc7a:	f43f af61 	beq.w	1000cb40 <two_way_long_needle+0xac>
1000cc7e:	f812 cd01 	ldrb.w	ip, [r2, #-1]!
1000cc82:	f811 7d01 	ldrb.w	r7, [r1, #-1]!
1000cc86:	4613      	mov	r3, r2
1000cc88:	45bc      	cmp	ip, r7
1000cc8a:	d0f5      	beq.n	1000cc78 <two_way_long_needle+0x1e4>
1000cc8c:	9b01      	ldr	r3, [sp, #4]
1000cc8e:	441d      	add	r5, r3
1000cc90:	e7c1      	b.n	1000cc16 <two_way_long_needle+0x182>
1000cc92:	464b      	mov	r3, r9
1000cc94:	e794      	b.n	1000cbc0 <two_way_long_needle+0x12c>
1000cc96:	bf00      	nop

1000cc98 <strstr>:
1000cc98:	e92d 41f0 	stmdb	sp!, {r4, r5, r6, r7, r8, lr}
1000cc9c:	460d      	mov	r5, r1
1000cc9e:	7809      	ldrb	r1, [r1, #0]
1000cca0:	b090      	sub	sp, #64	@ 0x40
1000cca2:	4604      	mov	r4, r0
1000cca4:	2900      	cmp	r1, #0
1000cca6:	d04a      	beq.n	1000cd3e <strstr+0xa6>
1000cca8:	786a      	ldrb	r2, [r5, #1]
1000ccaa:	2a00      	cmp	r2, #0
1000ccac:	d06b      	beq.n	1000cd86 <strstr+0xee>
1000ccae:	78ab      	ldrb	r3, [r5, #2]
1000ccb0:	2b00      	cmp	r3, #0
1000ccb2:	d048      	beq.n	1000cd46 <strstr+0xae>
1000ccb4:	78e8      	ldrb	r0, [r5, #3]
1000ccb6:	2800      	cmp	r0, #0
1000ccb8:	d079      	beq.n	1000cdae <strstr+0x116>
1000ccba:	792b      	ldrb	r3, [r5, #4]
1000ccbc:	2b00      	cmp	r3, #0
1000ccbe:	d067      	beq.n	1000cd90 <strstr+0xf8>
1000ccc0:	4628      	mov	r0, r5
1000ccc2:	f000 fa19 	bl	1000d0f8 <strlen>
1000ccc6:	4606      	mov	r6, r0
1000ccc8:	4620      	mov	r0, r4
1000ccca:	f446 7100 	orr.w	r1, r6, #512	@ 0x200
1000ccce:	f000 fbf9 	bl	1000d4c4 <strnlen>
1000ccd2:	4286      	cmp	r6, r0
1000ccd4:	d846      	bhi.n	1000cd64 <strstr+0xcc>
1000ccd6:	2efe      	cmp	r6, #254	@ 0xfe
1000ccd8:	f200 8087 	bhi.w	1000cdea <strstr+0x152>
1000ccdc:	1b80      	subs	r0, r0, r6
1000ccde:	2240      	movs	r2, #64	@ 0x40
1000cce0:	1c71      	adds	r1, r6, #1
1000cce2:	1827      	adds	r7, r4, r0
1000cce4:	4668      	mov	r0, sp
1000cce6:	f7ff fdef 	bl	1000c8c8 <memset>
1000ccea:	b16e      	cbz	r6, 1000cd08 <strstr+0x70>
1000ccec:	1e6a      	subs	r2, r5, #1
1000ccee:	fa5f fc86 	uxtb.w	ip, r6
1000ccf2:	1990      	adds	r0, r2, r6
1000ccf4:	f812 3f01 	ldrb.w	r3, [r2, #1]!
1000ccf8:	f003 033f 	and.w	r3, r3, #63	@ 0x3f
1000ccfc:	1aa9      	subs	r1, r5, r2
1000ccfe:	4290      	cmp	r0, r2
1000cd00:	446b      	add	r3, sp
1000cd02:	4461      	add	r1, ip
1000cd04:	7019      	strb	r1, [r3, #0]
1000cd06:	d1f5      	bne.n	1000ccf4 <strstr+0x5c>
1000cd08:	3c01      	subs	r4, #1
1000cd0a:	5da3      	ldrb	r3, [r4, r6]
1000cd0c:	f003 033f 	and.w	r3, r3, #63	@ 0x3f
1000cd10:	446b      	add	r3, sp
1000cd12:	781b      	ldrb	r3, [r3, #0]
1000cd14:	441c      	add	r4, r3
1000cd16:	42a7      	cmp	r7, r4
1000cd18:	d203      	bcs.n	1000cd22 <strstr+0x8a>
1000cd1a:	e028      	b.n	1000cd6e <strstr+0xd6>
1000cd1c:	4444      	add	r4, r8
1000cd1e:	42a7      	cmp	r7, r4
1000cd20:	d325      	bcc.n	1000cd6e <strstr+0xd6>
1000cd22:	f814 c006 	ldrb.w	ip, [r4, r6]
1000cd26:	4632      	mov	r2, r6
1000cd28:	4629      	mov	r1, r5
1000cd2a:	4620      	mov	r0, r4
1000cd2c:	f00c 0c3f 	and.w	ip, ip, #63	@ 0x3f
1000cd30:	44ec      	add	ip, sp
1000cd32:	f89c 8000 	ldrb.w	r8, [ip]
1000cd36:	f7ff fd99 	bl	1000c86c <memcmp>
1000cd3a:	2800      	cmp	r0, #0
1000cd3c:	d1ee      	bne.n	1000cd1c <strstr+0x84>
1000cd3e:	4620      	mov	r0, r4
1000cd40:	b010      	add	sp, #64	@ 0x40
1000cd42:	e8bd 81f0 	ldmia.w	sp!, {r4, r5, r6, r7, r8, pc}
1000cd46:	7800      	ldrb	r0, [r0, #0]
1000cd48:	ea42 4201 	orr.w	r2, r2, r1, lsl #16
1000cd4c:	b150      	cbz	r0, 1000cd64 <strstr+0xcc>
1000cd4e:	ea40 4303 	orr.w	r3, r0, r3, lsl #16
1000cd52:	4621      	mov	r1, r4
1000cd54:	f814 0f01 	ldrb.w	r0, [r4, #1]!
1000cd58:	429a      	cmp	r2, r3
1000cd5a:	d041      	beq.n	1000cde0 <strstr+0x148>
1000cd5c:	2800      	cmp	r0, #0
1000cd5e:	d1f6      	bne.n	1000cd4e <strstr+0xb6>
1000cd60:	429a      	cmp	r2, r3
1000cd62:	d03d      	beq.n	1000cde0 <strstr+0x148>
1000cd64:	2400      	movs	r4, #0
1000cd66:	4620      	mov	r0, r4
1000cd68:	b010      	add	sp, #64	@ 0x40
1000cd6a:	e8bd 81f0 	ldmia.w	sp!, {r4, r5, r6, r7, r8, pc}
1000cd6e:	5dbb      	ldrb	r3, [r7, r6]
1000cd70:	19b8      	adds	r0, r7, r6
1000cd72:	2b00      	cmp	r3, #0
1000cd74:	d0f6      	beq.n	1000cd64 <strstr+0xcc>
1000cd76:	f44f 6100 	mov.w	r1, #2048	@ 0x800
1000cd7a:	f000 fba3 	bl	1000d4c4 <strnlen>
1000cd7e:	4407      	add	r7, r0
1000cd80:	42a7      	cmp	r7, r4
1000cd82:	d2c1      	bcs.n	1000cd08 <strstr+0x70>
1000cd84:	e7ee      	b.n	1000cd64 <strstr+0xcc>
1000cd86:	b010      	add	sp, #64	@ 0x40
1000cd88:	e8bd 41f0 	ldmia.w	sp!, {r4, r5, r6, r7, r8, lr}
1000cd8c:	f000 bb32 	b.w	1000d3f4 <strchr>
1000cd90:	7822      	ldrb	r2, [r4, #0]
1000cd92:	2a00      	cmp	r2, #0
1000cd94:	d0e6      	beq.n	1000cd64 <strstr+0xcc>
1000cd96:	6829      	ldr	r1, [r5, #0]
1000cd98:	ba09      	rev	r1, r1
1000cd9a:	ea42 2303 	orr.w	r3, r2, r3, lsl #8
1000cd9e:	4620      	mov	r0, r4
1000cda0:	f814 2f01 	ldrb.w	r2, [r4, #1]!
1000cda4:	b1f2      	cbz	r2, 1000cde4 <strstr+0x14c>
1000cda6:	4299      	cmp	r1, r3
1000cda8:	d1f7      	bne.n	1000cd9a <strstr+0x102>
1000cdaa:	1ec4      	subs	r4, r0, #3
1000cdac:	e7c7      	b.n	1000cd3e <strstr+0xa6>
1000cdae:	0412      	lsls	r2, r2, #16
1000cdb0:	ea42 6201 	orr.w	r2, r2, r1, lsl #24
1000cdb4:	7821      	ldrb	r1, [r4, #0]
1000cdb6:	ea42 2303 	orr.w	r3, r2, r3, lsl #8
1000cdba:	2900      	cmp	r1, #0
1000cdbc:	d0d2      	beq.n	1000cd64 <strstr+0xcc>
1000cdbe:	4602      	mov	r2, r0
1000cdc0:	e000      	b.n	1000cdc4 <strstr+0x12c>
1000cdc2:	b149      	cbz	r1, 1000cdd8 <strstr+0x140>
1000cdc4:	ea41 0002 	orr.w	r0, r1, r2
1000cdc8:	4625      	mov	r5, r4
1000cdca:	f814 1f01 	ldrb.w	r1, [r4, #1]!
1000cdce:	ebb3 2f00 	cmp.w	r3, r0, lsl #8
1000cdd2:	ea4f 2200 	mov.w	r2, r0, lsl #8
1000cdd6:	d1f4      	bne.n	1000cdc2 <strstr+0x12a>
1000cdd8:	4293      	cmp	r3, r2
1000cdda:	d1c3      	bne.n	1000cd64 <strstr+0xcc>
1000cddc:	1eac      	subs	r4, r5, #2
1000cdde:	e7ae      	b.n	1000cd3e <strstr+0xa6>
1000cde0:	1e4c      	subs	r4, r1, #1
1000cde2:	e7ac      	b.n	1000cd3e <strstr+0xa6>
1000cde4:	4299      	cmp	r1, r3
1000cde6:	d1bd      	bne.n	1000cd64 <strstr+0xcc>
1000cde8:	e7df      	b.n	1000cdaa <strstr+0x112>
1000cdea:	4601      	mov	r1, r0
1000cdec:	4633      	mov	r3, r6
1000cdee:	462a      	mov	r2, r5
1000cdf0:	4620      	mov	r0, r4
1000cdf2:	b010      	add	sp, #64	@ 0x40
1000cdf4:	e8bd 41f0 	ldmia.w	sp!, {r4, r5, r6, r7, r8, lr}
1000cdf8:	f7ff be4c 	b.w	1000ca94 <two_way_long_needle>

1000cdfc <_sbrk_r>:
1000cdfc:	b538      	push	{r3, r4, r5, lr}
1000cdfe:	2200      	movs	r2, #0
1000ce00:	4d06      	ldr	r5, [pc, #24]	@ (1000ce1c <_sbrk_r+0x20>)
1000ce02:	4604      	mov	r4, r0
1000ce04:	4608      	mov	r0, r1
1000ce06:	602a      	str	r2, [r5, #0]
1000ce08:	f7fb fcd6 	bl	100087b8 <_sbrk>
1000ce0c:	1c43      	adds	r3, r0, #1
1000ce0e:	d000      	beq.n	1000ce12 <_sbrk_r+0x16>
1000ce10:	bd38      	pop	{r3, r4, r5, pc}
1000ce12:	682b      	ldr	r3, [r5, #0]
1000ce14:	2b00      	cmp	r3, #0
1000ce16:	d0fb      	beq.n	1000ce10 <_sbrk_r+0x14>
1000ce18:	6023      	str	r3, [r4, #0]
1000ce1a:	bd38      	pop	{r3, r4, r5, pc}
1000ce1c:	200021d4 	.word	0x200021d4

1000ce20 <__errno>:
1000ce20:	4b01      	ldr	r3, [pc, #4]	@ (1000ce28 <__errno+0x8>)
1000ce22:	6818      	ldr	r0, [r3, #0]
1000ce24:	4770      	bx	lr
1000ce26:	bf00      	nop
1000ce28:	20001768 	.word	0x20001768

1000ce2c <__retarget_lock_acquire_recursive>:
1000ce2c:	4770      	bx	lr
1000ce2e:	bf00      	nop

1000ce30 <__retarget_lock_release_recursive>:
1000ce30:	4770      	bx	lr
1000ce32:	bf00      	nop

1000ce34 <sysconf>:
1000ce34:	2808      	cmp	r0, #8
1000ce36:	d102      	bne.n	1000ce3e <sysconf+0xa>
1000ce38:	f44f 5080 	mov.w	r0, #4096	@ 0x1000
1000ce3c:	4770      	bx	lr
1000ce3e:	b508      	push	{r3, lr}
1000ce40:	f7ff ffee 	bl	1000ce20 <__errno>
1000ce44:	2216      	movs	r2, #22
1000ce46:	4603      	mov	r3, r0
1000ce48:	f04f 30ff 	mov.w	r0, #4294967295
1000ce4c:	601a      	str	r2, [r3, #0]
1000ce4e:	bd08      	pop	{r3, pc}

1000ce50 <strcmp>:
1000ce50:	ea80 0c01 	eor.w	ip, r0, r1
1000ce54:	f01c 0f03 	tst.w	ip, #3
1000ce58:	d137      	bne.n	1000ceca <strcmp+0x7a>
1000ce5a:	f010 0c03 	ands.w	ip, r0, #3
1000ce5e:	f020 0003 	bic.w	r0, r0, #3
1000ce62:	f021 0103 	bic.w	r1, r1, #3
1000ce66:	f850 2b04 	ldr.w	r2, [r0], #4
1000ce6a:	bf08      	it	eq
1000ce6c:	f851 3b04 	ldreq.w	r3, [r1], #4
1000ce70:	d00e      	beq.n	1000ce90 <strcmp+0x40>
1000ce72:	f08c 0c03 	eor.w	ip, ip, #3
1000ce76:	f06f 437f 	mvn.w	r3, #4278190080	@ 0xff000000
1000ce7a:	ea4f 0ccc 	mov.w	ip, ip, lsl #3
1000ce7e:	fa23 fc0c 	lsr.w	ip, r3, ip
1000ce82:	f851 3b04 	ldr.w	r3, [r1], #4
1000ce86:	ea42 020c 	orr.w	r2, r2, ip
1000ce8a:	ea43 030c 	orr.w	r3, r3, ip
1000ce8e:	bf00      	nop
1000ce90:	f1a2 3c01 	sub.w	ip, r2, #16843009	@ 0x1010101
1000ce94:	429a      	cmp	r2, r3
1000ce96:	bf01      	itttt	eq
1000ce98:	ea2c 0c02 	biceq.w	ip, ip, r2
1000ce9c:	f01c 3f80 	tsteq.w	ip, #2155905152	@ 0x80808080
1000cea0:	f850 2b04 	ldreq.w	r2, [r0], #4
1000cea4:	f851 3b04 	ldreq.w	r3, [r1], #4
1000cea8:	d0f2      	beq.n	1000ce90 <strcmp+0x40>
1000ceaa:	ea4f 6002 	mov.w	r0, r2, lsl #24
1000ceae:	ea4f 2212 	mov.w	r2, r2, lsr #8
1000ceb2:	2801      	cmp	r0, #1
1000ceb4:	bf28      	it	cs
1000ceb6:	ebb0 6f03 	cmpcs.w	r0, r3, lsl #24
1000ceba:	bf08      	it	eq
1000cebc:	0a1b      	lsreq	r3, r3, #8
1000cebe:	d0f4      	beq.n	1000ceaa <strcmp+0x5a>
1000cec0:	f003 03ff 	and.w	r3, r3, #255	@ 0xff
1000cec4:	0e00      	lsrs	r0, r0, #24
1000cec6:	1ac0      	subs	r0, r0, r3
1000cec8:	4770      	bx	lr
1000ceca:	f010 0f03 	tst.w	r0, #3
1000cece:	d00a      	beq.n	1000cee6 <strcmp+0x96>
1000ced0:	f810 2b01 	ldrb.w	r2, [r0], #1
1000ced4:	f811 3b01 	ldrb.w	r3, [r1], #1
1000ced8:	2a01      	cmp	r2, #1
1000ceda:	bf28      	it	cs
1000cedc:	429a      	cmpcs	r2, r3
1000cede:	d0f4      	beq.n	1000ceca <strcmp+0x7a>
1000cee0:	eba2 0003 	sub.w	r0, r2, r3
1000cee4:	4770      	bx	lr
1000cee6:	f84d 5d04 	str.w	r5, [sp, #-4]!
1000ceea:	f850 2b04 	ldr.w	r2, [r0], #4
1000ceee:	f001 0503 	and.w	r5, r1, #3
1000cef2:	f021 0103 	bic.w	r1, r1, #3
1000cef6:	f851 3b04 	ldr.w	r3, [r1], #4
1000cefa:	2d02      	cmp	r5, #2
1000cefc:	d026      	beq.n	1000cf4c <strcmp+0xfc>
1000cefe:	d84d      	bhi.n	1000cf9c <strcmp+0x14c>
1000cf00:	f022 457f 	bic.w	r5, r2, #4278190080	@ 0xff000000
1000cf04:	ebb5 2f13 	cmp.w	r5, r3, lsr #8
1000cf08:	f1a2 3c01 	sub.w	ip, r2, #16843009	@ 0x1010101
1000cf0c:	ea2c 0c02 	bic.w	ip, ip, r2
1000cf10:	d10d      	bne.n	1000cf2e <strcmp+0xde>
1000cf12:	f01c 3c80 	ands.w	ip, ip, #2155905152	@ 0x80808080
1000cf16:	bf08      	it	eq
1000cf18:	f851 3b04 	ldreq.w	r3, [r1], #4
1000cf1c:	d10a      	bne.n	1000cf34 <strcmp+0xe4>
1000cf1e:	ea85 0502 	eor.w	r5, r5, r2
1000cf22:	ebb5 6f03 	cmp.w	r5, r3, lsl #24
1000cf26:	d10c      	bne.n	1000cf42 <strcmp+0xf2>
1000cf28:	f850 2b04 	ldr.w	r2, [r0], #4
1000cf2c:	e7e8      	b.n	1000cf00 <strcmp+0xb0>
1000cf2e:	ea4f 2313 	mov.w	r3, r3, lsr #8
1000cf32:	e05b      	b.n	1000cfec <strcmp+0x19c>
1000cf34:	f03c 4c7f 	bics.w	ip, ip, #4278190080	@ 0xff000000
1000cf38:	d154      	bne.n	1000cfe4 <strcmp+0x194>
1000cf3a:	780b      	ldrb	r3, [r1, #0]
1000cf3c:	ea4f 6512 	mov.w	r5, r2, lsr #24
1000cf40:	e054      	b.n	1000cfec <strcmp+0x19c>
1000cf42:	ea4f 6512 	mov.w	r5, r2, lsr #24
1000cf46:	f003 03ff 	and.w	r3, r3, #255	@ 0xff
1000cf4a:	e04f      	b.n	1000cfec <strcmp+0x19c>
1000cf4c:	ea4f 4502 	mov.w	r5, r2, lsl #16
1000cf50:	f1a2 3c01 	sub.w	ip, r2, #16843009	@ 0x1010101
1000cf54:	ea4f 4515 	mov.w	r5, r5, lsr #16
1000cf58:	ea2c 0c02 	bic.w	ip, ip, r2
1000cf5c:	ebb5 4f13 	cmp.w	r5, r3, lsr #16
1000cf60:	d118      	bne.n	1000cf94 <strcmp+0x144>
1000cf62:	f01c 3c80 	ands.w	ip, ip, #2155905152	@ 0x80808080
1000cf66:	bf08      	it	eq
1000cf68:	f851 3b04 	ldreq.w	r3, [r1], #4
1000cf6c:	d107      	bne.n	1000cf7e <strcmp+0x12e>
1000cf6e:	ea85 0502 	eor.w	r5, r5, r2
1000cf72:	ebb5 4f03 	cmp.w	r5, r3, lsl #16
1000cf76:	d109      	bne.n	1000cf8c <strcmp+0x13c>
1000cf78:	f850 2b04 	ldr.w	r2, [r0], #4
1000cf7c:	e7e6      	b.n	1000cf4c <strcmp+0xfc>
1000cf7e:	ea5f 4c0c 	movs.w	ip, ip, lsl #16
1000cf82:	d12f      	bne.n	1000cfe4 <strcmp+0x194>
1000cf84:	880b      	ldrh	r3, [r1, #0]
1000cf86:	ea4f 4512 	mov.w	r5, r2, lsr #16
1000cf8a:	e02f      	b.n	1000cfec <strcmp+0x19c>
1000cf8c:	ea4f 4303 	mov.w	r3, r3, lsl #16
1000cf90:	ea4f 4512 	mov.w	r5, r2, lsr #16
1000cf94:	ea4f 4313 	mov.w	r3, r3, lsr #16
1000cf98:	e028      	b.n	1000cfec <strcmp+0x19c>
1000cf9a:	bf00      	nop
1000cf9c:	f002 05ff 	and.w	r5, r2, #255	@ 0xff
1000cfa0:	ebb5 6f13 	cmp.w	r5, r3, lsr #24
1000cfa4:	f1a2 3c01 	sub.w	ip, r2, #16843009	@ 0x1010101
1000cfa8:	ea2c 0c02 	bic.w	ip, ip, r2
1000cfac:	d10d      	bne.n	1000cfca <strcmp+0x17a>
1000cfae:	f01c 3c80 	ands.w	ip, ip, #2155905152	@ 0x80808080
1000cfb2:	bf08      	it	eq
1000cfb4:	f851 3b04 	ldreq.w	r3, [r1], #4
1000cfb8:	d10a      	bne.n	1000cfd0 <strcmp+0x180>
1000cfba:	ea85 0502 	eor.w	r5, r5, r2
1000cfbe:	ebb5 2f03 	cmp.w	r5, r3, lsl #8
1000cfc2:	d10a      	bne.n	1000cfda <strcmp+0x18a>
1000cfc4:	f850 2b04 	ldr.w	r2, [r0], #4
1000cfc8:	e7e8      	b.n	1000cf9c <strcmp+0x14c>
1000cfca:	ea4f 6313 	mov.w	r3, r3, lsr #24
1000cfce:	e00d      	b.n	1000cfec <strcmp+0x19c>
1000cfd0:	f012 0fff 	tst.w	r2, #255	@ 0xff
1000cfd4:	d006      	beq.n	1000cfe4 <strcmp+0x194>
1000cfd6:	f851 3b04 	ldr.w	r3, [r1], #4
1000cfda:	ea4f 2512 	mov.w	r5, r2, lsr #8
1000cfde:	f023 437f 	bic.w	r3, r3, #4278190080	@ 0xff000000
1000cfe2:	e003      	b.n	1000cfec <strcmp+0x19c>
1000cfe4:	f04f 0000 	mov.w	r0, #0
1000cfe8:	bc20      	pop	{r5}
1000cfea:	4770      	bx	lr
1000cfec:	f005 02ff 	and.w	r2, r5, #255	@ 0xff
1000cff0:	f003 00ff 	and.w	r0, r3, #255	@ 0xff
1000cff4:	2801      	cmp	r0, #1
1000cff6:	bf28      	it	cs
1000cff8:	4290      	cmpcs	r0, r2
1000cffa:	bf04      	itt	eq
1000cffc:	0a2d      	lsreq	r5, r5, #8
1000cffe:	0a1b      	lsreq	r3, r3, #8
1000d000:	d0f4      	beq.n	1000cfec <strcmp+0x19c>
1000d002:	eba2 0000 	sub.w	r0, r2, r0
1000d006:	bc20      	pop	{r5}
1000d008:	4770      	bx	lr
1000d00a:	bf00      	nop

1000d00c <memcpy>:
1000d00c:	4684      	mov	ip, r0
1000d00e:	ea41 0300 	orr.w	r3, r1, r0
1000d012:	f013 0303 	ands.w	r3, r3, #3
1000d016:	d149      	bne.n	1000d0ac <memcpy+0xa0>
1000d018:	3a40      	subs	r2, #64	@ 0x40
1000d01a:	d323      	bcc.n	1000d064 <memcpy+0x58>
1000d01c:	680b      	ldr	r3, [r1, #0]
1000d01e:	6003      	str	r3, [r0, #0]
1000d020:	684b      	ldr	r3, [r1, #4]
1000d022:	6043      	str	r3, [r0, #4]
1000d024:	688b      	ldr	r3, [r1, #8]
1000d026:	6083      	str	r3, [r0, #8]
1000d028:	68cb      	ldr	r3, [r1, #12]
1000d02a:	60c3      	str	r3, [r0, #12]
1000d02c:	690b      	ldr	r3, [r1, #16]
1000d02e:	6103      	str	r3, [r0, #16]
1000d030:	694b      	ldr	r3, [r1, #20]
1000d032:	6143      	str	r3, [r0, #20]
1000d034:	698b      	ldr	r3, [r1, #24]
1000d036:	6183      	str	r3, [r0, #24]
1000d038:	69cb      	ldr	r3, [r1, #28]
1000d03a:	61c3      	str	r3, [r0, #28]
1000d03c:	6a0b      	ldr	r3, [r1, #32]
1000d03e:	6203      	str	r3, [r0, #32]
1000d040:	6a4b      	ldr	r3, [r1, #36]	@ 0x24
1000d042:	6243      	str	r3, [r0, #36]	@ 0x24
1000d044:	6a8b      	ldr	r3, [r1, #40]	@ 0x28
1000d046:	6283      	str	r3, [r0, #40]	@ 0x28
1000d048:	6acb      	ldr	r3, [r1, #44]	@ 0x2c
1000d04a:	62c3      	str	r3, [r0, #44]	@ 0x2c
1000d04c:	6b0b      	ldr	r3, [r1, #48]	@ 0x30
1000d04e:	6303      	str	r3, [r0, #48]	@ 0x30
1000d050:	6b4b      	ldr	r3, [r1, #52]	@ 0x34
1000d052:	6343      	str	r3, [r0, #52]	@ 0x34
1000d054:	6b8b      	ldr	r3, [r1, #56]	@ 0x38
1000d056:	6383      	str	r3, [r0, #56]	@ 0x38
1000d058:	6bcb      	ldr	r3, [r1, #60]	@ 0x3c
1000d05a:	63c3      	str	r3, [r0, #60]	@ 0x3c
1000d05c:	3040      	adds	r0, #64	@ 0x40
1000d05e:	3140      	adds	r1, #64	@ 0x40
1000d060:	3a40      	subs	r2, #64	@ 0x40
1000d062:	d2db      	bcs.n	1000d01c <memcpy+0x10>
1000d064:	3230      	adds	r2, #48	@ 0x30
1000d066:	d30b      	bcc.n	1000d080 <memcpy+0x74>
1000d068:	680b      	ldr	r3, [r1, #0]
1000d06a:	6003      	str	r3, [r0, #0]
1000d06c:	684b      	ldr	r3, [r1, #4]
1000d06e:	6043      	str	r3, [r0, #4]
1000d070:	688b      	ldr	r3, [r1, #8]
1000d072:	6083      	str	r3, [r0, #8]
1000d074:	68cb      	ldr	r3, [r1, #12]
1000d076:	60c3      	str	r3, [r0, #12]
1000d078:	3010      	adds	r0, #16
1000d07a:	3110      	adds	r1, #16
1000d07c:	3a10      	subs	r2, #16
1000d07e:	d2f3      	bcs.n	1000d068 <memcpy+0x5c>
1000d080:	320c      	adds	r2, #12
1000d082:	d305      	bcc.n	1000d090 <memcpy+0x84>
1000d084:	f851 3b04 	ldr.w	r3, [r1], #4
1000d088:	f840 3b04 	str.w	r3, [r0], #4
1000d08c:	3a04      	subs	r2, #4
1000d08e:	d2f9      	bcs.n	1000d084 <memcpy+0x78>
1000d090:	3204      	adds	r2, #4
1000d092:	d008      	beq.n	1000d0a6 <memcpy+0x9a>
1000d094:	07d2      	lsls	r2, r2, #31
1000d096:	bf1c      	itt	ne
1000d098:	f811 3b01 	ldrbne.w	r3, [r1], #1
1000d09c:	f800 3b01 	strbne.w	r3, [r0], #1
1000d0a0:	d301      	bcc.n	1000d0a6 <memcpy+0x9a>
1000d0a2:	880b      	ldrh	r3, [r1, #0]
1000d0a4:	8003      	strh	r3, [r0, #0]
1000d0a6:	4660      	mov	r0, ip
1000d0a8:	4770      	bx	lr
1000d0aa:	bf00      	nop
1000d0ac:	2a08      	cmp	r2, #8
1000d0ae:	d313      	bcc.n	1000d0d8 <memcpy+0xcc>
1000d0b0:	078b      	lsls	r3, r1, #30
1000d0b2:	d0b1      	beq.n	1000d018 <memcpy+0xc>
1000d0b4:	f010 0303 	ands.w	r3, r0, #3
1000d0b8:	d0ae      	beq.n	1000d018 <memcpy+0xc>
1000d0ba:	f1c3 0304 	rsb	r3, r3, #4
1000d0be:	1ad2      	subs	r2, r2, r3
1000d0c0:	07db      	lsls	r3, r3, #31
1000d0c2:	bf1c      	itt	ne
1000d0c4:	f811 3b01 	ldrbne.w	r3, [r1], #1
1000d0c8:	f800 3b01 	strbne.w	r3, [r0], #1
1000d0cc:	d3a4      	bcc.n	1000d018 <memcpy+0xc>
1000d0ce:	f831 3b02 	ldrh.w	r3, [r1], #2
1000d0d2:	f820 3b02 	strh.w	r3, [r0], #2
1000d0d6:	e79f      	b.n	1000d018 <memcpy+0xc>
1000d0d8:	3a04      	subs	r2, #4
1000d0da:	d3d9      	bcc.n	1000d090 <memcpy+0x84>
1000d0dc:	3a01      	subs	r2, #1
1000d0de:	f811 3b01 	ldrb.w	r3, [r1], #1
1000d0e2:	f800 3b01 	strb.w	r3, [r0], #1
1000d0e6:	d2f9      	bcs.n	1000d0dc <memcpy+0xd0>
1000d0e8:	780b      	ldrb	r3, [r1, #0]
1000d0ea:	7003      	strb	r3, [r0, #0]
1000d0ec:	784b      	ldrb	r3, [r1, #1]
1000d0ee:	7043      	strb	r3, [r0, #1]
1000d0f0:	788b      	ldrb	r3, [r1, #2]
1000d0f2:	7083      	strb	r3, [r0, #2]
1000d0f4:	4660      	mov	r0, ip
1000d0f6:	4770      	bx	lr

1000d0f8 <strlen>:
1000d0f8:	f020 0103 	bic.w	r1, r0, #3
1000d0fc:	f010 0003 	ands.w	r0, r0, #3
1000d100:	f1c0 0000 	rsb	r0, r0, #0
1000d104:	f851 3b04 	ldr.w	r3, [r1], #4
1000d108:	f100 0c04 	add.w	ip, r0, #4
1000d10c:	ea4f 0ccc 	mov.w	ip, ip, lsl #3
1000d110:	f06f 0200 	mvn.w	r2, #0
1000d114:	bf1c      	itt	ne
1000d116:	fa22 f20c 	lsrne.w	r2, r2, ip
1000d11a:	4313      	orrne	r3, r2
1000d11c:	f04f 0c01 	mov.w	ip, #1
1000d120:	ea4c 2c0c 	orr.w	ip, ip, ip, lsl #8
1000d124:	ea4c 4c0c 	orr.w	ip, ip, ip, lsl #16
1000d128:	eba3 020c 	sub.w	r2, r3, ip
1000d12c:	ea22 0203 	bic.w	r2, r2, r3
1000d130:	ea12 12cc 	ands.w	r2, r2, ip, lsl #7
1000d134:	bf04      	itt	eq
1000d136:	f851 3b04 	ldreq.w	r3, [r1], #4
1000d13a:	3004      	addeq	r0, #4
1000d13c:	d0f4      	beq.n	1000d128 <strlen+0x30>
1000d13e:	f1c2 0100 	rsb	r1, r2, #0
1000d142:	ea02 0201 	and.w	r2, r2, r1
1000d146:	fab2 f282 	clz	r2, r2
1000d14a:	f1c2 021f 	rsb	r2, r2, #31
1000d14e:	eb00 00d2 	add.w	r0, r0, r2, lsr #3
1000d152:	4770      	bx	lr

1000d154 <_malloc_trim_r>:
1000d154:	e92d 43f8 	stmdb	sp!, {r3, r4, r5, r6, r7, r8, r9, lr}
1000d158:	4606      	mov	r6, r0
1000d15a:	f8df 80ac 	ldr.w	r8, [pc, #172]	@ 1000d208 <_malloc_trim_r+0xb4>
1000d15e:	2008      	movs	r0, #8
1000d160:	4689      	mov	r9, r1
1000d162:	f7ff fe67 	bl	1000ce34 <sysconf>
1000d166:	4605      	mov	r5, r0
1000d168:	4630      	mov	r0, r6
1000d16a:	f7ff fb73 	bl	1000c854 <__malloc_lock>
1000d16e:	f8d8 3008 	ldr.w	r3, [r8, #8]
1000d172:	685f      	ldr	r7, [r3, #4]
1000d174:	f027 0703 	bic.w	r7, r7, #3
1000d178:	f1a7 0411 	sub.w	r4, r7, #17
1000d17c:	eba4 0409 	sub.w	r4, r4, r9
1000d180:	442c      	add	r4, r5
1000d182:	fbb4 f4f5 	udiv	r4, r4, r5
1000d186:	3c01      	subs	r4, #1
1000d188:	fb05 f404 	mul.w	r4, r5, r4
1000d18c:	42a5      	cmp	r5, r4
1000d18e:	dc08      	bgt.n	1000d1a2 <_malloc_trim_r+0x4e>
1000d190:	2100      	movs	r1, #0
1000d192:	4630      	mov	r0, r6
1000d194:	f7ff fe32 	bl	1000cdfc <_sbrk_r>
1000d198:	f8d8 3008 	ldr.w	r3, [r8, #8]
1000d19c:	443b      	add	r3, r7
1000d19e:	4298      	cmp	r0, r3
1000d1a0:	d005      	beq.n	1000d1ae <_malloc_trim_r+0x5a>
1000d1a2:	4630      	mov	r0, r6
1000d1a4:	f7ff fb5c 	bl	1000c860 <__malloc_unlock>
1000d1a8:	2000      	movs	r0, #0
1000d1aa:	e8bd 83f8 	ldmia.w	sp!, {r3, r4, r5, r6, r7, r8, r9, pc}
1000d1ae:	4261      	negs	r1, r4
1000d1b0:	4630      	mov	r0, r6
1000d1b2:	f7ff fe23 	bl	1000cdfc <_sbrk_r>
1000d1b6:	3001      	adds	r0, #1
1000d1b8:	d00f      	beq.n	1000d1da <_malloc_trim_r+0x86>
1000d1ba:	1b3f      	subs	r7, r7, r4
1000d1bc:	4a10      	ldr	r2, [pc, #64]	@ (1000d200 <_malloc_trim_r+0xac>)
1000d1be:	f8d8 3008 	ldr.w	r3, [r8, #8]
1000d1c2:	4630      	mov	r0, r6
1000d1c4:	f047 0701 	orr.w	r7, r7, #1
1000d1c8:	605f      	str	r7, [r3, #4]
1000d1ca:	6813      	ldr	r3, [r2, #0]
1000d1cc:	1b1b      	subs	r3, r3, r4
1000d1ce:	6013      	str	r3, [r2, #0]
1000d1d0:	f7ff fb46 	bl	1000c860 <__malloc_unlock>
1000d1d4:	2001      	movs	r0, #1
1000d1d6:	e8bd 83f8 	ldmia.w	sp!, {r3, r4, r5, r6, r7, r8, r9, pc}
1000d1da:	2100      	movs	r1, #0
1000d1dc:	4630      	mov	r0, r6
1000d1de:	f7ff fe0d 	bl	1000cdfc <_sbrk_r>
1000d1e2:	f8d8 2008 	ldr.w	r2, [r8, #8]
1000d1e6:	1a83      	subs	r3, r0, r2
1000d1e8:	2b0f      	cmp	r3, #15
1000d1ea:	ddda      	ble.n	1000d1a2 <_malloc_trim_r+0x4e>
1000d1ec:	f043 0301 	orr.w	r3, r3, #1
1000d1f0:	4903      	ldr	r1, [pc, #12]	@ (1000d200 <_malloc_trim_r+0xac>)
1000d1f2:	6053      	str	r3, [r2, #4]
1000d1f4:	4b03      	ldr	r3, [pc, #12]	@ (1000d204 <_malloc_trim_r+0xb0>)
1000d1f6:	681b      	ldr	r3, [r3, #0]
1000d1f8:	1ac0      	subs	r0, r0, r3
1000d1fa:	6008      	str	r0, [r1, #0]
1000d1fc:	e7d1      	b.n	1000d1a2 <_malloc_trim_r+0x4e>
1000d1fe:	bf00      	nop
1000d200:	20001a48 	.word	0x20001a48
1000d204:	20001354 	.word	0x20001354
1000d208:	20001360 	.word	0x20001360

1000d20c <_free_r>:
1000d20c:	2900      	cmp	r1, #0
1000d20e:	d05a      	beq.n	1000d2c6 <_free_r+0xba>
1000d210:	b5f8      	push	{r3, r4, r5, r6, r7, lr}
1000d212:	460c      	mov	r4, r1
1000d214:	4607      	mov	r7, r0
1000d216:	f7ff fb1d 	bl	1000c854 <__malloc_lock>
1000d21a:	4d73      	ldr	r5, [pc, #460]	@ (1000d3e8 <_free_r+0x1dc>)
1000d21c:	f854 cc04 	ldr.w	ip, [r4, #-4]
1000d220:	f1a4 0208 	sub.w	r2, r4, #8
1000d224:	68a8      	ldr	r0, [r5, #8]
1000d226:	f02c 0301 	bic.w	r3, ip, #1
1000d22a:	f00c 0e01 	and.w	lr, ip, #1
1000d22e:	18d1      	adds	r1, r2, r3
1000d230:	684e      	ldr	r6, [r1, #4]
1000d232:	4288      	cmp	r0, r1
1000d234:	f026 0603 	bic.w	r6, r6, #3
1000d238:	d07c      	beq.n	1000d334 <_free_r+0x128>
1000d23a:	1988      	adds	r0, r1, r6
1000d23c:	604e      	str	r6, [r1, #4]
1000d23e:	6840      	ldr	r0, [r0, #4]
1000d240:	f000 0001 	and.w	r0, r0, #1
1000d244:	f1be 0f00 	cmp.w	lr, #0
1000d248:	d12e      	bne.n	1000d2a8 <_free_r+0x9c>
1000d24a:	f854 4c08 	ldr.w	r4, [r4, #-8]
1000d24e:	f105 0c08 	add.w	ip, r5, #8
1000d252:	1b12      	subs	r2, r2, r4
1000d254:	4423      	add	r3, r4
1000d256:	6894      	ldr	r4, [r2, #8]
1000d258:	4564      	cmp	r4, ip
1000d25a:	d060      	beq.n	1000d31e <_free_r+0x112>
1000d25c:	f8d2 e00c 	ldr.w	lr, [r2, #12]
1000d260:	f8c4 e00c 	str.w	lr, [r4, #12]
1000d264:	f8ce 4008 	str.w	r4, [lr, #8]
1000d268:	2800      	cmp	r0, #0
1000d26a:	d07d      	beq.n	1000d368 <_free_r+0x15c>
1000d26c:	f043 0001 	orr.w	r0, r3, #1
1000d270:	6050      	str	r0, [r2, #4]
1000d272:	600b      	str	r3, [r1, #0]
1000d274:	f5b3 7f00 	cmp.w	r3, #512	@ 0x200
1000d278:	d22e      	bcs.n	1000d2d8 <_free_r+0xcc>
1000d27a:	0958      	lsrs	r0, r3, #5
1000d27c:	08d9      	lsrs	r1, r3, #3
1000d27e:	2301      	movs	r3, #1
1000d280:	4083      	lsls	r3, r0
1000d282:	6868      	ldr	r0, [r5, #4]
1000d284:	3101      	adds	r1, #1
1000d286:	4303      	orrs	r3, r0
1000d288:	f855 0031 	ldr.w	r0, [r5, r1, lsl #3]
1000d28c:	606b      	str	r3, [r5, #4]
1000d28e:	eb05 03c1 	add.w	r3, r5, r1, lsl #3
1000d292:	3b08      	subs	r3, #8
1000d294:	e9c2 0302 	strd	r0, r3, [r2, #8]
1000d298:	f845 2031 	str.w	r2, [r5, r1, lsl #3]
1000d29c:	60c2      	str	r2, [r0, #12]
1000d29e:	4638      	mov	r0, r7
1000d2a0:	e8bd 40f8 	ldmia.w	sp!, {r3, r4, r5, r6, r7, lr}
1000d2a4:	f7ff badc 	b.w	1000c860 <__malloc_unlock>
1000d2a8:	b970      	cbnz	r0, 1000d2c8 <_free_r+0xbc>
1000d2aa:	4433      	add	r3, r6
1000d2ac:	f105 0c08 	add.w	ip, r5, #8
1000d2b0:	6888      	ldr	r0, [r1, #8]
1000d2b2:	f043 0401 	orr.w	r4, r3, #1
1000d2b6:	4560      	cmp	r0, ip
1000d2b8:	d06e      	beq.n	1000d398 <_free_r+0x18c>
1000d2ba:	68c9      	ldr	r1, [r1, #12]
1000d2bc:	60c1      	str	r1, [r0, #12]
1000d2be:	6088      	str	r0, [r1, #8]
1000d2c0:	6054      	str	r4, [r2, #4]
1000d2c2:	50d3      	str	r3, [r2, r3]
1000d2c4:	e7d6      	b.n	1000d274 <_free_r+0x68>
1000d2c6:	4770      	bx	lr
1000d2c8:	f04c 0101 	orr.w	r1, ip, #1
1000d2cc:	f5b3 7f00 	cmp.w	r3, #512	@ 0x200
1000d2d0:	f844 1c04 	str.w	r1, [r4, #-4]
1000d2d4:	50d3      	str	r3, [r2, r3]
1000d2d6:	d3d0      	bcc.n	1000d27a <_free_r+0x6e>
1000d2d8:	f5b3 6f20 	cmp.w	r3, #2560	@ 0xa00
1000d2dc:	ea4f 2153 	mov.w	r1, r3, lsr #9
1000d2e0:	d244      	bcs.n	1000d36c <_free_r+0x160>
1000d2e2:	0999      	lsrs	r1, r3, #6
1000d2e4:	f101 0039 	add.w	r0, r1, #57	@ 0x39
1000d2e8:	f101 0438 	add.w	r4, r1, #56	@ 0x38
1000d2ec:	00c1      	lsls	r1, r0, #3
1000d2ee:	1868      	adds	r0, r5, r1
1000d2f0:	5869      	ldr	r1, [r5, r1]
1000d2f2:	3808      	subs	r0, #8
1000d2f4:	4288      	cmp	r0, r1
1000d2f6:	d103      	bne.n	1000d300 <_free_r+0xf4>
1000d2f8:	e055      	b.n	1000d3a6 <_free_r+0x19a>
1000d2fa:	6889      	ldr	r1, [r1, #8]
1000d2fc:	4288      	cmp	r0, r1
1000d2fe:	d004      	beq.n	1000d30a <_free_r+0xfe>
1000d300:	684c      	ldr	r4, [r1, #4]
1000d302:	f024 0403 	bic.w	r4, r4, #3
1000d306:	429c      	cmp	r4, r3
1000d308:	d8f7      	bhi.n	1000d2fa <_free_r+0xee>
1000d30a:	68c8      	ldr	r0, [r1, #12]
1000d30c:	e9c2 1002 	strd	r1, r0, [r2, #8]
1000d310:	6082      	str	r2, [r0, #8]
1000d312:	4638      	mov	r0, r7
1000d314:	60ca      	str	r2, [r1, #12]
1000d316:	e8bd 40f8 	ldmia.w	sp!, {r3, r4, r5, r6, r7, lr}
1000d31a:	f7ff baa1 	b.w	1000c860 <__malloc_unlock>
1000d31e:	bb80      	cbnz	r0, 1000d382 <_free_r+0x176>
1000d320:	441e      	add	r6, r3
1000d322:	e9d1 1302 	ldrd	r1, r3, [r1, #8]
1000d326:	60cb      	str	r3, [r1, #12]
1000d328:	6099      	str	r1, [r3, #8]
1000d32a:	f046 0301 	orr.w	r3, r6, #1
1000d32e:	6053      	str	r3, [r2, #4]
1000d330:	5196      	str	r6, [r2, r6]
1000d332:	e7b4      	b.n	1000d29e <_free_r+0x92>
1000d334:	441e      	add	r6, r3
1000d336:	f1be 0f00 	cmp.w	lr, #0
1000d33a:	d107      	bne.n	1000d34c <_free_r+0x140>
1000d33c:	f854 3c08 	ldr.w	r3, [r4, #-8]
1000d340:	1ad2      	subs	r2, r2, r3
1000d342:	441e      	add	r6, r3
1000d344:	e9d2 1302 	ldrd	r1, r3, [r2, #8]
1000d348:	60cb      	str	r3, [r1, #12]
1000d34a:	6099      	str	r1, [r3, #8]
1000d34c:	f046 0301 	orr.w	r3, r6, #1
1000d350:	6053      	str	r3, [r2, #4]
1000d352:	4b26      	ldr	r3, [pc, #152]	@ (1000d3ec <_free_r+0x1e0>)
1000d354:	60aa      	str	r2, [r5, #8]
1000d356:	681b      	ldr	r3, [r3, #0]
1000d358:	42b3      	cmp	r3, r6
1000d35a:	d8a0      	bhi.n	1000d29e <_free_r+0x92>
1000d35c:	4b24      	ldr	r3, [pc, #144]	@ (1000d3f0 <_free_r+0x1e4>)
1000d35e:	4638      	mov	r0, r7
1000d360:	6819      	ldr	r1, [r3, #0]
1000d362:	f7ff fef7 	bl	1000d154 <_malloc_trim_r>
1000d366:	e79a      	b.n	1000d29e <_free_r+0x92>
1000d368:	4433      	add	r3, r6
1000d36a:	e7a1      	b.n	1000d2b0 <_free_r+0xa4>
1000d36c:	2914      	cmp	r1, #20
1000d36e:	d90d      	bls.n	1000d38c <_free_r+0x180>
1000d370:	2954      	cmp	r1, #84	@ 0x54
1000d372:	d81f      	bhi.n	1000d3b4 <_free_r+0x1a8>
1000d374:	0b19      	lsrs	r1, r3, #12
1000d376:	f101 006f 	add.w	r0, r1, #111	@ 0x6f
1000d37a:	f101 046e 	add.w	r4, r1, #110	@ 0x6e
1000d37e:	00c1      	lsls	r1, r0, #3
1000d380:	e7b5      	b.n	1000d2ee <_free_r+0xe2>
1000d382:	f043 0001 	orr.w	r0, r3, #1
1000d386:	6050      	str	r0, [r2, #4]
1000d388:	600b      	str	r3, [r1, #0]
1000d38a:	e788      	b.n	1000d29e <_free_r+0x92>
1000d38c:	f101 005c 	add.w	r0, r1, #92	@ 0x5c
1000d390:	f101 045b 	add.w	r4, r1, #91	@ 0x5b
1000d394:	00c1      	lsls	r1, r0, #3
1000d396:	e7aa      	b.n	1000d2ee <_free_r+0xe2>
1000d398:	e9c5 2204 	strd	r2, r2, [r5, #16]
1000d39c:	e9c2 cc02 	strd	ip, ip, [r2, #8]
1000d3a0:	6054      	str	r4, [r2, #4]
1000d3a2:	50d3      	str	r3, [r2, r3]
1000d3a4:	e77b      	b.n	1000d29e <_free_r+0x92>
1000d3a6:	10a4      	asrs	r4, r4, #2
1000d3a8:	2301      	movs	r3, #1
1000d3aa:	40a3      	lsls	r3, r4
1000d3ac:	686c      	ldr	r4, [r5, #4]
1000d3ae:	4323      	orrs	r3, r4
1000d3b0:	606b      	str	r3, [r5, #4]
1000d3b2:	e7ab      	b.n	1000d30c <_free_r+0x100>
1000d3b4:	f5b1 7faa 	cmp.w	r1, #340	@ 0x154
1000d3b8:	d806      	bhi.n	1000d3c8 <_free_r+0x1bc>
1000d3ba:	0bd9      	lsrs	r1, r3, #15
1000d3bc:	f101 0078 	add.w	r0, r1, #120	@ 0x78
1000d3c0:	f101 0477 	add.w	r4, r1, #119	@ 0x77
1000d3c4:	00c1      	lsls	r1, r0, #3
1000d3c6:	e792      	b.n	1000d2ee <_free_r+0xe2>
1000d3c8:	f240 5054 	movw	r0, #1364	@ 0x554
1000d3cc:	4281      	cmp	r1, r0
1000d3ce:	d806      	bhi.n	1000d3de <_free_r+0x1d2>
1000d3d0:	0c99      	lsrs	r1, r3, #18
1000d3d2:	f101 007d 	add.w	r0, r1, #125	@ 0x7d
1000d3d6:	f101 047c 	add.w	r4, r1, #124	@ 0x7c
1000d3da:	00c1      	lsls	r1, r0, #3
1000d3dc:	e787      	b.n	1000d2ee <_free_r+0xe2>
1000d3de:	f44f 717e 	mov.w	r1, #1016	@ 0x3f8
1000d3e2:	247e      	movs	r4, #126	@ 0x7e
1000d3e4:	e783      	b.n	1000d2ee <_free_r+0xe2>
1000d3e6:	bf00      	nop
1000d3e8:	20001360 	.word	0x20001360
1000d3ec:	20001358 	.word	0x20001358
1000d3f0:	20001a78 	.word	0x20001a78

1000d3f4 <strchr>:
1000d3f4:	f011 01ff 	ands.w	r1, r1, #255	@ 0xff
1000d3f8:	4603      	mov	r3, r0
1000d3fa:	f000 0203 	and.w	r2, r0, #3
1000d3fe:	d039      	beq.n	1000d474 <strchr+0x80>
1000d400:	bb8a      	cbnz	r2, 1000d466 <strchr+0x72>
1000d402:	b510      	push	{r4, lr}
1000d404:	eb01 2e01 	add.w	lr, r1, r1, lsl #8
1000d408:	6802      	ldr	r2, [r0, #0]
1000d40a:	eb0e 4e0e 	add.w	lr, lr, lr, lsl #16
1000d40e:	f1a2 3301 	sub.w	r3, r2, #16843009	@ 0x1010101
1000d412:	ea8e 0402 	eor.w	r4, lr, r2
1000d416:	ea23 0302 	bic.w	r3, r3, r2
1000d41a:	f1a4 3201 	sub.w	r2, r4, #16843009	@ 0x1010101
1000d41e:	ea22 0204 	bic.w	r2, r2, r4
1000d422:	4313      	orrs	r3, r2
1000d424:	f013 3f80 	tst.w	r3, #2155905152	@ 0x80808080
1000d428:	d10f      	bne.n	1000d44a <strchr+0x56>
1000d42a:	f850 4f04 	ldr.w	r4, [r0, #4]!
1000d42e:	ea84 0c0e 	eor.w	ip, r4, lr
1000d432:	f1a4 3301 	sub.w	r3, r4, #16843009	@ 0x1010101
1000d436:	f1ac 3201 	sub.w	r2, ip, #16843009	@ 0x1010101
1000d43a:	ea23 0304 	bic.w	r3, r3, r4
1000d43e:	ea22 020c 	bic.w	r2, r2, ip
1000d442:	4313      	orrs	r3, r2
1000d444:	f013 3f80 	tst.w	r3, #2155905152	@ 0x80808080
1000d448:	d0ef      	beq.n	1000d42a <strchr+0x36>
1000d44a:	7803      	ldrb	r3, [r0, #0]
1000d44c:	b923      	cbnz	r3, 1000d458 <strchr+0x64>
1000d44e:	e036      	b.n	1000d4be <strchr+0xca>
1000d450:	f810 3f01 	ldrb.w	r3, [r0, #1]!
1000d454:	2b00      	cmp	r3, #0
1000d456:	d032      	beq.n	1000d4be <strchr+0xca>
1000d458:	4299      	cmp	r1, r3
1000d45a:	d1f9      	bne.n	1000d450 <strchr+0x5c>
1000d45c:	bd10      	pop	{r4, pc}
1000d45e:	428a      	cmp	r2, r1
1000d460:	d028      	beq.n	1000d4b4 <strchr+0xc0>
1000d462:	079a      	lsls	r2, r3, #30
1000d464:	d029      	beq.n	1000d4ba <strchr+0xc6>
1000d466:	781a      	ldrb	r2, [r3, #0]
1000d468:	4618      	mov	r0, r3
1000d46a:	3301      	adds	r3, #1
1000d46c:	2a00      	cmp	r2, #0
1000d46e:	d1f6      	bne.n	1000d45e <strchr+0x6a>
1000d470:	4610      	mov	r0, r2
1000d472:	4770      	bx	lr
1000d474:	b9ca      	cbnz	r2, 1000d4aa <strchr+0xb6>
1000d476:	6802      	ldr	r2, [r0, #0]
1000d478:	f1a2 3301 	sub.w	r3, r2, #16843009	@ 0x1010101
1000d47c:	ea23 0302 	bic.w	r3, r3, r2
1000d480:	f013 3f80 	tst.w	r3, #2155905152	@ 0x80808080
1000d484:	d108      	bne.n	1000d498 <strchr+0xa4>
1000d486:	f850 2f04 	ldr.w	r2, [r0, #4]!
1000d48a:	f1a2 3301 	sub.w	r3, r2, #16843009	@ 0x1010101
1000d48e:	ea23 0302 	bic.w	r3, r3, r2
1000d492:	f013 3f80 	tst.w	r3, #2155905152	@ 0x80808080
1000d496:	d0f6      	beq.n	1000d486 <strchr+0x92>
1000d498:	7803      	ldrb	r3, [r0, #0]
1000d49a:	b15b      	cbz	r3, 1000d4b4 <strchr+0xc0>
1000d49c:	f810 3f01 	ldrb.w	r3, [r0, #1]!
1000d4a0:	2b00      	cmp	r3, #0
1000d4a2:	d1fb      	bne.n	1000d49c <strchr+0xa8>
1000d4a4:	4770      	bx	lr
1000d4a6:	0799      	lsls	r1, r3, #30
1000d4a8:	d005      	beq.n	1000d4b6 <strchr+0xc2>
1000d4aa:	4618      	mov	r0, r3
1000d4ac:	f813 2b01 	ldrb.w	r2, [r3], #1
1000d4b0:	2a00      	cmp	r2, #0
1000d4b2:	d1f8      	bne.n	1000d4a6 <strchr+0xb2>
1000d4b4:	4770      	bx	lr
1000d4b6:	4618      	mov	r0, r3
1000d4b8:	e7dd      	b.n	1000d476 <strchr+0x82>
1000d4ba:	4618      	mov	r0, r3
1000d4bc:	e7a1      	b.n	1000d402 <strchr+0xe>
1000d4be:	4618      	mov	r0, r3
1000d4c0:	bd10      	pop	{r4, pc}
1000d4c2:	bf00      	nop

1000d4c4 <strnlen>:
1000d4c4:	b199      	cbz	r1, 1000d4ee <strnlen+0x2a>
1000d4c6:	4603      	mov	r3, r0
1000d4c8:	eb01 0c00 	add.w	ip, r1, r0
1000d4cc:	b410      	push	{r4}
1000d4ce:	e001      	b.n	1000d4d4 <strnlen+0x10>
1000d4d0:	459c      	cmp	ip, r3
1000d4d2:	d008      	beq.n	1000d4e6 <strnlen+0x22>
1000d4d4:	461a      	mov	r2, r3
1000d4d6:	3301      	adds	r3, #1
1000d4d8:	7814      	ldrb	r4, [r2, #0]
1000d4da:	2c00      	cmp	r4, #0
1000d4dc:	d1f8      	bne.n	1000d4d0 <strnlen+0xc>
1000d4de:	1a10      	subs	r0, r2, r0
1000d4e0:	f85d 4b04 	ldr.w	r4, [sp], #4
1000d4e4:	4770      	bx	lr
1000d4e6:	4608      	mov	r0, r1
1000d4e8:	f85d 4b04 	ldr.w	r4, [sp], #4
1000d4ec:	4770      	bx	lr
1000d4ee:	4608      	mov	r0, r1
1000d4f0:	4770      	bx	lr
1000d4f2:	bf00      	nop

1000d4f4 <_fini>:
1000d4f4:	b5f8      	push	{r3, r4, r5, r6, r7, lr}
1000d4f6:	bf00      	nop

1000d4f8 <__reset_non_control_endpoints_veneer>:
1000d4f8:	f85f f000 	ldr.w	pc, [pc]	@ 1000d4fc <__reset_non_control_endpoints_veneer+0x4>
1000d4fc:	200002a9 	.word	0x200002a9

1000d500 <__mutex_enter_timeout_ms_veneer>:
1000d500:	f85f f000 	ldr.w	pc, [pc]	@ 1000d504 <__mutex_enter_timeout_ms_veneer+0x4>
1000d504:	20000235 	.word	0x20000235

1000d508 <__hw_endpoint_start_next_buffer_veneer>:
1000d508:	f85f f000 	ldr.w	pc, [pc]	@ 1000d50c <__hw_endpoint_start_next_buffer_veneer+0x4>
1000d50c:	20000b0d 	.word	0x20000b0d

1000d510 <____aeabi_uldivmod_veneer>:
1000d510:	f85f f000 	ldr.w	pc, [pc]	@ 1000d514 <____aeabi_uldivmod_veneer+0x4>
1000d514:	20000f01 	.word	0x20000f01

1000d518 <__mutex_exit_veneer>:
1000d518:	f85f f000 	ldr.w	pc, [pc]	@ 1000d51c <__mutex_exit_veneer+0x4>
1000d51c:	2000026d 	.word	0x2000026d

1000d520 <____aeabi_ldivmod_veneer>:
1000d520:	f85f f000 	ldr.w	pc, [pc]	@ 1000d524 <____aeabi_ldivmod_veneer+0x4>
1000d524:	20000e61 	.word	0x20000e61

1000d528 <__e15_is_bulkin_ep_veneer>:
1000d528:	f85f f000 	ldr.w	pc, [pc]	@ 1000d52c <__e15_is_bulkin_ep_veneer+0x4>
1000d52c:	20000a6d 	.word	0x20000a6d

1000d530 <__e15_is_critical_frame_period_veneer>:
1000d530:	f85f f000 	ldr.w	pc, [pc]	@ 1000d534 <__e15_is_critical_frame_period_veneer+0x4>
1000d534:	20000a95 	.word	0x20000a95

1000d538 <___hw_endpoint_buffer_control_update32_veneer>:
1000d538:	f85f f000 	ldr.w	pc, [pc]	@ 1000d53c <___hw_endpoint_buffer_control_update32_veneer+0x4>
1000d53c:	20000ac9 	.word	0x20000ac9

1000d540 <__mutex_try_enter_block_until_veneer>:
1000d540:	f85f f000 	ldr.w	pc, [pc]	@ 1000d544 <__mutex_try_enter_block_until_veneer+0x4>
1000d544:	200001cd 	.word	0x200001cd

1000d548 <__mutex_try_enter_veneer>:
1000d548:	f85f f000 	ldr.w	pc, [pc]	@ 1000d54c <__mutex_try_enter_veneer+0x4>
1000d54c:	20000111 	.word	0x20000111

1000d550 <__spi_write_blocking_veneer>:
1000d550:	f85f f000 	ldr.w	pc, [pc]	@ 1000d554 <__spi_write_blocking_veneer+0x4>
1000d554:	20000dd1 	.word	0x20000dd1

1000d558 <__pre_init_runtime_init_bootrom_reset>:
1000d558:	10006a49                                Ij..

1000d55c <__pre_init_runtime_init_early_resets>:
1000d55c:	100069bd                                .i..

1000d560 <__pre_init_runtime_init_usb_power_down>:
1000d560:	100069f1                                .i..

1000d564 <__pre_init_runtime_init_clocks>:
1000d564:	10006add                                .j..

1000d568 <__pre_init_runtime_init_post_clock_resets>:
1000d568:	10006a29                                )j..

1000d56c <__pre_init_runtime_init_boot_locks_reset>:
1000d56c:	10006941                                Ai..

1000d570 <__pre_init_runtime_init_spin_locks_reset>:
1000d570:	10006a71                                qj..

1000d574 <__pre_init_runtime_init_bootrom_locking_enable>:
1000d574:	1000692d                                -i..

1000d578 <__pre_init_runtime_init_mutex>:
1000d578:	10005da1                                .]..

1000d57c <__pre_init_runtime_init_install_ram_vector_table>:
1000d57c:	10006a75                                uj..

1000d580 <__pre_init_runtime_init_default_alarm_pool>:
1000d580:	10006161                                aa..

1000d584 <__pre_init_first_per_core_initializer>:
1000d584:	1000698d                                .i..

1000d588 <__pre_init_runtime_init_per_core_bootrom_reset>:
1000d588:	10006a5d                                ]j..

1000d58c <__pre_init_runtime_init_per_core_enable_coprocessors>:
1000d58c:	10006a0d                                .j..

1000d590 <__pre_init_spinlock_set_extexclall>:
1000d590:	1000597d                                }Y..

1000d594 <__pre_init_runtime_init_per_core_irq_priorities>:
1000d594:	100059a5                                .Y..

1000d598 <__init_array_start>:
1000d598:	10009165 	.word	0x10009165

1000d59c <__frame_dummy_init_array_entry>:
1000d59c:	10000211                                ....

Disassembly of section .data:

20000110 <mutex_try_enter>:
20000110:	4603      	mov	r3, r0
20000112:	b500      	push	{lr}
20000114:	6802      	ldr	r2, [r0, #0]
20000116:	f3ef 8c10 	mrs	ip, PRIMASK
2000011a:	b672      	cpsid	i
2000011c:	e8d2 efcf 	ldaexb	lr, [r2]
20000120:	2001      	movs	r0, #1
20000122:	f1be 0f00 	cmp.w	lr, #0
20000126:	d1f9      	bne.n	2000011c <mutex_try_enter+0xc>
20000128:	e8c2 0f4e 	strexb	lr, r0, [r2]
2000012c:	f1be 0f00 	cmp.w	lr, #0
20000130:	d1f4      	bne.n	2000011c <mutex_try_enter+0xc>
20000132:	f3bf 8f5f 	dmb	sy
20000136:	f993 2004 	ldrsb.w	r2, [r3, #4]
2000013a:	2a00      	cmp	r2, #0
2000013c:	db0a      	blt.n	20000154 <mutex_try_enter+0x44>
2000013e:	b101      	cbz	r1, 20000142 <mutex_try_enter+0x32>
20000140:	600a      	str	r2, [r1, #0]
20000142:	2000      	movs	r0, #0
20000144:	2200      	movs	r2, #0
20000146:	681b      	ldr	r3, [r3, #0]
20000148:	e8c3 2f8f 	stlb	r2, [r3]
2000014c:	f38c 8810 	msr	PRIMASK, ip
20000150:	f85d fb04 	ldr.w	pc, [sp], #4
20000154:	f04f 4250 	mov.w	r2, #3489660928	@ 0xd0000000
20000158:	6812      	ldr	r2, [r2, #0]
2000015a:	2001      	movs	r0, #1
2000015c:	711a      	strb	r2, [r3, #4]
2000015e:	e7f1      	b.n	20000144 <mutex_try_enter+0x34>

20000160 <mutex_enter_block_until>:
20000160:	f04f 4150 	mov.w	r1, #3489660928	@ 0xd0000000
20000164:	e92d 41f0 	stmdb	sp!, {r4, r5, r6, r7, r8, lr}
20000168:	2700      	movs	r7, #0
2000016a:	4604      	mov	r4, r0
2000016c:	4616      	mov	r6, r2
2000016e:	461d      	mov	r5, r3
20000170:	f8d1 8000 	ldr.w	r8, [r1]
20000174:	e008      	b.n	20000188 <mutex_enter_block_until+0x28>
20000176:	e8c1 7f8f 	stlb	r7, [r1]
2000017a:	f38c 8810 	msr	PRIMASK, ip
2000017e:	4630      	mov	r0, r6
20000180:	4629      	mov	r1, r5
20000182:	f001 f891 	bl	200012a8 <__best_effort_wfe_or_timeout_veneer>
20000186:	b9e8      	cbnz	r0, 200001c4 <mutex_enter_block_until+0x64>
20000188:	6821      	ldr	r1, [r4, #0]
2000018a:	f3ef 8c10 	mrs	ip, PRIMASK
2000018e:	b672      	cpsid	i
20000190:	e8d1 2fcf 	ldaexb	r2, [r1]
20000194:	2301      	movs	r3, #1
20000196:	2a00      	cmp	r2, #0
20000198:	d1fa      	bne.n	20000190 <mutex_enter_block_until+0x30>
2000019a:	e8c1 3f42 	strexb	r2, r3, [r1]
2000019e:	2a00      	cmp	r2, #0
200001a0:	d1f6      	bne.n	20000190 <mutex_enter_block_until+0x30>
200001a2:	f3bf 8f5f 	dmb	sy
200001a6:	f994 3004 	ldrsb.w	r3, [r4, #4]
200001aa:	6821      	ldr	r1, [r4, #0]
200001ac:	2b00      	cmp	r3, #0
200001ae:	dae2      	bge.n	20000176 <mutex_enter_block_until+0x16>
200001b0:	2300      	movs	r3, #0
200001b2:	f884 8004 	strb.w	r8, [r4, #4]
200001b6:	e8c1 3f8f 	stlb	r3, [r1]
200001ba:	f38c 8810 	msr	PRIMASK, ip
200001be:	2001      	movs	r0, #1
200001c0:	e8bd 81f0 	ldmia.w	sp!, {r4, r5, r6, r7, r8, pc}
200001c4:	2000      	movs	r0, #0
200001c6:	e8bd 81f0 	ldmia.w	sp!, {r4, r5, r6, r7, r8, pc}
200001ca:	bf00      	nop

200001cc <mutex_try_enter_block_until>:
200001cc:	b530      	push	{r4, r5, lr}
200001ce:	6804      	ldr	r4, [r0, #0]
200001d0:	f3ef 8c10 	mrs	ip, PRIMASK
200001d4:	b672      	cpsid	i
200001d6:	e8d4 efcf 	ldaexb	lr, [r4]
200001da:	2501      	movs	r5, #1
200001dc:	f1be 0f00 	cmp.w	lr, #0
200001e0:	d1f9      	bne.n	200001d6 <mutex_try_enter_block_until+0xa>
200001e2:	e8c4 5f4e 	strexb	lr, r5, [r4]
200001e6:	f1be 0f00 	cmp.w	lr, #0
200001ea:	d1f4      	bne.n	200001d6 <mutex_try_enter_block_until+0xa>
200001ec:	f3bf 8f5f 	dmb	sy
200001f0:	f990 4004 	ldrsb.w	r4, [r0, #4]
200001f4:	6805      	ldr	r5, [r0, #0]
200001f6:	2c00      	cmp	r4, #0
200001f8:	db10      	blt.n	2000021c <mutex_try_enter_block_until+0x50>
200001fa:	2100      	movs	r1, #0
200001fc:	e8c5 1f8f 	stlb	r1, [r5]
20000200:	f38c 8810 	msr	PRIMASK, ip
20000204:	f04f 4550 	mov.w	r5, #3489660928	@ 0xd0000000
20000208:	f995 5000 	ldrsb.w	r5, [r5]
2000020c:	42a5      	cmp	r5, r4
2000020e:	d101      	bne.n	20000214 <mutex_try_enter_block_until+0x48>
20000210:	4608      	mov	r0, r1
20000212:	bd30      	pop	{r4, r5, pc}
20000214:	e8bd 4030 	ldmia.w	sp!, {r4, r5, lr}
20000218:	f7ff bfa2 	b.w	20000160 <mutex_enter_block_until>
2000021c:	f04f 4250 	mov.w	r2, #3489660928	@ 0xd0000000
20000220:	6812      	ldr	r2, [r2, #0]
20000222:	2300      	movs	r3, #0
20000224:	7102      	strb	r2, [r0, #4]
20000226:	e8c5 3f8f 	stlb	r3, [r5]
2000022a:	f38c 8810 	msr	PRIMASK, ip
2000022e:	2001      	movs	r0, #1
20000230:	bd30      	pop	{r4, r5, pc}
20000232:	bf00      	nop

20000234 <mutex_enter_timeout_ms>:
20000234:	b570      	push	{r4, r5, r6, lr}
20000236:	4605      	mov	r5, r0
20000238:	460c      	mov	r4, r1
2000023a:	f001 f829 	bl	20001290 <__time_us_64_veneer>
2000023e:	4602      	mov	r2, r0
20000240:	460b      	mov	r3, r1
20000242:	f44f 707a 	mov.w	r0, #1000	@ 0x3e8
20000246:	f04f 3eff 	mov.w	lr, #4294967295
2000024a:	f06f 4c00 	mvn.w	ip, #2147483648	@ 0x80000000
2000024e:	fbe4 2300 	umlal	r2, r3, r4, r0
20000252:	4596      	cmp	lr, r2
20000254:	eb7c 0103 	sbcs.w	r1, ip, r3
20000258:	bf38      	it	cc
2000025a:	4672      	movcc	r2, lr
2000025c:	4628      	mov	r0, r5
2000025e:	e8bd 4070 	ldmia.w	sp!, {r4, r5, r6, lr}
20000262:	bf38      	it	cc
20000264:	4663      	movcc	r3, ip
20000266:	f7ff bf7b 	b.w	20000160 <mutex_enter_block_until>
2000026a:	bf00      	nop

2000026c <mutex_exit>:
2000026c:	6803      	ldr	r3, [r0, #0]
2000026e:	f3ef 8210 	mrs	r2, PRIMASK
20000272:	b672      	cpsid	i
20000274:	e8d3 cfcf 	ldaexb	ip, [r3]
20000278:	2101      	movs	r1, #1
2000027a:	f1bc 0f00 	cmp.w	ip, #0
2000027e:	d1f9      	bne.n	20000274 <mutex_exit+0x8>
20000280:	e8c3 1f4c 	strexb	ip, r1, [r3]
20000284:	f1bc 0f00 	cmp.w	ip, #0
20000288:	d1f4      	bne.n	20000274 <mutex_exit+0x8>
2000028a:	f3bf 8f5f 	dmb	sy
2000028e:	f04f 0cff 	mov.w	ip, #255	@ 0xff
20000292:	2300      	movs	r3, #0
20000294:	6801      	ldr	r1, [r0, #0]
20000296:	f880 c004 	strb.w	ip, [r0, #4]
2000029a:	e8c1 3f8f 	stlb	r3, [r1]
2000029e:	f382 8810 	msr	PRIMASK, r2
200002a2:	bf40      	sev
200002a4:	4770      	bx	lr
200002a6:	bf00      	nop

200002a8 <reset_non_control_endpoints>:
200002a8:	2100      	movs	r1, #0
200002aa:	b508      	push	{r3, lr}
200002ac:	4b13      	ldr	r3, [pc, #76]	@ (200002fc <reset_non_control_endpoints+0x54>)
200002ae:	f44f 7270 	mov.w	r2, #960	@ 0x3c0
200002b2:	6099      	str	r1, [r3, #8]
200002b4:	4812      	ldr	r0, [pc, #72]	@ (20000300 <reset_non_control_endpoints+0x58>)
200002b6:	60d9      	str	r1, [r3, #12]
200002b8:	6119      	str	r1, [r3, #16]
200002ba:	6159      	str	r1, [r3, #20]
200002bc:	6199      	str	r1, [r3, #24]
200002be:	61d9      	str	r1, [r3, #28]
200002c0:	6219      	str	r1, [r3, #32]
200002c2:	6259      	str	r1, [r3, #36]	@ 0x24
200002c4:	6299      	str	r1, [r3, #40]	@ 0x28
200002c6:	62d9      	str	r1, [r3, #44]	@ 0x2c
200002c8:	6319      	str	r1, [r3, #48]	@ 0x30
200002ca:	6359      	str	r1, [r3, #52]	@ 0x34
200002cc:	6399      	str	r1, [r3, #56]	@ 0x38
200002ce:	63d9      	str	r1, [r3, #60]	@ 0x3c
200002d0:	6419      	str	r1, [r3, #64]	@ 0x40
200002d2:	6459      	str	r1, [r3, #68]	@ 0x44
200002d4:	6499      	str	r1, [r3, #72]	@ 0x48
200002d6:	64d9      	str	r1, [r3, #76]	@ 0x4c
200002d8:	6519      	str	r1, [r3, #80]	@ 0x50
200002da:	6559      	str	r1, [r3, #84]	@ 0x54
200002dc:	6599      	str	r1, [r3, #88]	@ 0x58
200002de:	65d9      	str	r1, [r3, #92]	@ 0x5c
200002e0:	6619      	str	r1, [r3, #96]	@ 0x60
200002e2:	6659      	str	r1, [r3, #100]	@ 0x64
200002e4:	6699      	str	r1, [r3, #104]	@ 0x68
200002e6:	66d9      	str	r1, [r3, #108]	@ 0x6c
200002e8:	6719      	str	r1, [r3, #112]	@ 0x70
200002ea:	6759      	str	r1, [r3, #116]	@ 0x74
200002ec:	6799      	str	r1, [r3, #120]	@ 0x78
200002ee:	67d9      	str	r1, [r3, #124]	@ 0x7c
200002f0:	f000 ffd2 	bl	20001298 <__memset_veneer>
200002f4:	4b03      	ldr	r3, [pc, #12]	@ (20000304 <reset_non_control_endpoints+0x5c>)
200002f6:	4a04      	ldr	r2, [pc, #16]	@ (20000308 <reset_non_control_endpoints+0x60>)
200002f8:	601a      	str	r2, [r3, #0]
200002fa:	bd08      	pop	{r3, pc}
200002fc:	50100000 	.word	0x50100000
20000300:	20002220 	.word	0x20002220
20000304:	200025e8 	.word	0x200025e8
20000308:	50100180 	.word	0x50100180

2000030c <hw_handle_buff_status>:
2000030c:	e92d 4ff0 	stmdb	sp!, {r4, r5, r6, r7, r8, r9, sl, fp, lr}
20000310:	4b1f      	ldr	r3, [pc, #124]	@ (20000390 <hw_handle_buff_status+0x84>)
20000312:	b085      	sub	sp, #20
20000314:	f8d3 a058 	ldr.w	sl, [r3, #88]	@ 0x58
20000318:	f1ba 0f00 	cmp.w	sl, #0
2000031c:	d022      	beq.n	20000364 <hw_handle_buff_status+0x58>
2000031e:	2400      	movs	r4, #0
20000320:	2501      	movs	r5, #1
20000322:	f44f 69e0 	mov.w	r9, #1792	@ 0x700
20000326:	f8df 8070 	ldr.w	r8, [pc, #112]	@ 20000398 <hw_handle_buff_status+0x8c>
2000032a:	4f1a      	ldr	r7, [pc, #104]	@ (20000394 <hw_handle_buff_status+0x88>)
2000032c:	e001      	b.n	20000332 <hw_handle_buff_status+0x26>
2000032e:	2c20      	cmp	r4, #32
20000330:	d018      	beq.n	20000364 <hw_handle_buff_status+0x58>
20000332:	ea0a 0205 	and.w	r2, sl, r5
20000336:	1c61      	adds	r1, r4, #1
20000338:	4623      	mov	r3, r4
2000033a:	46ab      	mov	fp, r5
2000033c:	b2cc      	uxtb	r4, r1
2000033e:	006d      	lsls	r5, r5, #1
20000340:	2a00      	cmp	r2, #0
20000342:	d0f4      	beq.n	2000032e <hw_handle_buff_status+0x22>
20000344:	f004 0201 	and.w	r2, r4, #1
20000348:	f003 06fe 	and.w	r6, r3, #254	@ 0xfe
2000034c:	4416      	add	r6, r2
2000034e:	eb07 1646 	add.w	r6, r7, r6, lsl #5
20000352:	4630      	mov	r0, r6
20000354:	f8c8 b058 	str.w	fp, [r8, #88]	@ 0x58
20000358:	f000 fc0a 	bl	20000b70 <hw_endpoint_xfer_continue>
2000035c:	b928      	cbnz	r0, 2000036a <hw_handle_buff_status+0x5e>
2000035e:	ea3a 0a0b 	bics.w	sl, sl, fp
20000362:	d1e4      	bne.n	2000032e <hw_handle_buff_status+0x22>
20000364:	b005      	add	sp, #20
20000366:	e8bd 8ff0 	ldmia.w	sp!, {r4, r5, r6, r7, r8, r9, sl, fp, pc}
2000036a:	2300      	movs	r3, #0
2000036c:	f88d 3009 	strb.w	r3, [sp, #9]
20000370:	78b3      	ldrb	r3, [r6, #2]
20000372:	a801      	add	r0, sp, #4
20000374:	f88d 3008 	strb.w	r3, [sp, #8]
20000378:	8af3      	ldrh	r3, [r6, #22]
2000037a:	2101      	movs	r1, #1
2000037c:	f8ad 9004 	strh.w	r9, [sp, #4]
20000380:	9303      	str	r3, [sp, #12]
20000382:	f000 fc13 	bl	20000bac <dcd_event_handler>
20000386:	4630      	mov	r0, r6
20000388:	f000 fb98 	bl	20000abc <hw_endpoint_reset_transfer>
2000038c:	e7e7      	b.n	2000035e <hw_handle_buff_status+0x52>
2000038e:	bf00      	nop
20000390:	50110000 	.word	0x50110000
20000394:	200021e0 	.word	0x200021e0
20000398:	50113000 	.word	0x50113000

2000039c <dcd_rp2040_irq>:
2000039c:	b5f0      	push	{r4, r5, r6, r7, lr}
2000039e:	4bbb      	ldr	r3, [pc, #748]	@ (2000068c <dcd_rp2040_irq+0x2f0>)
200003a0:	b085      	sub	sp, #20
200003a2:	f8d3 5098 	ldr.w	r5, [r3, #152]	@ 0x98
200003a6:	f415 3600 	ands.w	r6, r5, #131072	@ 0x20000
200003aa:	d074      	beq.n	20000496 <dcd_rp2040_irq+0xfa>
200003ac:	4bb8      	ldr	r3, [pc, #736]	@ (20000690 <dcd_rp2040_irq+0x2f4>)
200003ae:	4cb9      	ldr	r4, [pc, #740]	@ (20000694 <dcd_rp2040_irq+0x2f8>)
200003b0:	6a99      	ldr	r1, [r3, #40]	@ 0x28
200003b2:	f894 303b 	ldrb.w	r3, [r4, #59]	@ 0x3b
200003b6:	4ab8      	ldr	r2, [pc, #736]	@ (20000698 <dcd_rp2040_irq+0x2fc>)
200003b8:	2b02      	cmp	r3, #2
200003ba:	6011      	str	r1, [r2, #0]
200003bc:	f000 80d4 	beq.w	20000568 <dcd_rp2040_irq+0x1cc>
200003c0:	2600      	movs	r6, #0
200003c2:	f894 307b 	ldrb.w	r3, [r4, #123]	@ 0x7b
200003c6:	2b02      	cmp	r3, #2
200003c8:	f000 813b 	beq.w	20000642 <dcd_rp2040_irq+0x2a6>
200003cc:	f894 30bb 	ldrb.w	r3, [r4, #187]	@ 0xbb
200003d0:	2b02      	cmp	r3, #2
200003d2:	f000 817d 	beq.w	200006d0 <dcd_rp2040_irq+0x334>
200003d6:	f894 30fb 	ldrb.w	r3, [r4, #251]	@ 0xfb
200003da:	2b02      	cmp	r3, #2
200003dc:	f000 816c 	beq.w	200006b8 <dcd_rp2040_irq+0x31c>
200003e0:	f894 313b 	ldrb.w	r3, [r4, #315]	@ 0x13b
200003e4:	2b02      	cmp	r3, #2
200003e6:	f000 8144 	beq.w	20000672 <dcd_rp2040_irq+0x2d6>
200003ea:	f894 317b 	ldrb.w	r3, [r4, #379]	@ 0x17b
200003ee:	2b02      	cmp	r3, #2
200003f0:	f000 8133 	beq.w	2000065a <dcd_rp2040_irq+0x2be>
200003f4:	f894 31bb 	ldrb.w	r3, [r4, #443]	@ 0x1bb
200003f8:	2b02      	cmp	r3, #2
200003fa:	f000 81b6 	beq.w	2000076a <dcd_rp2040_irq+0x3ce>
200003fe:	f894 31fb 	ldrb.w	r3, [r4, #507]	@ 0x1fb
20000402:	2b02      	cmp	r3, #2
20000404:	f000 81a6 	beq.w	20000754 <dcd_rp2040_irq+0x3b8>
20000408:	f894 323b 	ldrb.w	r3, [r4, #571]	@ 0x23b
2000040c:	2b02      	cmp	r3, #2
2000040e:	f000 8196 	beq.w	2000073e <dcd_rp2040_irq+0x3a2>
20000412:	f894 327b 	ldrb.w	r3, [r4, #635]	@ 0x27b
20000416:	2b02      	cmp	r3, #2
20000418:	f000 8186 	beq.w	20000728 <dcd_rp2040_irq+0x38c>
2000041c:	f894 32bb 	ldrb.w	r3, [r4, #699]	@ 0x2bb
20000420:	2b02      	cmp	r3, #2
20000422:	f000 8176 	beq.w	20000712 <dcd_rp2040_irq+0x376>
20000426:	f894 32fb 	ldrb.w	r3, [r4, #763]	@ 0x2fb
2000042a:	2b02      	cmp	r3, #2
2000042c:	f000 8166 	beq.w	200006fc <dcd_rp2040_irq+0x360>
20000430:	f894 333b 	ldrb.w	r3, [r4, #827]	@ 0x33b
20000434:	2b02      	cmp	r3, #2
20000436:	f000 8156 	beq.w	200006e6 <dcd_rp2040_irq+0x34a>
2000043a:	f894 337b 	ldrb.w	r3, [r4, #891]	@ 0x37b
2000043e:	2b02      	cmp	r3, #2
20000440:	f000 80a4 	beq.w	2000058c <dcd_rp2040_irq+0x1f0>
20000444:	f894 33bb 	ldrb.w	r3, [r4, #955]	@ 0x3bb
20000448:	2b02      	cmp	r3, #2
2000044a:	f000 8199 	beq.w	20000780 <dcd_rp2040_irq+0x3e4>
2000044e:	f894 33fb 	ldrb.w	r3, [r4, #1019]	@ 0x3fb
20000452:	2b02      	cmp	r3, #2
20000454:	f000 80b4 	beq.w	200005c0 <dcd_rp2040_irq+0x224>
20000458:	b93e      	cbnz	r6, 2000046a <dcd_rp2040_irq+0xce>
2000045a:	4b90      	ldr	r3, [pc, #576]	@ (2000069c <dcd_rp2040_irq+0x300>)
2000045c:	781b      	ldrb	r3, [r3, #0]
2000045e:	b923      	cbnz	r3, 2000046a <dcd_rp2040_irq+0xce>
20000460:	f44f 3200 	mov.w	r2, #131072	@ 0x20000
20000464:	4b8e      	ldr	r3, [pc, #568]	@ (200006a0 <dcd_rp2040_irq+0x304>)
20000466:	f8c3 2090 	str.w	r2, [r3, #144]	@ 0x90
2000046a:	f44f 7240 	mov.w	r2, #768	@ 0x300
2000046e:	4b87      	ldr	r3, [pc, #540]	@ (2000068c <dcd_rp2040_irq+0x2f0>)
20000470:	2101      	movs	r1, #1
20000472:	6c9b      	ldr	r3, [r3, #72]	@ 0x48
20000474:	a801      	add	r0, sp, #4
20000476:	f3c3 030a 	ubfx	r3, r3, #0, #11
2000047a:	f8ad 2004 	strh.w	r2, [sp, #4]
2000047e:	9302      	str	r3, [sp, #8]
20000480:	f000 fb94 	bl	20000bac <dcd_event_handler>
20000484:	06ea      	lsls	r2, r5, #27
20000486:	f44f 3600 	mov.w	r6, #131072	@ 0x20000
2000048a:	4c86      	ldr	r4, [pc, #536]	@ (200006a4 <dcd_rp2040_irq+0x308>)
2000048c:	d507      	bpl.n	2000049e <dcd_rp2040_irq+0x102>
2000048e:	f7ff ff3d 	bl	2000030c <hw_handle_buff_status>
20000492:	4626      	mov	r6, r4
20000494:	e003      	b.n	2000049e <dcd_rp2040_irq+0x102>
20000496:	06ea      	lsls	r2, r5, #27
20000498:	f04f 0410 	mov.w	r4, #16
2000049c:	d4f7      	bmi.n	2000048e <dcd_rp2040_irq+0xf2>
2000049e:	03eb      	lsls	r3, r5, #15
200004a0:	d522      	bpl.n	200004e8 <dcd_rp2040_irq+0x14c>
200004a2:	4c7c      	ldr	r4, [pc, #496]	@ (20000694 <dcd_rp2040_irq+0x2f8>)
200004a4:	f446 3680 	orr.w	r6, r6, #65536	@ 0x10000
200004a8:	7ea3      	ldrb	r3, [r4, #26]
200004aa:	2b00      	cmp	r3, #0
200004ac:	f040 8099 	bne.w	200005e2 <dcd_rp2040_irq+0x246>
200004b0:	2301      	movs	r3, #1
200004b2:	f894 203a 	ldrb.w	r2, [r4, #58]	@ 0x3a
200004b6:	70e3      	strb	r3, [r4, #3]
200004b8:	2a00      	cmp	r2, #0
200004ba:	f040 80ad 	bne.w	20000618 <dcd_rp2040_irq+0x27c>
200004be:	2301      	movs	r3, #1
200004c0:	f44f 61c0 	mov.w	r1, #1536	@ 0x600
200004c4:	4a78      	ldr	r2, [pc, #480]	@ (200006a8 <dcd_rp2040_irq+0x30c>)
200004c6:	f884 3023 	strb.w	r3, [r4, #35]	@ 0x23
200004ca:	f8ad 1004 	strh.w	r1, [sp, #4]
200004ce:	e892 0003 	ldmia.w	r2, {r0, r1}
200004d2:	aa04      	add	r2, sp, #16
200004d4:	e902 0003 	stmdb	r2, {r0, r1}
200004d8:	4619      	mov	r1, r3
200004da:	a801      	add	r0, sp, #4
200004dc:	f000 fb66 	bl	20000bac <dcd_event_handler>
200004e0:	f44f 3200 	mov.w	r2, #131072	@ 0x20000
200004e4:	4b6e      	ldr	r3, [pc, #440]	@ (200006a0 <dcd_rp2040_irq+0x304>)
200004e6:	651a      	str	r2, [r3, #80]	@ 0x50
200004e8:	04e9      	lsls	r1, r5, #19
200004ea:	d408      	bmi.n	200004fe <dcd_rp2040_irq+0x162>
200004ec:	046a      	lsls	r2, r5, #17
200004ee:	d41d      	bmi.n	2000052c <dcd_rp2040_irq+0x190>
200004f0:	042b      	lsls	r3, r5, #16
200004f2:	d42a      	bmi.n	2000054a <dcd_rp2040_irq+0x1ae>
200004f4:	42ae      	cmp	r6, r5
200004f6:	f040 81c5 	bne.w	20000884 <dcd_rp2040_irq+0x4e8>
200004fa:	b005      	add	sp, #20
200004fc:	bdf0      	pop	{r4, r5, r6, r7, pc}
200004fe:	2400      	movs	r4, #0
20000500:	4b62      	ldr	r3, [pc, #392]	@ (2000068c <dcd_rp2040_irq+0x2f0>)
20000502:	f446 5680 	orr.w	r6, r6, #4096	@ 0x1000
20000506:	601c      	str	r4, [r3, #0]
20000508:	f7ff fece 	bl	200002a8 <reset_non_control_endpoints>
2000050c:	f44f 7380 	mov.w	r3, #256	@ 0x100
20000510:	2101      	movs	r1, #1
20000512:	a801      	add	r0, sp, #4
20000514:	f8ad 3004 	strh.w	r3, [sp, #4]
20000518:	f88d 4008 	strb.w	r4, [sp, #8]
2000051c:	f000 fb46 	bl	20000bac <dcd_event_handler>
20000520:	f44f 2200 	mov.w	r2, #524288	@ 0x80000
20000524:	4b5e      	ldr	r3, [pc, #376]	@ (200006a0 <dcd_rp2040_irq+0x304>)
20000526:	651a      	str	r2, [r3, #80]	@ 0x50
20000528:	046a      	lsls	r2, r5, #17
2000052a:	d5e1      	bpl.n	200004f0 <dcd_rp2040_irq+0x154>
2000052c:	f44f 6380 	mov.w	r3, #1024	@ 0x400
20000530:	2101      	movs	r1, #1
20000532:	a801      	add	r0, sp, #4
20000534:	f8ad 3004 	strh.w	r3, [sp, #4]
20000538:	f000 fb38 	bl	20000bac <dcd_event_handler>
2000053c:	2210      	movs	r2, #16
2000053e:	4b58      	ldr	r3, [pc, #352]	@ (200006a0 <dcd_rp2040_irq+0x304>)
20000540:	f446 4680 	orr.w	r6, r6, #16384	@ 0x4000
20000544:	651a      	str	r2, [r3, #80]	@ 0x50
20000546:	042b      	lsls	r3, r5, #16
20000548:	d5d4      	bpl.n	200004f4 <dcd_rp2040_irq+0x158>
2000054a:	f44f 63a0 	mov.w	r3, #1280	@ 0x500
2000054e:	2101      	movs	r1, #1
20000550:	a801      	add	r0, sp, #4
20000552:	f8ad 3004 	strh.w	r3, [sp, #4]
20000556:	f000 fb29 	bl	20000bac <dcd_event_handler>
2000055a:	f44f 6200 	mov.w	r2, #2048	@ 0x800
2000055e:	4b50      	ldr	r3, [pc, #320]	@ (200006a0 <dcd_rp2040_irq+0x304>)
20000560:	f446 4600 	orr.w	r6, r6, #32768	@ 0x8000
20000564:	651a      	str	r2, [r3, #80]	@ 0x50
20000566:	e7c5      	b.n	200004f4 <dcd_rp2040_irq+0x158>
20000568:	f894 603a 	ldrb.w	r6, [r4, #58]	@ 0x3a
2000056c:	2e00      	cmp	r6, #0
2000056e:	f43f af28 	beq.w	200003c2 <dcd_rp2040_irq+0x26>
20000572:	f894 303c 	ldrb.w	r3, [r4, #60]	@ 0x3c
20000576:	2b00      	cmp	r3, #0
20000578:	f43f af23 	beq.w	200003c2 <dcd_rp2040_irq+0x26>
2000057c:	2300      	movs	r3, #0
2000057e:	f104 0020 	add.w	r0, r4, #32
20000582:	f884 303c 	strb.w	r3, [r4, #60]	@ 0x3c
20000586:	f000 fac1 	bl	20000b0c <hw_endpoint_start_next_buffer>
2000058a:	e71a      	b.n	200003c2 <dcd_rp2040_irq+0x26>
2000058c:	f894 737a 	ldrb.w	r7, [r4, #890]	@ 0x37a
20000590:	2f00      	cmp	r7, #0
20000592:	f43f af57 	beq.w	20000444 <dcd_rp2040_irq+0xa8>
20000596:	f894 337c 	ldrb.w	r3, [r4, #892]	@ 0x37c
2000059a:	2b00      	cmp	r3, #0
2000059c:	f040 8164 	bne.w	20000868 <dcd_rp2040_irq+0x4cc>
200005a0:	f894 33bb 	ldrb.w	r3, [r4, #955]	@ 0x3bb
200005a4:	2b02      	cmp	r3, #2
200005a6:	f040 80f4 	bne.w	20000792 <dcd_rp2040_irq+0x3f6>
200005aa:	f894 33ba 	ldrb.w	r3, [r4, #954]	@ 0x3ba
200005ae:	2b00      	cmp	r3, #0
200005b0:	f040 80eb 	bne.w	2000078a <dcd_rp2040_irq+0x3ee>
200005b4:	f894 33fb 	ldrb.w	r3, [r4, #1019]	@ 0x3fb
200005b8:	2b02      	cmp	r3, #2
200005ba:	f47f af56 	bne.w	2000046a <dcd_rp2040_irq+0xce>
200005be:	463e      	mov	r6, r7
200005c0:	f894 33fa 	ldrb.w	r3, [r4, #1018]	@ 0x3fa
200005c4:	2b00      	cmp	r3, #0
200005c6:	f43f af47 	beq.w	20000458 <dcd_rp2040_irq+0xbc>
200005ca:	f894 33fc 	ldrb.w	r3, [r4, #1020]	@ 0x3fc
200005ce:	2b00      	cmp	r3, #0
200005d0:	f43f af4b 	beq.w	2000046a <dcd_rp2040_irq+0xce>
200005d4:	2300      	movs	r3, #0
200005d6:	4835      	ldr	r0, [pc, #212]	@ (200006ac <dcd_rp2040_irq+0x310>)
200005d8:	f884 33fc 	strb.w	r3, [r4, #1020]	@ 0x3fc
200005dc:	f000 fa96 	bl	20000b0c <hw_endpoint_start_next_buffer>
200005e0:	e743      	b.n	2000046a <dcd_rp2040_irq+0xce>
200005e2:	2102      	movs	r1, #2
200005e4:	4b32      	ldr	r3, [pc, #200]	@ (200006b0 <dcd_rp2040_irq+0x314>)
200005e6:	4a29      	ldr	r2, [pc, #164]	@ (2000068c <dcd_rp2040_irq+0x2f0>)
200005e8:	6619      	str	r1, [r3, #96]	@ 0x60
200005ea:	6e53      	ldr	r3, [r2, #100]	@ 0x64
200005ec:	079f      	lsls	r7, r3, #30
200005ee:	d5fc      	bpl.n	200005ea <dcd_rp2040_irq+0x24e>
200005f0:	f44f 5240 	mov.w	r2, #12288	@ 0x3000
200005f4:	2100      	movs	r1, #0
200005f6:	4827      	ldr	r0, [pc, #156]	@ (20000694 <dcd_rp2040_irq+0x2f8>)
200005f8:	f000 fa66 	bl	20000ac8 <_hw_endpoint_buffer_control_update32>
200005fc:	4825      	ldr	r0, [pc, #148]	@ (20000694 <dcd_rp2040_irq+0x2f8>)
200005fe:	f000 fa5d 	bl	20000abc <hw_endpoint_reset_transfer>
20000602:	2202      	movs	r2, #2
20000604:	4b26      	ldr	r3, [pc, #152]	@ (200006a0 <dcd_rp2040_irq+0x304>)
20000606:	665a      	str	r2, [r3, #100]	@ 0x64
20000608:	661a      	str	r2, [r3, #96]	@ 0x60
2000060a:	2301      	movs	r3, #1
2000060c:	f894 203a 	ldrb.w	r2, [r4, #58]	@ 0x3a
20000610:	70e3      	strb	r3, [r4, #3]
20000612:	2a00      	cmp	r2, #0
20000614:	f43f af53 	beq.w	200004be <dcd_rp2040_irq+0x122>
20000618:	4a25      	ldr	r2, [pc, #148]	@ (200006b0 <dcd_rp2040_irq+0x314>)
2000061a:	6613      	str	r3, [r2, #96]	@ 0x60
2000061c:	f5a2 5200 	sub.w	r2, r2, #8192	@ 0x2000
20000620:	6e53      	ldr	r3, [r2, #100]	@ 0x64
20000622:	07d8      	lsls	r0, r3, #31
20000624:	d5fc      	bpl.n	20000620 <dcd_rp2040_irq+0x284>
20000626:	f44f 5240 	mov.w	r2, #12288	@ 0x3000
2000062a:	2100      	movs	r1, #0
2000062c:	4821      	ldr	r0, [pc, #132]	@ (200006b4 <dcd_rp2040_irq+0x318>)
2000062e:	f000 fa4b 	bl	20000ac8 <_hw_endpoint_buffer_control_update32>
20000632:	4820      	ldr	r0, [pc, #128]	@ (200006b4 <dcd_rp2040_irq+0x318>)
20000634:	f000 fa42 	bl	20000abc <hw_endpoint_reset_transfer>
20000638:	2201      	movs	r2, #1
2000063a:	4b19      	ldr	r3, [pc, #100]	@ (200006a0 <dcd_rp2040_irq+0x304>)
2000063c:	665a      	str	r2, [r3, #100]	@ 0x64
2000063e:	661a      	str	r2, [r3, #96]	@ 0x60
20000640:	e73d      	b.n	200004be <dcd_rp2040_irq+0x122>
20000642:	f894 707a 	ldrb.w	r7, [r4, #122]	@ 0x7a
20000646:	2f00      	cmp	r7, #0
20000648:	f43f aec0 	beq.w	200003cc <dcd_rp2040_irq+0x30>
2000064c:	f894 307c 	ldrb.w	r3, [r4, #124]	@ 0x7c
20000650:	2b00      	cmp	r3, #0
20000652:	f040 8101 	bne.w	20000858 <dcd_rp2040_irq+0x4bc>
20000656:	463e      	mov	r6, r7
20000658:	e6b8      	b.n	200003cc <dcd_rp2040_irq+0x30>
2000065a:	f894 717a 	ldrb.w	r7, [r4, #378]	@ 0x17a
2000065e:	2f00      	cmp	r7, #0
20000660:	f43f aec8 	beq.w	200003f4 <dcd_rp2040_irq+0x58>
20000664:	f894 317c 	ldrb.w	r3, [r4, #380]	@ 0x17c
20000668:	2b00      	cmp	r3, #0
2000066a:	f040 80ed 	bne.w	20000848 <dcd_rp2040_irq+0x4ac>
2000066e:	463e      	mov	r6, r7
20000670:	e6c0      	b.n	200003f4 <dcd_rp2040_irq+0x58>
20000672:	f894 713a 	ldrb.w	r7, [r4, #314]	@ 0x13a
20000676:	2f00      	cmp	r7, #0
20000678:	f43f aeb7 	beq.w	200003ea <dcd_rp2040_irq+0x4e>
2000067c:	f894 313c 	ldrb.w	r3, [r4, #316]	@ 0x13c
20000680:	2b00      	cmp	r3, #0
20000682:	f040 80d9 	bne.w	20000838 <dcd_rp2040_irq+0x49c>
20000686:	463e      	mov	r6, r7
20000688:	e6af      	b.n	200003ea <dcd_rp2040_irq+0x4e>
2000068a:	bf00      	nop
2000068c:	50110000 	.word	0x50110000
20000690:	400b0000 	.word	0x400b0000
20000694:	200021e0 	.word	0x200021e0
20000698:	200021d0 	.word	0x200021d0
2000069c:	20002655 	.word	0x20002655
200006a0:	50113000 	.word	0x50113000
200006a4:	00020010 	.word	0x00020010
200006a8:	50100000 	.word	0x50100000
200006ac:	200025c0 	.word	0x200025c0
200006b0:	50112000 	.word	0x50112000
200006b4:	20002200 	.word	0x20002200
200006b8:	f894 70fa 	ldrb.w	r7, [r4, #250]	@ 0xfa
200006bc:	2f00      	cmp	r7, #0
200006be:	f43f ae8f 	beq.w	200003e0 <dcd_rp2040_irq+0x44>
200006c2:	f894 30fc 	ldrb.w	r3, [r4, #252]	@ 0xfc
200006c6:	2b00      	cmp	r3, #0
200006c8:	f040 808e 	bne.w	200007e8 <dcd_rp2040_irq+0x44c>
200006cc:	463e      	mov	r6, r7
200006ce:	e687      	b.n	200003e0 <dcd_rp2040_irq+0x44>
200006d0:	f894 70ba 	ldrb.w	r7, [r4, #186]	@ 0xba
200006d4:	2f00      	cmp	r7, #0
200006d6:	f43f ae7e 	beq.w	200003d6 <dcd_rp2040_irq+0x3a>
200006da:	f894 30bc 	ldrb.w	r3, [r4, #188]	@ 0xbc
200006de:	2b00      	cmp	r3, #0
200006e0:	d17a      	bne.n	200007d8 <dcd_rp2040_irq+0x43c>
200006e2:	463e      	mov	r6, r7
200006e4:	e677      	b.n	200003d6 <dcd_rp2040_irq+0x3a>
200006e6:	f894 733a 	ldrb.w	r7, [r4, #826]	@ 0x33a
200006ea:	2f00      	cmp	r7, #0
200006ec:	f43f aea5 	beq.w	2000043a <dcd_rp2040_irq+0x9e>
200006f0:	f894 333c 	ldrb.w	r3, [r4, #828]	@ 0x33c
200006f4:	2b00      	cmp	r3, #0
200006f6:	d157      	bne.n	200007a8 <dcd_rp2040_irq+0x40c>
200006f8:	463e      	mov	r6, r7
200006fa:	e69e      	b.n	2000043a <dcd_rp2040_irq+0x9e>
200006fc:	f894 72fa 	ldrb.w	r7, [r4, #762]	@ 0x2fa
20000700:	2f00      	cmp	r7, #0
20000702:	f43f ae95 	beq.w	20000430 <dcd_rp2040_irq+0x94>
20000706:	f894 32fc 	ldrb.w	r3, [r4, #764]	@ 0x2fc
2000070a:	2b00      	cmp	r3, #0
2000070c:	d15c      	bne.n	200007c8 <dcd_rp2040_irq+0x42c>
2000070e:	463e      	mov	r6, r7
20000710:	e68e      	b.n	20000430 <dcd_rp2040_irq+0x94>
20000712:	f894 72ba 	ldrb.w	r7, [r4, #698]	@ 0x2ba
20000716:	2f00      	cmp	r7, #0
20000718:	f43f ae85 	beq.w	20000426 <dcd_rp2040_irq+0x8a>
2000071c:	f894 32bc 	ldrb.w	r3, [r4, #700]	@ 0x2bc
20000720:	2b00      	cmp	r3, #0
20000722:	d149      	bne.n	200007b8 <dcd_rp2040_irq+0x41c>
20000724:	463e      	mov	r6, r7
20000726:	e67e      	b.n	20000426 <dcd_rp2040_irq+0x8a>
20000728:	f894 727a 	ldrb.w	r7, [r4, #634]	@ 0x27a
2000072c:	2f00      	cmp	r7, #0
2000072e:	f43f ae75 	beq.w	2000041c <dcd_rp2040_irq+0x80>
20000732:	f894 327c 	ldrb.w	r3, [r4, #636]	@ 0x27c
20000736:	2b00      	cmp	r3, #0
20000738:	d176      	bne.n	20000828 <dcd_rp2040_irq+0x48c>
2000073a:	463e      	mov	r6, r7
2000073c:	e66e      	b.n	2000041c <dcd_rp2040_irq+0x80>
2000073e:	f894 723a 	ldrb.w	r7, [r4, #570]	@ 0x23a
20000742:	2f00      	cmp	r7, #0
20000744:	f43f ae65 	beq.w	20000412 <dcd_rp2040_irq+0x76>
20000748:	f894 323c 	ldrb.w	r3, [r4, #572]	@ 0x23c
2000074c:	2b00      	cmp	r3, #0
2000074e:	d163      	bne.n	20000818 <dcd_rp2040_irq+0x47c>
20000750:	463e      	mov	r6, r7
20000752:	e65e      	b.n	20000412 <dcd_rp2040_irq+0x76>
20000754:	f894 71fa 	ldrb.w	r7, [r4, #506]	@ 0x1fa
20000758:	2f00      	cmp	r7, #0
2000075a:	f43f ae55 	beq.w	20000408 <dcd_rp2040_irq+0x6c>
2000075e:	f894 31fc 	ldrb.w	r3, [r4, #508]	@ 0x1fc
20000762:	2b00      	cmp	r3, #0
20000764:	d150      	bne.n	20000808 <dcd_rp2040_irq+0x46c>
20000766:	463e      	mov	r6, r7
20000768:	e64e      	b.n	20000408 <dcd_rp2040_irq+0x6c>
2000076a:	f894 71ba 	ldrb.w	r7, [r4, #442]	@ 0x1ba
2000076e:	2f00      	cmp	r7, #0
20000770:	f43f ae45 	beq.w	200003fe <dcd_rp2040_irq+0x62>
20000774:	f894 31bc 	ldrb.w	r3, [r4, #444]	@ 0x1bc
20000778:	2b00      	cmp	r3, #0
2000077a:	d13d      	bne.n	200007f8 <dcd_rp2040_irq+0x45c>
2000077c:	463e      	mov	r6, r7
2000077e:	e63e      	b.n	200003fe <dcd_rp2040_irq+0x62>
20000780:	f894 33ba 	ldrb.w	r3, [r4, #954]	@ 0x3ba
20000784:	2b00      	cmp	r3, #0
20000786:	f43f ae62 	beq.w	2000044e <dcd_rp2040_irq+0xb2>
2000078a:	f894 33bc 	ldrb.w	r3, [r4, #956]	@ 0x3bc
2000078e:	2b00      	cmp	r3, #0
20000790:	d171      	bne.n	20000876 <dcd_rp2040_irq+0x4da>
20000792:	f894 33fb 	ldrb.w	r3, [r4, #1019]	@ 0x3fb
20000796:	2b02      	cmp	r3, #2
20000798:	f47f ae67 	bne.w	2000046a <dcd_rp2040_irq+0xce>
2000079c:	f894 33fa 	ldrb.w	r3, [r4, #1018]	@ 0x3fa
200007a0:	2b00      	cmp	r3, #0
200007a2:	f43f ae62 	beq.w	2000046a <dcd_rp2040_irq+0xce>
200007a6:	e710      	b.n	200005ca <dcd_rp2040_irq+0x22e>
200007a8:	2300      	movs	r3, #0
200007aa:	4839      	ldr	r0, [pc, #228]	@ (20000890 <dcd_rp2040_irq+0x4f4>)
200007ac:	f884 333c 	strb.w	r3, [r4, #828]	@ 0x33c
200007b0:	463e      	mov	r6, r7
200007b2:	f000 f9ab 	bl	20000b0c <hw_endpoint_start_next_buffer>
200007b6:	e640      	b.n	2000043a <dcd_rp2040_irq+0x9e>
200007b8:	2300      	movs	r3, #0
200007ba:	4836      	ldr	r0, [pc, #216]	@ (20000894 <dcd_rp2040_irq+0x4f8>)
200007bc:	f884 32bc 	strb.w	r3, [r4, #700]	@ 0x2bc
200007c0:	463e      	mov	r6, r7
200007c2:	f000 f9a3 	bl	20000b0c <hw_endpoint_start_next_buffer>
200007c6:	e62e      	b.n	20000426 <dcd_rp2040_irq+0x8a>
200007c8:	2300      	movs	r3, #0
200007ca:	4833      	ldr	r0, [pc, #204]	@ (20000898 <dcd_rp2040_irq+0x4fc>)
200007cc:	f884 32fc 	strb.w	r3, [r4, #764]	@ 0x2fc
200007d0:	463e      	mov	r6, r7
200007d2:	f000 f99b 	bl	20000b0c <hw_endpoint_start_next_buffer>
200007d6:	e62b      	b.n	20000430 <dcd_rp2040_irq+0x94>
200007d8:	2300      	movs	r3, #0
200007da:	4830      	ldr	r0, [pc, #192]	@ (2000089c <dcd_rp2040_irq+0x500>)
200007dc:	f884 30bc 	strb.w	r3, [r4, #188]	@ 0xbc
200007e0:	463e      	mov	r6, r7
200007e2:	f000 f993 	bl	20000b0c <hw_endpoint_start_next_buffer>
200007e6:	e5f6      	b.n	200003d6 <dcd_rp2040_irq+0x3a>
200007e8:	2300      	movs	r3, #0
200007ea:	482d      	ldr	r0, [pc, #180]	@ (200008a0 <dcd_rp2040_irq+0x504>)
200007ec:	f884 30fc 	strb.w	r3, [r4, #252]	@ 0xfc
200007f0:	463e      	mov	r6, r7
200007f2:	f000 f98b 	bl	20000b0c <hw_endpoint_start_next_buffer>
200007f6:	e5f3      	b.n	200003e0 <dcd_rp2040_irq+0x44>
200007f8:	2300      	movs	r3, #0
200007fa:	482a      	ldr	r0, [pc, #168]	@ (200008a4 <dcd_rp2040_irq+0x508>)
200007fc:	f884 31bc 	strb.w	r3, [r4, #444]	@ 0x1bc
20000800:	463e      	mov	r6, r7
20000802:	f000 f983 	bl	20000b0c <hw_endpoint_start_next_buffer>
20000806:	e5fa      	b.n	200003fe <dcd_rp2040_irq+0x62>
20000808:	2300      	movs	r3, #0
2000080a:	4827      	ldr	r0, [pc, #156]	@ (200008a8 <dcd_rp2040_irq+0x50c>)
2000080c:	f884 31fc 	strb.w	r3, [r4, #508]	@ 0x1fc
20000810:	463e      	mov	r6, r7
20000812:	f000 f97b 	bl	20000b0c <hw_endpoint_start_next_buffer>
20000816:	e5f7      	b.n	20000408 <dcd_rp2040_irq+0x6c>
20000818:	2300      	movs	r3, #0
2000081a:	4824      	ldr	r0, [pc, #144]	@ (200008ac <dcd_rp2040_irq+0x510>)
2000081c:	f884 323c 	strb.w	r3, [r4, #572]	@ 0x23c
20000820:	463e      	mov	r6, r7
20000822:	f000 f973 	bl	20000b0c <hw_endpoint_start_next_buffer>
20000826:	e5f4      	b.n	20000412 <dcd_rp2040_irq+0x76>
20000828:	2300      	movs	r3, #0
2000082a:	4821      	ldr	r0, [pc, #132]	@ (200008b0 <dcd_rp2040_irq+0x514>)
2000082c:	f884 327c 	strb.w	r3, [r4, #636]	@ 0x27c
20000830:	463e      	mov	r6, r7
20000832:	f000 f96b 	bl	20000b0c <hw_endpoint_start_next_buffer>
20000836:	e5f1      	b.n	2000041c <dcd_rp2040_irq+0x80>
20000838:	2300      	movs	r3, #0
2000083a:	481e      	ldr	r0, [pc, #120]	@ (200008b4 <dcd_rp2040_irq+0x518>)
2000083c:	f884 313c 	strb.w	r3, [r4, #316]	@ 0x13c
20000840:	463e      	mov	r6, r7
20000842:	f000 f963 	bl	20000b0c <hw_endpoint_start_next_buffer>
20000846:	e5d0      	b.n	200003ea <dcd_rp2040_irq+0x4e>
20000848:	2300      	movs	r3, #0
2000084a:	481b      	ldr	r0, [pc, #108]	@ (200008b8 <dcd_rp2040_irq+0x51c>)
2000084c:	f884 317c 	strb.w	r3, [r4, #380]	@ 0x17c
20000850:	463e      	mov	r6, r7
20000852:	f000 f95b 	bl	20000b0c <hw_endpoint_start_next_buffer>
20000856:	e5cd      	b.n	200003f4 <dcd_rp2040_irq+0x58>
20000858:	2300      	movs	r3, #0
2000085a:	4818      	ldr	r0, [pc, #96]	@ (200008bc <dcd_rp2040_irq+0x520>)
2000085c:	f884 307c 	strb.w	r3, [r4, #124]	@ 0x7c
20000860:	463e      	mov	r6, r7
20000862:	f000 f953 	bl	20000b0c <hw_endpoint_start_next_buffer>
20000866:	e5b1      	b.n	200003cc <dcd_rp2040_irq+0x30>
20000868:	2300      	movs	r3, #0
2000086a:	4815      	ldr	r0, [pc, #84]	@ (200008c0 <dcd_rp2040_irq+0x524>)
2000086c:	f884 337c 	strb.w	r3, [r4, #892]	@ 0x37c
20000870:	f000 f94c 	bl	20000b0c <hw_endpoint_start_next_buffer>
20000874:	e694      	b.n	200005a0 <dcd_rp2040_irq+0x204>
20000876:	2300      	movs	r3, #0
20000878:	4812      	ldr	r0, [pc, #72]	@ (200008c4 <dcd_rp2040_irq+0x528>)
2000087a:	f884 33bc 	strb.w	r3, [r4, #956]	@ 0x3bc
2000087e:	f000 f945 	bl	20000b0c <hw_endpoint_start_next_buffer>
20000882:	e786      	b.n	20000792 <dcd_rp2040_irq+0x3f6>
20000884:	4810      	ldr	r0, [pc, #64]	@ (200008c8 <dcd_rp2040_irq+0x52c>)
20000886:	ea86 0105 	eor.w	r1, r6, r5
2000088a:	f000 fd09 	bl	200012a0 <__panic_veneer>
2000088e:	bf00      	nop
20000890:	20002500 	.word	0x20002500
20000894:	20002480 	.word	0x20002480
20000898:	200024c0 	.word	0x200024c0
2000089c:	20002280 	.word	0x20002280
200008a0:	200022c0 	.word	0x200022c0
200008a4:	20002380 	.word	0x20002380
200008a8:	200023c0 	.word	0x200023c0
200008ac:	20002400 	.word	0x20002400
200008b0:	20002440 	.word	0x20002440
200008b4:	20002300 	.word	0x20002300
200008b8:	20002340 	.word	0x20002340
200008bc:	20002240 	.word	0x20002240
200008c0:	20002540 	.word	0x20002540
200008c4:	20002580 	.word	0x20002580
200008c8:	1000da9c 	.word	0x1000da9c

200008cc <prepare_ep_buffer>:
200008cc:	e92d 47f0 	stmdb	sp!, {r4, r5, r6, r7, r8, r9, sl, lr}
200008d0:	8a84      	ldrh	r4, [r0, #20]
200008d2:	8b05      	ldrh	r5, [r0, #24]
200008d4:	78c2      	ldrb	r2, [r0, #3]
200008d6:	42a5      	cmp	r5, r4
200008d8:	bf28      	it	cs
200008da:	4625      	movcs	r5, r4
200008dc:	1e17      	subs	r7, r2, #0
200008de:	bf18      	it	ne
200008e0:	2701      	movne	r7, #1
200008e2:	1b64      	subs	r4, r4, r5
200008e4:	7846      	ldrb	r6, [r0, #1]
200008e6:	f082 0201 	eor.w	r2, r2, #1
200008ea:	b2a4      	uxth	r4, r4
200008ec:	4603      	mov	r3, r0
200008ee:	70c2      	strb	r2, [r0, #3]
200008f0:	8284      	strh	r4, [r0, #20]
200008f2:	f445 6080 	orr.w	r0, r5, #1024	@ 0x400
200008f6:	ea40 3047 	orr.w	r0, r0, r7, lsl #13
200008fa:	bba6      	cbnz	r6, 20000966 <prepare_ep_buffer+0x9a>
200008fc:	e9d3 2603 	ldrd	r2, r6, [r3, #12]
20000900:	1e6f      	subs	r7, r5, #1
20000902:	eb02 1e81 	add.w	lr, r2, r1, lsl #6
20000906:	b355      	cbz	r5, 2000095e <prepare_ep_buffer+0x92>
20000908:	2f05      	cmp	r7, #5
2000090a:	bf98      	it	ls
2000090c:	1c72      	addls	r2, r6, #1
2000090e:	d931      	bls.n	20000974 <prepare_ep_buffer+0xa8>
20000910:	eb02 1c81 	add.w	ip, r2, r1, lsl #6
20000914:	1c72      	adds	r2, r6, #1
20000916:	ebac 0402 	sub.w	r4, ip, r2
2000091a:	2c02      	cmp	r4, #2
2000091c:	d92a      	bls.n	20000974 <prepare_ep_buffer+0xa8>
2000091e:	4632      	mov	r2, r6
20000920:	ea4f 0995 	mov.w	r9, r5, lsr #2
20000924:	ea4f 0a89 	mov.w	sl, r9, lsl #2
20000928:	eb06 0889 	add.w	r8, r6, r9, lsl #2
2000092c:	f852 4b04 	ldr.w	r4, [r2], #4
20000930:	4542      	cmp	r2, r8
20000932:	f84c 4b04 	str.w	r4, [ip], #4
20000936:	d1f9      	bne.n	2000092c <prepare_ep_buffer+0x60>
20000938:	4555      	cmp	r5, sl
2000093a:	eba7 070a 	sub.w	r7, r7, sl
2000093e:	eb0e 040a 	add.w	r4, lr, sl
20000942:	d00a      	beq.n	2000095a <prepare_ep_buffer+0x8e>
20000944:	f816 6029 	ldrb.w	r6, [r6, r9, lsl #2]
20000948:	f80e 6029 	strb.w	r6, [lr, r9, lsl #2]
2000094c:	b12f      	cbz	r7, 2000095a <prepare_ep_buffer+0x8e>
2000094e:	7856      	ldrb	r6, [r2, #1]
20000950:	2f01      	cmp	r7, #1
20000952:	7066      	strb	r6, [r4, #1]
20000954:	d001      	beq.n	2000095a <prepare_ep_buffer+0x8e>
20000956:	7892      	ldrb	r2, [r2, #2]
20000958:	70a2      	strb	r2, [r4, #2]
2000095a:	691e      	ldr	r6, [r3, #16]
2000095c:	8a9c      	ldrh	r4, [r3, #20]
2000095e:	442e      	add	r6, r5
20000960:	611e      	str	r6, [r3, #16]
20000962:	f440 4000 	orr.w	r0, r0, #32768	@ 0x8000
20000966:	b90c      	cbnz	r4, 2000096c <prepare_ep_buffer+0xa0>
20000968:	f440 4080 	orr.w	r0, r0, #16384	@ 0x4000
2000096c:	b101      	cbz	r1, 20000970 <prepare_ep_buffer+0xa4>
2000096e:	0400      	lsls	r0, r0, #16
20000970:	e8bd 87f0 	ldmia.w	sp!, {r4, r5, r6, r7, r8, r9, sl, pc}
20000974:	f10e 3eff 	add.w	lr, lr, #4294967295
20000978:	442e      	add	r6, r5
2000097a:	e000      	b.n	2000097e <prepare_ep_buffer+0xb2>
2000097c:	3201      	adds	r2, #1
2000097e:	f812 4c01 	ldrb.w	r4, [r2, #-1]
20000982:	42b2      	cmp	r2, r6
20000984:	f80e 4f01 	strb.w	r4, [lr, #1]!
20000988:	d1f8      	bne.n	2000097c <prepare_ep_buffer+0xb0>
2000098a:	e7e6      	b.n	2000095a <prepare_ep_buffer+0x8e>

2000098c <sync_ep_buffer>:
2000098c:	6883      	ldr	r3, [r0, #8]
2000098e:	4602      	mov	r2, r0
20000990:	6818      	ldr	r0, [r3, #0]
20000992:	b101      	cbz	r1, 20000996 <sync_ep_buffer+0xa>
20000994:	0c00      	lsrs	r0, r0, #16
20000996:	7853      	ldrb	r3, [r2, #1]
20000998:	f3c0 0009 	ubfx	r0, r0, #0, #10
2000099c:	2b00      	cmp	r3, #0
2000099e:	d03c      	beq.n	20000a1a <sync_ep_buffer+0x8e>
200009a0:	e92d 41f0 	stmdb	sp!, {r4, r5, r6, r7, r8, lr}
200009a4:	e9d2 3403 	ldrd	r3, r4, [r2, #12]
200009a8:	1e46      	subs	r6, r0, #1
200009aa:	eb03 1e81 	add.w	lr, r3, r1, lsl #6
200009ae:	b340      	cbz	r0, 20000a02 <sync_ep_buffer+0x76>
200009b0:	2e05      	cmp	r6, #5
200009b2:	d93b      	bls.n	20000a2c <sync_ep_buffer+0xa0>
200009b4:	0189      	lsls	r1, r1, #6
200009b6:	1c4d      	adds	r5, r1, #1
200009b8:	441d      	add	r5, r3
200009ba:	1b65      	subs	r5, r4, r5
200009bc:	2d02      	cmp	r5, #2
200009be:	d935      	bls.n	20000a2c <sync_ep_buffer+0xa0>
200009c0:	4673      	mov	r3, lr
200009c2:	4621      	mov	r1, r4
200009c4:	f400 777f 	and.w	r7, r0, #1020	@ 0x3fc
200009c8:	ea4f 0890 	mov.w	r8, r0, lsr #2
200009cc:	18fd      	adds	r5, r7, r3
200009ce:	f853 cb04 	ldr.w	ip, [r3], #4
200009d2:	42ab      	cmp	r3, r5
200009d4:	f841 cb04 	str.w	ip, [r1], #4
200009d8:	d1f9      	bne.n	200009ce <sync_ep_buffer+0x42>
200009da:	42b8      	cmp	r0, r7
200009dc:	eba6 0607 	sub.w	r6, r6, r7
200009e0:	eb04 0307 	add.w	r3, r4, r7
200009e4:	eb0e 0107 	add.w	r1, lr, r7
200009e8:	d00a      	beq.n	20000a00 <sync_ep_buffer+0x74>
200009ea:	f81e 5028 	ldrb.w	r5, [lr, r8, lsl #2]
200009ee:	f804 5028 	strb.w	r5, [r4, r8, lsl #2]
200009f2:	b12e      	cbz	r6, 20000a00 <sync_ep_buffer+0x74>
200009f4:	784c      	ldrb	r4, [r1, #1]
200009f6:	2e01      	cmp	r6, #1
200009f8:	705c      	strb	r4, [r3, #1]
200009fa:	d001      	beq.n	20000a00 <sync_ep_buffer+0x74>
200009fc:	7889      	ldrb	r1, [r1, #2]
200009fe:	7099      	strb	r1, [r3, #2]
20000a00:	6914      	ldr	r4, [r2, #16]
20000a02:	8ad3      	ldrh	r3, [r2, #22]
20000a04:	4404      	add	r4, r0
20000a06:	4403      	add	r3, r0
20000a08:	82d3      	strh	r3, [r2, #22]
20000a0a:	8b13      	ldrh	r3, [r2, #24]
20000a0c:	6114      	str	r4, [r2, #16]
20000a0e:	4283      	cmp	r3, r0
20000a10:	bf84      	itt	hi
20000a12:	2300      	movhi	r3, #0
20000a14:	8293      	strhhi	r3, [r2, #20]
20000a16:	e8bd 81f0 	ldmia.w	sp!, {r4, r5, r6, r7, r8, pc}
20000a1a:	8ad3      	ldrh	r3, [r2, #22]
20000a1c:	4403      	add	r3, r0
20000a1e:	82d3      	strh	r3, [r2, #22]
20000a20:	8b13      	ldrh	r3, [r2, #24]
20000a22:	4283      	cmp	r3, r0
20000a24:	bf84      	itt	hi
20000a26:	2300      	movhi	r3, #0
20000a28:	8293      	strhhi	r3, [r2, #20]
20000a2a:	4770      	bx	lr
20000a2c:	3c01      	subs	r4, #1
20000a2e:	eb0e 0100 	add.w	r1, lr, r0
20000a32:	f81e 3b01 	ldrb.w	r3, [lr], #1
20000a36:	4571      	cmp	r1, lr
20000a38:	f804 3f01 	strb.w	r3, [r4, #1]!
20000a3c:	d1f9      	bne.n	20000a32 <sync_ep_buffer+0xa6>
20000a3e:	e7df      	b.n	20000a00 <sync_ep_buffer+0x74>

20000a40 <_hw_endpoint_xfer_sync>:
20000a40:	b510      	push	{r4, lr}
20000a42:	4604      	mov	r4, r0
20000a44:	6883      	ldr	r3, [r0, #8]
20000a46:	2100      	movs	r1, #0
20000a48:	681b      	ldr	r3, [r3, #0]
20000a4a:	f7ff ff9f 	bl	2000098c <sync_ep_buffer>
20000a4e:	6863      	ldr	r3, [r4, #4]
20000a50:	681b      	ldr	r3, [r3, #0]
20000a52:	005b      	lsls	r3, r3, #1
20000a54:	d502      	bpl.n	20000a5c <_hw_endpoint_xfer_sync+0x1c>
20000a56:	8b23      	ldrh	r3, [r4, #24]
20000a58:	4283      	cmp	r3, r0
20000a5a:	d000      	beq.n	20000a5e <_hw_endpoint_xfer_sync+0x1e>
20000a5c:	bd10      	pop	{r4, pc}
20000a5e:	4620      	mov	r0, r4
20000a60:	e8bd 4010 	ldmia.w	sp!, {r4, lr}
20000a64:	2101      	movs	r1, #1
20000a66:	f7ff bf91 	b.w	2000098c <sync_ep_buffer>
20000a6a:	bf00      	nop

20000a6c <e15_is_bulkin_ep>:
20000a6c:	4b08      	ldr	r3, [pc, #32]	@ (20000a90 <e15_is_bulkin_ep+0x24>)
20000a6e:	6c1b      	ldr	r3, [r3, #64]	@ 0x40
20000a70:	f013 0302 	ands.w	r3, r3, #2
20000a74:	d102      	bne.n	20000a7c <e15_is_bulkin_ep+0x10>
20000a76:	7882      	ldrb	r2, [r0, #2]
20000a78:	09d2      	lsrs	r2, r2, #7
20000a7a:	d101      	bne.n	20000a80 <e15_is_bulkin_ep+0x14>
20000a7c:	2000      	movs	r0, #0
20000a7e:	4770      	bx	lr
20000a80:	7ec0      	ldrb	r0, [r0, #27]
20000a82:	f1a0 0002 	sub.w	r0, r0, #2
20000a86:	fab0 f080 	clz	r0, r0
20000a8a:	0940      	lsrs	r0, r0, #5
20000a8c:	4770      	bx	lr
20000a8e:	bf00      	nop
20000a90:	50110000 	.word	0x50110000

20000a94 <e15_is_critical_frame_period>:
20000a94:	b508      	push	{r3, lr}
20000a96:	f7ff ffe9 	bl	20000a6c <e15_is_bulkin_ep>
20000a9a:	b150      	cbz	r0, 20000ab2 <e15_is_critical_frame_period+0x1e>
20000a9c:	4a05      	ldr	r2, [pc, #20]	@ (20000ab4 <e15_is_critical_frame_period+0x20>)
20000a9e:	4b06      	ldr	r3, [pc, #24]	@ (20000ab8 <e15_is_critical_frame_period+0x24>)
20000aa0:	6a90      	ldr	r0, [r2, #40]	@ 0x28
20000aa2:	681b      	ldr	r3, [r3, #0]
20000aa4:	f5a0 7048 	sub.w	r0, r0, #800	@ 0x320
20000aa8:	1ac0      	subs	r0, r0, r3
20000aaa:	28c6      	cmp	r0, #198	@ 0xc6
20000aac:	bf8c      	ite	hi
20000aae:	2000      	movhi	r0, #0
20000ab0:	2001      	movls	r0, #1
20000ab2:	bd08      	pop	{r3, pc}
20000ab4:	400b0000 	.word	0x400b0000
20000ab8:	200021d0 	.word	0x200021d0

20000abc <hw_endpoint_reset_transfer>:
20000abc:	2300      	movs	r3, #0
20000abe:	e9c0 3304 	strd	r3, r3, [r0, #16]
20000ac2:	7683      	strb	r3, [r0, #26]
20000ac4:	4770      	bx	lr
20000ac6:	bf00      	nop

20000ac8 <_hw_endpoint_buffer_control_update32>:
20000ac8:	b510      	push	{r4, lr}
20000aca:	6883      	ldr	r3, [r0, #8]
20000acc:	b109      	cbz	r1, 20000ad2 <_hw_endpoint_buffer_control_update32+0xa>
20000ace:	681c      	ldr	r4, [r3, #0]
20000ad0:	4021      	ands	r1, r4
20000ad2:	b182      	cbz	r2, 20000af6 <_hw_endpoint_buffer_control_update32+0x2e>
20000ad4:	4311      	orrs	r1, r2
20000ad6:	0552      	lsls	r2, r2, #21
20000ad8:	d50d      	bpl.n	20000af6 <_hw_endpoint_buffer_control_update32+0x2e>
20000ada:	681a      	ldr	r2, [r3, #0]
20000adc:	0554      	lsls	r4, r2, #21
20000ade:	d40c      	bmi.n	20000afa <_hw_endpoint_buffer_control_update32+0x32>
20000ae0:	4a08      	ldr	r2, [pc, #32]	@ (20000b04 <_hw_endpoint_buffer_control_update32+0x3c>)
20000ae2:	f421 6480 	bic.w	r4, r1, #1024	@ 0x400
20000ae6:	601c      	str	r4, [r3, #0]
20000ae8:	6c12      	ldr	r2, [r2, #64]	@ 0x40
20000aea:	0792      	lsls	r2, r2, #30
20000aec:	d403      	bmi.n	20000af6 <_hw_endpoint_buffer_control_update32+0x2e>
20000aee:	230c      	movs	r3, #12
20000af0:	3b03      	subs	r3, #3
20000af2:	d2fd      	bcs.n	20000af0 <_hw_endpoint_buffer_control_update32+0x28>
20000af4:	6883      	ldr	r3, [r0, #8]
20000af6:	6019      	str	r1, [r3, #0]
20000af8:	bd10      	pop	{r4, pc}
20000afa:	7881      	ldrb	r1, [r0, #2]
20000afc:	4802      	ldr	r0, [pc, #8]	@ (20000b08 <_hw_endpoint_buffer_control_update32+0x40>)
20000afe:	f000 fbcf 	bl	200012a0 <__panic_veneer>
20000b02:	bf00      	nop
20000b04:	50110000 	.word	0x50110000
20000b08:	1000dab0 	.word	0x1000dab0

20000b0c <hw_endpoint_start_next_buffer>:
20000b0c:	b530      	push	{r4, r5, lr}
20000b0e:	6843      	ldr	r3, [r0, #4]
20000b10:	2100      	movs	r1, #0
20000b12:	b083      	sub	sp, #12
20000b14:	4604      	mov	r4, r0
20000b16:	681d      	ldr	r5, [r3, #0]
20000b18:	f7ff fed8 	bl	200008cc <prepare_ep_buffer>
20000b1c:	4b13      	ldr	r3, [pc, #76]	@ (20000b6c <hw_endpoint_start_next_buffer+0x60>)
20000b1e:	f440 5280 	orr.w	r2, r0, #4096	@ 0x1000
20000b22:	6c19      	ldr	r1, [r3, #64]	@ 0x40
20000b24:	78a3      	ldrb	r3, [r4, #2]
20000b26:	0789      	lsls	r1, r1, #30
20000b28:	d50e      	bpl.n	20000b48 <hw_endpoint_start_next_buffer+0x3c>
20000b2a:	065b      	lsls	r3, r3, #25
20000b2c:	d00e      	beq.n	20000b4c <hw_endpoint_start_next_buffer+0x40>
20000b2e:	f025 45a0 	bic.w	r5, r5, #1342177280	@ 0x50000000
20000b32:	f045 5500 	orr.w	r5, r5, #536870912	@ 0x20000000
20000b36:	2100      	movs	r1, #0
20000b38:	4620      	mov	r0, r4
20000b3a:	6863      	ldr	r3, [r4, #4]
20000b3c:	601d      	str	r5, [r3, #0]
20000b3e:	b003      	add	sp, #12
20000b40:	e8bd 4030 	ldmia.w	sp!, {r4, r5, lr}
20000b44:	f7ff bfc0 	b.w	20000ac8 <_hw_endpoint_buffer_control_update32>
20000b48:	09db      	lsrs	r3, r3, #7
20000b4a:	d0f0      	beq.n	20000b2e <hw_endpoint_start_next_buffer+0x22>
20000b4c:	8aa3      	ldrh	r3, [r4, #20]
20000b4e:	2b00      	cmp	r3, #0
20000b50:	d0ed      	beq.n	20000b2e <hw_endpoint_start_next_buffer+0x22>
20000b52:	2101      	movs	r1, #1
20000b54:	4620      	mov	r0, r4
20000b56:	9201      	str	r2, [sp, #4]
20000b58:	f7ff feb8 	bl	200008cc <prepare_ep_buffer>
20000b5c:	9a01      	ldr	r2, [sp, #4]
20000b5e:	f025 5500 	bic.w	r5, r5, #536870912	@ 0x20000000
20000b62:	4302      	orrs	r2, r0
20000b64:	f045 45a0 	orr.w	r5, r5, #1342177280	@ 0x50000000
20000b68:	e7e5      	b.n	20000b36 <hw_endpoint_start_next_buffer+0x2a>
20000b6a:	bf00      	nop
20000b6c:	50110000 	.word	0x50110000

20000b70 <hw_endpoint_xfer_continue>:
20000b70:	b538      	push	{r3, r4, r5, lr}
20000b72:	7e85      	ldrb	r5, [r0, #26]
20000b74:	4604      	mov	r4, r0
20000b76:	b195      	cbz	r5, 20000b9e <hw_endpoint_xfer_continue+0x2e>
20000b78:	f7ff ff62 	bl	20000a40 <_hw_endpoint_xfer_sync>
20000b7c:	8aa3      	ldrh	r3, [r4, #20]
20000b7e:	b90b      	cbnz	r3, 20000b84 <hw_endpoint_xfer_continue+0x14>
20000b80:	4628      	mov	r0, r5
20000b82:	bd38      	pop	{r3, r4, r5, pc}
20000b84:	4620      	mov	r0, r4
20000b86:	f7ff ff85 	bl	20000a94 <e15_is_critical_frame_period>
20000b8a:	b120      	cbz	r0, 20000b96 <hw_endpoint_xfer_continue+0x26>
20000b8c:	2301      	movs	r3, #1
20000b8e:	7723      	strb	r3, [r4, #28]
20000b90:	2500      	movs	r5, #0
20000b92:	4628      	mov	r0, r5
20000b94:	bd38      	pop	{r3, r4, r5, pc}
20000b96:	4620      	mov	r0, r4
20000b98:	f7ff ffb8 	bl	20000b0c <hw_endpoint_start_next_buffer>
20000b9c:	e7f8      	b.n	20000b90 <hw_endpoint_xfer_continue+0x20>
20000b9e:	7881      	ldrb	r1, [r0, #2]
20000ba0:	4801      	ldr	r0, [pc, #4]	@ (20000ba8 <hw_endpoint_xfer_continue+0x38>)
20000ba2:	f000 fb7d 	bl	200012a0 <__panic_veneer>
20000ba6:	bf00      	nop
20000ba8:	1000dad0 	.word	0x1000dad0

20000bac <dcd_event_handler>:
20000bac:	e92d 43f0 	stmdb	sp!, {r4, r5, r6, r7, r8, r9, lr}
20000bb0:	7843      	ldrb	r3, [r0, #1]
20000bb2:	4681      	mov	r9, r0
20000bb4:	3b02      	subs	r3, #2
20000bb6:	460d      	mov	r5, r1
20000bb8:	b085      	sub	sp, #20
20000bba:	2b04      	cmp	r3, #4
20000bbc:	d813      	bhi.n	20000be6 <dcd_event_handler+0x3a>
20000bbe:	e8df f003 	tbb	[pc, r3]
20000bc2:	4a03      	.short	0x4a03
20000bc4:	736a      	.short	0x736a
20000bc6:	44          	.byte	0x44
20000bc7:	00          	.byte	0x00
20000bc8:	2100      	movs	r1, #0
20000bca:	4b7b      	ldr	r3, [pc, #492]	@ (20000db8 <dcd_event_handler+0x20c>)
20000bcc:	781a      	ldrb	r2, [r3, #0]
20000bce:	f022 0201 	bic.w	r2, r2, #1
20000bd2:	701a      	strb	r2, [r3, #0]
20000bd4:	781a      	ldrb	r2, [r3, #0]
20000bd6:	f022 0202 	bic.w	r2, r2, #2
20000bda:	701a      	strb	r2, [r3, #0]
20000bdc:	7059      	strb	r1, [r3, #1]
20000bde:	781a      	ldrb	r2, [r3, #0]
20000be0:	f361 0282 	bfi	r2, r1, #2, #1
20000be4:	701a      	strb	r2, [r3, #0]
20000be6:	4b75      	ldr	r3, [pc, #468]	@ (20000dbc <dcd_event_handler+0x210>)
20000be8:	681c      	ldr	r4, [r3, #0]
20000bea:	6963      	ldr	r3, [r4, #20]
20000bec:	f3ef 8210 	mrs	r2, PRIMASK
20000bf0:	b672      	cpsid	i
20000bf2:	e8d3 0fcf 	ldaexb	r0, [r3]
20000bf6:	2101      	movs	r1, #1
20000bf8:	2800      	cmp	r0, #0
20000bfa:	d1fa      	bne.n	20000bf2 <dcd_event_handler+0x46>
20000bfc:	e8c3 1f40 	strexb	r0, r1, [r3]
20000c00:	2800      	cmp	r0, #0
20000c02:	d1f6      	bne.n	20000bf2 <dcd_event_handler+0x46>
20000c04:	f3bf 8f5f 	dmb	sy
20000c08:	61a2      	str	r2, [r4, #24]
20000c0a:	4649      	mov	r1, r9
20000c0c:	4620      	mov	r0, r4
20000c0e:	f000 fb37 	bl	20001280 <__tu_fifo_write_veneer>
20000c12:	2300      	movs	r3, #0
20000c14:	6962      	ldr	r2, [r4, #20]
20000c16:	e8c2 3f8f 	stlb	r3, [r2]
20000c1a:	69a3      	ldr	r3, [r4, #24]
20000c1c:	f383 8810 	msr	PRIMASK, r3
20000c20:	b948      	cbnz	r0, 20000c36 <dcd_event_handler+0x8a>
20000c22:	f04f 23e0 	mov.w	r3, #3758153728	@ 0xe000e000
20000c26:	f8d3 3df0 	ldr.w	r3, [r3, #3568]	@ 0xdf0
20000c2a:	07db      	lsls	r3, r3, #31
20000c2c:	d50a      	bpl.n	20000c44 <dcd_event_handler+0x98>
20000c2e:	be00      	bkpt	0x0000
20000c30:	b005      	add	sp, #20
20000c32:	e8bd 83f0 	ldmia.w	sp!, {r4, r5, r6, r7, r8, r9, pc}
20000c36:	462a      	mov	r2, r5
20000c38:	f899 1001 	ldrb.w	r1, [r9, #1]
20000c3c:	f899 0000 	ldrb.w	r0, [r9]
20000c40:	f000 fb22 	bl	20001288 <__tud_event_hook_cb_veneer>
20000c44:	b005      	add	sp, #20
20000c46:	e8bd 83f0 	ldmia.w	sp!, {r4, r5, r6, r7, r8, r9, pc}
20000c4a:	4a5d      	ldr	r2, [pc, #372]	@ (20000dc0 <dcd_event_handler+0x214>)
20000c4c:	7813      	ldrb	r3, [r2, #0]
20000c4e:	3301      	adds	r3, #1
20000c50:	b2db      	uxtb	r3, r3
20000c52:	7013      	strb	r3, [r2, #0]
20000c54:	e7c7      	b.n	20000be6 <dcd_event_handler+0x3a>
20000c56:	2400      	movs	r4, #0
20000c58:	4e5a      	ldr	r6, [pc, #360]	@ (20000dc4 <dcd_event_handler+0x218>)
20000c5a:	4623      	mov	r3, r4
20000c5c:	7831      	ldrb	r1, [r6, #0]
20000c5e:	f8df 816c 	ldr.w	r8, [pc, #364]	@ 20000dcc <dcd_event_handler+0x220>
20000c62:	4f59      	ldr	r7, [pc, #356]	@ (20000dc8 <dcd_event_handler+0x21c>)
20000c64:	e011      	b.n	20000c8a <dcd_event_handler+0xde>
20000c66:	683b      	ldr	r3, [r7, #0]
20000c68:	eb13 1344 	adds.w	r3, r3, r4, lsl #5
20000c6c:	d007      	beq.n	20000c7e <dcd_event_handler+0xd2>
20000c6e:	69db      	ldr	r3, [r3, #28]
20000c70:	b12b      	cbz	r3, 20000c7e <dcd_event_handler+0xd2>
20000c72:	f8d9 1004 	ldr.w	r1, [r9, #4]
20000c76:	f899 0000 	ldrb.w	r0, [r9]
20000c7a:	4798      	blx	r3
20000c7c:	7831      	ldrb	r1, [r6, #0]
20000c7e:	3401      	adds	r4, #1
20000c80:	b2e4      	uxtb	r4, r4
20000c82:	1c4a      	adds	r2, r1, #1
20000c84:	42a2      	cmp	r2, r4
20000c86:	4623      	mov	r3, r4
20000c88:	db17      	blt.n	20000cba <dcd_event_handler+0x10e>
20000c8a:	42a1      	cmp	r1, r4
20000c8c:	d8eb      	bhi.n	20000c66 <dcd_event_handler+0xba>
20000c8e:	1a5b      	subs	r3, r3, r1
20000c90:	eb08 1343 	add.w	r3, r8, r3, lsl #5
20000c94:	e7eb      	b.n	20000c6e <dcd_event_handler+0xc2>
20000c96:	4b48      	ldr	r3, [pc, #288]	@ (20000db8 <dcd_event_handler+0x20c>)
20000c98:	781a      	ldrb	r2, [r3, #0]
20000c9a:	07d6      	lsls	r6, r2, #31
20000c9c:	d5d2      	bpl.n	20000c44 <dcd_event_handler+0x98>
20000c9e:	781a      	ldrb	r2, [r3, #0]
20000ca0:	f042 0204 	orr.w	r2, r2, #4
20000ca4:	701a      	strb	r2, [r3, #0]
20000ca6:	e79e      	b.n	20000be6 <dcd_event_handler+0x3a>
20000ca8:	4b43      	ldr	r3, [pc, #268]	@ (20000db8 <dcd_event_handler+0x20c>)
20000caa:	781a      	ldrb	r2, [r3, #0]
20000cac:	07d4      	lsls	r4, r2, #31
20000cae:	d5c9      	bpl.n	20000c44 <dcd_event_handler+0x98>
20000cb0:	781a      	ldrb	r2, [r3, #0]
20000cb2:	f022 0204 	bic.w	r2, r2, #4
20000cb6:	701a      	strb	r2, [r3, #0]
20000cb8:	e795      	b.n	20000be6 <dcd_event_handler+0x3a>
20000cba:	4c3f      	ldr	r4, [pc, #252]	@ (20000db8 <dcd_event_handler+0x20c>)
20000cbc:	7823      	ldrb	r3, [r4, #0]
20000cbe:	0758      	lsls	r0, r3, #29
20000cc0:	d43a      	bmi.n	20000d38 <dcd_event_handler+0x18c>
20000cc2:	78e3      	ldrb	r3, [r4, #3]
20000cc4:	07da      	lsls	r2, r3, #31
20000cc6:	d5bd      	bpl.n	20000c44 <dcd_event_handler+0x98>
20000cc8:	2303      	movs	r3, #3
20000cca:	2600      	movs	r6, #0
20000ccc:	4a3b      	ldr	r2, [pc, #236]	@ (20000dbc <dcd_event_handler+0x210>)
20000cce:	f899 1000 	ldrb.w	r1, [r9]
20000cd2:	6814      	ldr	r4, [r2, #0]
20000cd4:	f8d9 2004 	ldr.w	r2, [r9, #4]
20000cd8:	f88d 1004 	strb.w	r1, [sp, #4]
20000cdc:	f88d 3005 	strb.w	r3, [sp, #5]
20000ce0:	6963      	ldr	r3, [r4, #20]
20000ce2:	f8cd 6006 	str.w	r6, [sp, #6]
20000ce6:	f8cd 600a 	str.w	r6, [sp, #10]
20000cea:	f8ad 600e 	strh.w	r6, [sp, #14]
20000cee:	9202      	str	r2, [sp, #8]
20000cf0:	f3ef 8210 	mrs	r2, PRIMASK
20000cf4:	b672      	cpsid	i
20000cf6:	e8d3 0fcf 	ldaexb	r0, [r3]
20000cfa:	2101      	movs	r1, #1
20000cfc:	2800      	cmp	r0, #0
20000cfe:	d1fa      	bne.n	20000cf6 <dcd_event_handler+0x14a>
20000d00:	e8c3 1f40 	strexb	r0, r1, [r3]
20000d04:	2800      	cmp	r0, #0
20000d06:	d1f6      	bne.n	20000cf6 <dcd_event_handler+0x14a>
20000d08:	f3bf 8f5f 	dmb	sy
20000d0c:	4620      	mov	r0, r4
20000d0e:	61a2      	str	r2, [r4, #24]
20000d10:	a901      	add	r1, sp, #4
20000d12:	f000 fab5 	bl	20001280 <__tu_fifo_write_veneer>
20000d16:	6963      	ldr	r3, [r4, #20]
20000d18:	e8c3 6f8f 	stlb	r6, [r3]
20000d1c:	69a3      	ldr	r3, [r4, #24]
20000d1e:	f383 8810 	msr	PRIMASK, r3
20000d22:	2800      	cmp	r0, #0
20000d24:	f43f af7d 	beq.w	20000c22 <dcd_event_handler+0x76>
20000d28:	462a      	mov	r2, r5
20000d2a:	f89d 1005 	ldrb.w	r1, [sp, #5]
20000d2e:	f89d 0004 	ldrb.w	r0, [sp, #4]
20000d32:	f000 faa9 	bl	20001288 <__tud_event_hook_cb_veneer>
20000d36:	e785      	b.n	20000c44 <dcd_event_handler+0x98>
20000d38:	7823      	ldrb	r3, [r4, #0]
20000d3a:	2700      	movs	r7, #0
20000d3c:	f023 0304 	bic.w	r3, r3, #4
20000d40:	7023      	strb	r3, [r4, #0]
20000d42:	2305      	movs	r3, #5
20000d44:	4a1d      	ldr	r2, [pc, #116]	@ (20000dbc <dcd_event_handler+0x210>)
20000d46:	f88d 3005 	strb.w	r3, [sp, #5]
20000d4a:	6816      	ldr	r6, [r2, #0]
20000d4c:	f899 2000 	ldrb.w	r2, [r9]
20000d50:	f8ad 700e 	strh.w	r7, [sp, #14]
20000d54:	f88d 2004 	strb.w	r2, [sp, #4]
20000d58:	6973      	ldr	r3, [r6, #20]
20000d5a:	f8cd 7006 	str.w	r7, [sp, #6]
20000d5e:	f8cd 700a 	str.w	r7, [sp, #10]
20000d62:	f3ef 8210 	mrs	r2, PRIMASK
20000d66:	b672      	cpsid	i
20000d68:	e8d3 0fcf 	ldaexb	r0, [r3]
20000d6c:	2101      	movs	r1, #1
20000d6e:	2800      	cmp	r0, #0
20000d70:	d1fa      	bne.n	20000d68 <dcd_event_handler+0x1bc>
20000d72:	e8c3 1f40 	strexb	r0, r1, [r3]
20000d76:	2800      	cmp	r0, #0
20000d78:	d1f6      	bne.n	20000d68 <dcd_event_handler+0x1bc>
20000d7a:	f3bf 8f5f 	dmb	sy
20000d7e:	4630      	mov	r0, r6
20000d80:	61b2      	str	r2, [r6, #24]
20000d82:	a901      	add	r1, sp, #4
20000d84:	f000 fa7c 	bl	20001280 <__tu_fifo_write_veneer>
20000d88:	6973      	ldr	r3, [r6, #20]
20000d8a:	e8c3 7f8f 	stlb	r7, [r3]
20000d8e:	69b3      	ldr	r3, [r6, #24]
20000d90:	f383 8810 	msr	PRIMASK, r3
20000d94:	b938      	cbnz	r0, 20000da6 <dcd_event_handler+0x1fa>
20000d96:	f04f 23e0 	mov.w	r3, #3758153728	@ 0xe000e000
20000d9a:	f8d3 3df0 	ldr.w	r3, [r3, #3568]	@ 0xdf0
20000d9e:	07d9      	lsls	r1, r3, #31
20000da0:	d58f      	bpl.n	20000cc2 <dcd_event_handler+0x116>
20000da2:	be00      	bkpt	0x0000
20000da4:	e78d      	b.n	20000cc2 <dcd_event_handler+0x116>
20000da6:	462a      	mov	r2, r5
20000da8:	f89d 1005 	ldrb.w	r1, [sp, #5]
20000dac:	f89d 0004 	ldrb.w	r0, [sp, #4]
20000db0:	f000 fa6a 	bl	20001288 <__tud_event_hook_cb_veneer>
20000db4:	e785      	b.n	20000cc2 <dcd_event_handler+0x116>
20000db6:	bf00      	nop
20000db8:	20001d84 	.word	0x20001d84
20000dbc:	20001ddc 	.word	0x20001ddc
20000dc0:	20002656 	.word	0x20002656
20000dc4:	20002654 	.word	0x20002654
20000dc8:	20001bb4 	.word	0x20001bb4
20000dcc:	100258b4 	.word	0x100258b4

20000dd0 <spi_write_blocking>:
20000dd0:	4684      	mov	ip, r0
20000dd2:	4610      	mov	r0, r2
20000dd4:	b36a      	cbz	r2, 20000e32 <spi_write_blocking+0x62>
20000dd6:	3901      	subs	r1, #1
20000dd8:	b500      	push	{lr}
20000dda:	eb01 0e02 	add.w	lr, r1, r2
20000dde:	f8dc 300c 	ldr.w	r3, [ip, #12]
20000de2:	079b      	lsls	r3, r3, #30
20000de4:	d5fb      	bpl.n	20000dde <spi_write_blocking+0xe>
20000de6:	f811 3f01 	ldrb.w	r3, [r1, #1]!
20000dea:	4571      	cmp	r1, lr
20000dec:	f8cc 3008 	str.w	r3, [ip, #8]
20000df0:	d1f5      	bne.n	20000dde <spi_write_blocking+0xe>
20000df2:	f8dc 300c 	ldr.w	r3, [ip, #12]
20000df6:	0759      	lsls	r1, r3, #29
20000df8:	d505      	bpl.n	20000e06 <spi_write_blocking+0x36>
20000dfa:	f8dc 3008 	ldr.w	r3, [ip, #8]
20000dfe:	f8dc 300c 	ldr.w	r3, [ip, #12]
20000e02:	0759      	lsls	r1, r3, #29
20000e04:	d4f9      	bmi.n	20000dfa <spi_write_blocking+0x2a>
20000e06:	f8dc 300c 	ldr.w	r3, [ip, #12]
20000e0a:	06da      	lsls	r2, r3, #27
20000e0c:	d506      	bpl.n	20000e1c <spi_write_blocking+0x4c>
20000e0e:	f8dc 300c 	ldr.w	r3, [ip, #12]
20000e12:	06da      	lsls	r2, r3, #27
20000e14:	d4f7      	bmi.n	20000e06 <spi_write_blocking+0x36>
20000e16:	e001      	b.n	20000e1c <spi_write_blocking+0x4c>
20000e18:	f8dc 3008 	ldr.w	r3, [ip, #8]
20000e1c:	f8dc 300c 	ldr.w	r3, [ip, #12]
20000e20:	075b      	lsls	r3, r3, #29
20000e22:	d4f9      	bmi.n	20000e18 <spi_write_blocking+0x48>
20000e24:	2301      	movs	r3, #1
20000e26:	f8cc 3020 	str.w	r3, [ip, #32]
20000e2a:	f85d fb04 	ldr.w	pc, [sp], #4
20000e2e:	f8dc 3008 	ldr.w	r3, [ip, #8]
20000e32:	f8dc 300c 	ldr.w	r3, [ip, #12]
20000e36:	0759      	lsls	r1, r3, #29
20000e38:	d4f9      	bmi.n	20000e2e <spi_write_blocking+0x5e>
20000e3a:	f8dc 300c 	ldr.w	r3, [ip, #12]
20000e3e:	06da      	lsls	r2, r3, #27
20000e40:	d506      	bpl.n	20000e50 <spi_write_blocking+0x80>
20000e42:	f8dc 300c 	ldr.w	r3, [ip, #12]
20000e46:	06da      	lsls	r2, r3, #27
20000e48:	d4f7      	bmi.n	20000e3a <spi_write_blocking+0x6a>
20000e4a:	e001      	b.n	20000e50 <spi_write_blocking+0x80>
20000e4c:	f8dc 3008 	ldr.w	r3, [ip, #8]
20000e50:	f8dc 300c 	ldr.w	r3, [ip, #12]
20000e54:	075b      	lsls	r3, r3, #29
20000e56:	d4f9      	bmi.n	20000e4c <spi_write_blocking+0x7c>
20000e58:	2301      	movs	r3, #1
20000e5a:	f8cc 3020 	str.w	r3, [ip, #32]
20000e5e:	4770      	bx	lr

20000e60 <__aeabi_ldivmod>:
20000e60:	b97b      	cbnz	r3, 20000e82 <__aeabi_ldivmod+0x22>
20000e62:	b972      	cbnz	r2, 20000e82 <__aeabi_ldivmod+0x22>
20000e64:	2900      	cmp	r1, #0
20000e66:	bfbe      	ittt	lt
20000e68:	2000      	movlt	r0, #0
20000e6a:	f04f 4100 	movlt.w	r1, #2147483648	@ 0x80000000
20000e6e:	e006      	blt.n	20000e7e <__aeabi_ldivmod+0x1e>
20000e70:	bf08      	it	eq
20000e72:	2800      	cmpeq	r0, #0
20000e74:	bf1c      	itt	ne
20000e76:	f06f 4100 	mvnne.w	r1, #2147483648	@ 0x80000000
20000e7a:	f04f 30ff 	movne.w	r0, #4294967295
20000e7e:	f000 b9fd 	b.w	2000127c <__aeabi_idiv0>
20000e82:	f1ad 0c08 	sub.w	ip, sp, #8
20000e86:	e96d ce04 	strd	ip, lr, [sp, #-16]!
20000e8a:	2900      	cmp	r1, #0
20000e8c:	db09      	blt.n	20000ea2 <__aeabi_ldivmod+0x42>
20000e8e:	2b00      	cmp	r3, #0
20000e90:	db1a      	blt.n	20000ec8 <__aeabi_ldivmod+0x68>
20000e92:	f000 f84d 	bl	20000f30 <__udivmoddi4>
20000e96:	f8dd e004 	ldr.w	lr, [sp, #4]
20000e9a:	e9dd 2302 	ldrd	r2, r3, [sp, #8]
20000e9e:	b004      	add	sp, #16
20000ea0:	4770      	bx	lr
20000ea2:	4240      	negs	r0, r0
20000ea4:	eb61 0141 	sbc.w	r1, r1, r1, lsl #1
20000ea8:	2b00      	cmp	r3, #0
20000eaa:	db1b      	blt.n	20000ee4 <__aeabi_ldivmod+0x84>
20000eac:	f000 f840 	bl	20000f30 <__udivmoddi4>
20000eb0:	f8dd e004 	ldr.w	lr, [sp, #4]
20000eb4:	e9dd 2302 	ldrd	r2, r3, [sp, #8]
20000eb8:	b004      	add	sp, #16
20000eba:	4240      	negs	r0, r0
20000ebc:	eb61 0141 	sbc.w	r1, r1, r1, lsl #1
20000ec0:	4252      	negs	r2, r2
20000ec2:	eb63 0343 	sbc.w	r3, r3, r3, lsl #1
20000ec6:	4770      	bx	lr
20000ec8:	4252      	negs	r2, r2
20000eca:	eb63 0343 	sbc.w	r3, r3, r3, lsl #1
20000ece:	f000 f82f 	bl	20000f30 <__udivmoddi4>
20000ed2:	f8dd e004 	ldr.w	lr, [sp, #4]
20000ed6:	e9dd 2302 	ldrd	r2, r3, [sp, #8]
20000eda:	b004      	add	sp, #16
20000edc:	4240      	negs	r0, r0
20000ede:	eb61 0141 	sbc.w	r1, r1, r1, lsl #1
20000ee2:	4770      	bx	lr
20000ee4:	4252      	negs	r2, r2
20000ee6:	eb63 0343 	sbc.w	r3, r3, r3, lsl #1
20000eea:	f000 f821 	bl	20000f30 <__udivmoddi4>
20000eee:	f8dd e004 	ldr.w	lr, [sp, #4]
20000ef2:	e9dd 2302 	ldrd	r2, r3, [sp, #8]
20000ef6:	b004      	add	sp, #16
20000ef8:	4252      	negs	r2, r2
20000efa:	eb63 0343 	sbc.w	r3, r3, r3, lsl #1
20000efe:	4770      	bx	lr

20000f00 <__aeabi_uldivmod>:
20000f00:	b953      	cbnz	r3, 20000f18 <__aeabi_uldivmod+0x18>
20000f02:	b94a      	cbnz	r2, 20000f18 <__aeabi_uldivmod+0x18>
20000f04:	2900      	cmp	r1, #0
20000f06:	bf08      	it	eq
20000f08:	2800      	cmpeq	r0, #0
20000f0a:	bf1c      	itt	ne
20000f0c:	f04f 31ff 	movne.w	r1, #4294967295
20000f10:	f04f 30ff 	movne.w	r0, #4294967295
20000f14:	f000 b9b2 	b.w	2000127c <__aeabi_idiv0>
20000f18:	f1ad 0c08 	sub.w	ip, sp, #8
20000f1c:	e96d ce04 	strd	ip, lr, [sp, #-16]!
20000f20:	f000 f806 	bl	20000f30 <__udivmoddi4>
20000f24:	f8dd e004 	ldr.w	lr, [sp, #4]
20000f28:	e9dd 2302 	ldrd	r2, r3, [sp, #8]
20000f2c:	b004      	add	sp, #16
20000f2e:	4770      	bx	lr

20000f30 <__udivmoddi4>:
20000f30:	e92d 4ff0 	stmdb	sp!, {r4, r5, r6, r7, r8, r9, sl, fp, lr}
20000f34:	468c      	mov	ip, r1
20000f36:	9e09      	ldr	r6, [sp, #36]	@ 0x24
20000f38:	4604      	mov	r4, r0
20000f3a:	460f      	mov	r7, r1
20000f3c:	2b00      	cmp	r3, #0
20000f3e:	d148      	bne.n	20000fd2 <__udivmoddi4+0xa2>
20000f40:	428a      	cmp	r2, r1
20000f42:	4615      	mov	r5, r2
20000f44:	d95e      	bls.n	20001004 <__udivmoddi4+0xd4>
20000f46:	fab2 f382 	clz	r3, r2
20000f4a:	b13b      	cbz	r3, 20000f5c <__udivmoddi4+0x2c>
20000f4c:	f1c3 0220 	rsb	r2, r3, #32
20000f50:	409f      	lsls	r7, r3
20000f52:	409d      	lsls	r5, r3
20000f54:	409c      	lsls	r4, r3
20000f56:	fa20 f202 	lsr.w	r2, r0, r2
20000f5a:	4317      	orrs	r7, r2
20000f5c:	ea4f 4e15 	mov.w	lr, r5, lsr #16
20000f60:	fa1f fc85 	uxth.w	ip, r5
20000f64:	0c22      	lsrs	r2, r4, #16
20000f66:	fbb7 f1fe 	udiv	r1, r7, lr
20000f6a:	fb0e 7711 	mls	r7, lr, r1, r7
20000f6e:	fb01 f00c 	mul.w	r0, r1, ip
20000f72:	ea42 4207 	orr.w	r2, r2, r7, lsl #16
20000f76:	4290      	cmp	r0, r2
20000f78:	d907      	bls.n	20000f8a <__udivmoddi4+0x5a>
20000f7a:	18aa      	adds	r2, r5, r2
20000f7c:	f101 37ff 	add.w	r7, r1, #4294967295
20000f80:	d202      	bcs.n	20000f88 <__udivmoddi4+0x58>
20000f82:	4290      	cmp	r0, r2
20000f84:	f200 8158 	bhi.w	20001238 <__udivmoddi4+0x308>
20000f88:	4639      	mov	r1, r7
20000f8a:	1a12      	subs	r2, r2, r0
20000f8c:	b2a4      	uxth	r4, r4
20000f8e:	fbb2 f0fe 	udiv	r0, r2, lr
20000f92:	fb0e 2210 	mls	r2, lr, r0, r2
20000f96:	fb00 fc0c 	mul.w	ip, r0, ip
20000f9a:	ea44 4402 	orr.w	r4, r4, r2, lsl #16
20000f9e:	45a4      	cmp	ip, r4
20000fa0:	d90b      	bls.n	20000fba <__udivmoddi4+0x8a>
20000fa2:	192c      	adds	r4, r5, r4
20000fa4:	f100 32ff 	add.w	r2, r0, #4294967295
20000fa8:	bf2c      	ite	cs
20000faa:	2701      	movcs	r7, #1
20000fac:	2700      	movcc	r7, #0
20000fae:	45a4      	cmp	ip, r4
20000fb0:	d902      	bls.n	20000fb8 <__udivmoddi4+0x88>
20000fb2:	2f00      	cmp	r7, #0
20000fb4:	f000 8143 	beq.w	2000123e <__udivmoddi4+0x30e>
20000fb8:	4610      	mov	r0, r2
20000fba:	ea40 4001 	orr.w	r0, r0, r1, lsl #16
20000fbe:	eba4 040c 	sub.w	r4, r4, ip
20000fc2:	2100      	movs	r1, #0
20000fc4:	b11e      	cbz	r6, 20000fce <__udivmoddi4+0x9e>
20000fc6:	40dc      	lsrs	r4, r3
20000fc8:	2300      	movs	r3, #0
20000fca:	e9c6 4300 	strd	r4, r3, [r6]
20000fce:	e8bd 8ff0 	ldmia.w	sp!, {r4, r5, r6, r7, r8, r9, sl, fp, pc}
20000fd2:	428b      	cmp	r3, r1
20000fd4:	d906      	bls.n	20000fe4 <__udivmoddi4+0xb4>
20000fd6:	b10e      	cbz	r6, 20000fdc <__udivmoddi4+0xac>
20000fd8:	e9c6 0100 	strd	r0, r1, [r6]
20000fdc:	2100      	movs	r1, #0
20000fde:	4608      	mov	r0, r1
20000fe0:	e8bd 8ff0 	ldmia.w	sp!, {r4, r5, r6, r7, r8, r9, sl, fp, pc}
20000fe4:	fab3 f183 	clz	r1, r3
20000fe8:	2900      	cmp	r1, #0
20000fea:	d151      	bne.n	20001090 <__udivmoddi4+0x160>
20000fec:	4563      	cmp	r3, ip
20000fee:	f0c0 8116 	bcc.w	2000121e <__udivmoddi4+0x2ee>
20000ff2:	4282      	cmp	r2, r0
20000ff4:	f240 8113 	bls.w	2000121e <__udivmoddi4+0x2ee>
20000ff8:	4608      	mov	r0, r1
20000ffa:	2e00      	cmp	r6, #0
20000ffc:	d0e7      	beq.n	20000fce <__udivmoddi4+0x9e>
20000ffe:	e9c6 4700 	strd	r4, r7, [r6]
20001002:	e7e4      	b.n	20000fce <__udivmoddi4+0x9e>
20001004:	2a00      	cmp	r2, #0
20001006:	f000 80af 	beq.w	20001168 <__udivmoddi4+0x238>
2000100a:	fab2 f382 	clz	r3, r2
2000100e:	2b00      	cmp	r3, #0
20001010:	f040 80c2 	bne.w	20001198 <__udivmoddi4+0x268>
20001014:	1a8a      	subs	r2, r1, r2
20001016:	ea4f 4e15 	mov.w	lr, r5, lsr #16
2000101a:	b2af      	uxth	r7, r5
2000101c:	2101      	movs	r1, #1
2000101e:	0c20      	lsrs	r0, r4, #16
20001020:	fbb2 fcfe 	udiv	ip, r2, lr
20001024:	fb0e 221c 	mls	r2, lr, ip, r2
20001028:	ea40 4202 	orr.w	r2, r0, r2, lsl #16
2000102c:	fb07 f00c 	mul.w	r0, r7, ip
20001030:	4290      	cmp	r0, r2
20001032:	d90e      	bls.n	20001052 <__udivmoddi4+0x122>
20001034:	18aa      	adds	r2, r5, r2
20001036:	f10c 38ff 	add.w	r8, ip, #4294967295
2000103a:	bf2c      	ite	cs
2000103c:	f04f 0901 	movcs.w	r9, #1
20001040:	f04f 0900 	movcc.w	r9, #0
20001044:	4290      	cmp	r0, r2
20001046:	d903      	bls.n	20001050 <__udivmoddi4+0x120>
20001048:	f1b9 0f00 	cmp.w	r9, #0
2000104c:	f000 80f0 	beq.w	20001230 <__udivmoddi4+0x300>
20001050:	46c4      	mov	ip, r8
20001052:	1a12      	subs	r2, r2, r0
20001054:	b2a4      	uxth	r4, r4
20001056:	fbb2 f0fe 	udiv	r0, r2, lr
2000105a:	fb0e 2210 	mls	r2, lr, r0, r2
2000105e:	fb00 f707 	mul.w	r7, r0, r7
20001062:	ea44 4402 	orr.w	r4, r4, r2, lsl #16
20001066:	42a7      	cmp	r7, r4
20001068:	d90e      	bls.n	20001088 <__udivmoddi4+0x158>
2000106a:	192c      	adds	r4, r5, r4
2000106c:	f100 32ff 	add.w	r2, r0, #4294967295
20001070:	bf2c      	ite	cs
20001072:	f04f 0e01 	movcs.w	lr, #1
20001076:	f04f 0e00 	movcc.w	lr, #0
2000107a:	42a7      	cmp	r7, r4
2000107c:	d903      	bls.n	20001086 <__udivmoddi4+0x156>
2000107e:	f1be 0f00 	cmp.w	lr, #0
20001082:	f000 80d2 	beq.w	2000122a <__udivmoddi4+0x2fa>
20001086:	4610      	mov	r0, r2
20001088:	1be4      	subs	r4, r4, r7
2000108a:	ea40 400c 	orr.w	r0, r0, ip, lsl #16
2000108e:	e799      	b.n	20000fc4 <__udivmoddi4+0x94>
20001090:	f1c1 0520 	rsb	r5, r1, #32
20001094:	408b      	lsls	r3, r1
20001096:	fa0c f401 	lsl.w	r4, ip, r1
2000109a:	fa00 f901 	lsl.w	r9, r0, r1
2000109e:	fa22 f705 	lsr.w	r7, r2, r5
200010a2:	fa2c fc05 	lsr.w	ip, ip, r5
200010a6:	408a      	lsls	r2, r1
200010a8:	431f      	orrs	r7, r3
200010aa:	fa20 f305 	lsr.w	r3, r0, r5
200010ae:	0c38      	lsrs	r0, r7, #16
200010b0:	4323      	orrs	r3, r4
200010b2:	fa1f fe87 	uxth.w	lr, r7
200010b6:	0c1c      	lsrs	r4, r3, #16
200010b8:	fbbc f8f0 	udiv	r8, ip, r0
200010bc:	fb00 cc18 	mls	ip, r0, r8, ip
200010c0:	ea44 440c 	orr.w	r4, r4, ip, lsl #16
200010c4:	fb08 fc0e 	mul.w	ip, r8, lr
200010c8:	45a4      	cmp	ip, r4
200010ca:	d90e      	bls.n	200010ea <__udivmoddi4+0x1ba>
200010cc:	193c      	adds	r4, r7, r4
200010ce:	f108 3aff 	add.w	sl, r8, #4294967295
200010d2:	bf2c      	ite	cs
200010d4:	f04f 0b01 	movcs.w	fp, #1
200010d8:	f04f 0b00 	movcc.w	fp, #0
200010dc:	45a4      	cmp	ip, r4
200010de:	d903      	bls.n	200010e8 <__udivmoddi4+0x1b8>
200010e0:	f1bb 0f00 	cmp.w	fp, #0
200010e4:	f000 80b8 	beq.w	20001258 <__udivmoddi4+0x328>
200010e8:	46d0      	mov	r8, sl
200010ea:	eba4 040c 	sub.w	r4, r4, ip
200010ee:	fa1f fc83 	uxth.w	ip, r3
200010f2:	fbb4 f3f0 	udiv	r3, r4, r0
200010f6:	fb00 4413 	mls	r4, r0, r3, r4
200010fa:	fb03 fe0e 	mul.w	lr, r3, lr
200010fe:	ea4c 4404 	orr.w	r4, ip, r4, lsl #16
20001102:	45a6      	cmp	lr, r4
20001104:	d90e      	bls.n	20001124 <__udivmoddi4+0x1f4>
20001106:	193c      	adds	r4, r7, r4
20001108:	f103 30ff 	add.w	r0, r3, #4294967295
2000110c:	bf2c      	ite	cs
2000110e:	f04f 0c01 	movcs.w	ip, #1
20001112:	f04f 0c00 	movcc.w	ip, #0
20001116:	45a6      	cmp	lr, r4
20001118:	d903      	bls.n	20001122 <__udivmoddi4+0x1f2>
2000111a:	f1bc 0f00 	cmp.w	ip, #0
2000111e:	f000 809f 	beq.w	20001260 <__udivmoddi4+0x330>
20001122:	4603      	mov	r3, r0
20001124:	ea43 4008 	orr.w	r0, r3, r8, lsl #16
20001128:	eba4 040e 	sub.w	r4, r4, lr
2000112c:	fba0 ec02 	umull	lr, ip, r0, r2
20001130:	4564      	cmp	r4, ip
20001132:	4673      	mov	r3, lr
20001134:	46e0      	mov	r8, ip
20001136:	d302      	bcc.n	2000113e <__udivmoddi4+0x20e>
20001138:	d107      	bne.n	2000114a <__udivmoddi4+0x21a>
2000113a:	45f1      	cmp	r9, lr
2000113c:	d205      	bcs.n	2000114a <__udivmoddi4+0x21a>
2000113e:	ebbe 0302 	subs.w	r3, lr, r2
20001142:	eb6c 0c07 	sbc.w	ip, ip, r7
20001146:	3801      	subs	r0, #1
20001148:	46e0      	mov	r8, ip
2000114a:	b15e      	cbz	r6, 20001164 <__udivmoddi4+0x234>
2000114c:	ebb9 0203 	subs.w	r2, r9, r3
20001150:	eb64 0408 	sbc.w	r4, r4, r8
20001154:	fa04 f505 	lsl.w	r5, r4, r5
20001158:	fa22 f301 	lsr.w	r3, r2, r1
2000115c:	40cc      	lsrs	r4, r1
2000115e:	431d      	orrs	r5, r3
20001160:	e9c6 5400 	strd	r5, r4, [r6]
20001164:	2100      	movs	r1, #0
20001166:	e732      	b.n	20000fce <__udivmoddi4+0x9e>
20001168:	0842      	lsrs	r2, r0, #1
2000116a:	462f      	mov	r7, r5
2000116c:	084b      	lsrs	r3, r1, #1
2000116e:	46ac      	mov	ip, r5
20001170:	ea42 72c1 	orr.w	r2, r2, r1, lsl #31
20001174:	46ae      	mov	lr, r5
20001176:	07c4      	lsls	r4, r0, #31
20001178:	0c11      	lsrs	r1, r2, #16
2000117a:	b292      	uxth	r2, r2
2000117c:	ea41 4103 	orr.w	r1, r1, r3, lsl #16
20001180:	ea42 4201 	orr.w	r2, r2, r1, lsl #16
20001184:	fbb1 f1f5 	udiv	r1, r1, r5
20001188:	fbb3 f0f5 	udiv	r0, r3, r5
2000118c:	231f      	movs	r3, #31
2000118e:	eba2 020c 	sub.w	r2, r2, ip
20001192:	ea41 4100 	orr.w	r1, r1, r0, lsl #16
20001196:	e742      	b.n	2000101e <__udivmoddi4+0xee>
20001198:	409d      	lsls	r5, r3
2000119a:	f1c3 0220 	rsb	r2, r3, #32
2000119e:	4099      	lsls	r1, r3
200011a0:	409c      	lsls	r4, r3
200011a2:	fa2c fc02 	lsr.w	ip, ip, r2
200011a6:	ea4f 4e15 	mov.w	lr, r5, lsr #16
200011aa:	fa20 f202 	lsr.w	r2, r0, r2
200011ae:	b2af      	uxth	r7, r5
200011b0:	fbbc f8fe 	udiv	r8, ip, lr
200011b4:	430a      	orrs	r2, r1
200011b6:	fb0e cc18 	mls	ip, lr, r8, ip
200011ba:	0c11      	lsrs	r1, r2, #16
200011bc:	ea41 410c 	orr.w	r1, r1, ip, lsl #16
200011c0:	fb08 fc07 	mul.w	ip, r8, r7
200011c4:	458c      	cmp	ip, r1
200011c6:	d950      	bls.n	2000126a <__udivmoddi4+0x33a>
200011c8:	1869      	adds	r1, r5, r1
200011ca:	f108 30ff 	add.w	r0, r8, #4294967295
200011ce:	bf2c      	ite	cs
200011d0:	f04f 0901 	movcs.w	r9, #1
200011d4:	f04f 0900 	movcc.w	r9, #0
200011d8:	458c      	cmp	ip, r1
200011da:	d902      	bls.n	200011e2 <__udivmoddi4+0x2b2>
200011dc:	f1b9 0f00 	cmp.w	r9, #0
200011e0:	d030      	beq.n	20001244 <__udivmoddi4+0x314>
200011e2:	eba1 010c 	sub.w	r1, r1, ip
200011e6:	fbb1 f8fe 	udiv	r8, r1, lr
200011ea:	fb08 fc07 	mul.w	ip, r8, r7
200011ee:	fb0e 1118 	mls	r1, lr, r8, r1
200011f2:	b292      	uxth	r2, r2
200011f4:	ea42 4201 	orr.w	r2, r2, r1, lsl #16
200011f8:	4562      	cmp	r2, ip
200011fa:	d234      	bcs.n	20001266 <__udivmoddi4+0x336>
200011fc:	18aa      	adds	r2, r5, r2
200011fe:	f108 31ff 	add.w	r1, r8, #4294967295
20001202:	bf2c      	ite	cs
20001204:	f04f 0901 	movcs.w	r9, #1
20001208:	f04f 0900 	movcc.w	r9, #0
2000120c:	4562      	cmp	r2, ip
2000120e:	d2be      	bcs.n	2000118e <__udivmoddi4+0x25e>
20001210:	f1b9 0f00 	cmp.w	r9, #0
20001214:	d1bb      	bne.n	2000118e <__udivmoddi4+0x25e>
20001216:	f1a8 0102 	sub.w	r1, r8, #2
2000121a:	442a      	add	r2, r5
2000121c:	e7b7      	b.n	2000118e <__udivmoddi4+0x25e>
2000121e:	1a84      	subs	r4, r0, r2
20001220:	eb6c 0203 	sbc.w	r2, ip, r3
20001224:	2001      	movs	r0, #1
20001226:	4617      	mov	r7, r2
20001228:	e6e7      	b.n	20000ffa <__udivmoddi4+0xca>
2000122a:	442c      	add	r4, r5
2000122c:	3802      	subs	r0, #2
2000122e:	e72b      	b.n	20001088 <__udivmoddi4+0x158>
20001230:	f1ac 0c02 	sub.w	ip, ip, #2
20001234:	442a      	add	r2, r5
20001236:	e70c      	b.n	20001052 <__udivmoddi4+0x122>
20001238:	3902      	subs	r1, #2
2000123a:	442a      	add	r2, r5
2000123c:	e6a5      	b.n	20000f8a <__udivmoddi4+0x5a>
2000123e:	442c      	add	r4, r5
20001240:	3802      	subs	r0, #2
20001242:	e6ba      	b.n	20000fba <__udivmoddi4+0x8a>
20001244:	eba5 0c0c 	sub.w	ip, r5, ip
20001248:	f1a8 0002 	sub.w	r0, r8, #2
2000124c:	4461      	add	r1, ip
2000124e:	fbb1 f8fe 	udiv	r8, r1, lr
20001252:	fb08 fc07 	mul.w	ip, r8, r7
20001256:	e7ca      	b.n	200011ee <__udivmoddi4+0x2be>
20001258:	f1a8 0802 	sub.w	r8, r8, #2
2000125c:	443c      	add	r4, r7
2000125e:	e744      	b.n	200010ea <__udivmoddi4+0x1ba>
20001260:	3b02      	subs	r3, #2
20001262:	443c      	add	r4, r7
20001264:	e75e      	b.n	20001124 <__udivmoddi4+0x1f4>
20001266:	4641      	mov	r1, r8
20001268:	e791      	b.n	2000118e <__udivmoddi4+0x25e>
2000126a:	eba1 010c 	sub.w	r1, r1, ip
2000126e:	4640      	mov	r0, r8
20001270:	fbb1 f8fe 	udiv	r8, r1, lr
20001274:	fb08 fc07 	mul.w	ip, r8, r7
20001278:	e7b9      	b.n	200011ee <__udivmoddi4+0x2be>
2000127a:	bf00      	nop

2000127c <__aeabi_idiv0>:
2000127c:	4770      	bx	lr
2000127e:	bf00      	nop

20001280 <__tu_fifo_write_veneer>:
20001280:	f85f f000 	ldr.w	pc, [pc]	@ 20001284 <__tu_fifo_write_veneer+0x4>
20001284:	1000b05d 	.word	0x1000b05d

20001288 <__tud_event_hook_cb_veneer>:
20001288:	f85f f000 	ldr.w	pc, [pc]	@ 2000128c <__tud_event_hook_cb_veneer+0x4>
2000128c:	10009685 	.word	0x10009685

20001290 <__time_us_64_veneer>:
20001290:	f85f f000 	ldr.w	pc, [pc]	@ 20001294 <__time_us_64_veneer+0x4>
20001294:	10006675 	.word	0x10006675

20001298 <__memset_veneer>:
20001298:	f85f f000 	ldr.w	pc, [pc]	@ 2000129c <__memset_veneer+0x4>
2000129c:	1000c8c9 	.word	0x1000c8c9

200012a0 <__panic_veneer>:
200012a0:	f85f f000 	ldr.w	pc, [pc]	@ 200012a4 <__panic_veneer+0x4>
200012a4:	100057ed 	.word	0x100057ed

200012a8 <__best_effort_wfe_or_timeout_veneer>:
200012a8:	f85f f000 	ldr.w	pc, [pc]	@ 200012ac <__best_effort_wfe_or_timeout_veneer+0x4>
200012ac:	1000656d 	.word	0x1000656d

200012b0 <striped_spin_lock_num>:
200012b0:	00000010                                ....

200012b4 <irq_handler_chain_slots>:
200012b4:	00000000 	.word	0x00000000
200012b8:	00010000 	.word	0x00010000
	...
200012c4:	00020000 	.word	0x00020000
	...
200012d0:	00030000 	.word	0x00030000
	...
200012dc:	00ff0000 	.word	0x00ff0000
200012e0:	00000000 	.word	0x00000000

200012e4 <irq_handler_chain_first_slot>:
200012e4:	b501      	push	{r0, lr}
200012e6:	6848      	ldr	r0, [r1, #4]
200012e8:	3101      	adds	r1, #1
200012ea:	468e      	mov	lr, r1
200012ec:	4700      	bx	r0

200012ee <irq_handler_chain_remove_tail>:
200012ee:	4670      	mov	r0, lr
200012f0:	3809      	subs	r0, #9
200012f2:	4901      	ldr	r1, [pc, #4]	@ (200012f8 <irq_handler_chain_remove_tail+0xa>)
200012f4:	4788      	blx	r1
200012f6:	bd01      	pop	{r0, pc}
200012f8:	10005cb1 	.word	0x10005cb1

200012fc <default_alarm_pool>:
	...
20001310:	200018b8                                ... 

20001314 <stdio_usb>:
20001314:	10008e31 10008ddd 10008d55 10008cc5     1.......U.......
20001324:	00000000 00000100                       ........

2000132c <_usbd_qdef>:
2000132c:	20001de0 000c0010 00000000 00000000     ... ............
	...

20001348 <_usbd_rhport>:
20001348:	000000ff                                ....

2000134c <i2c0_inst>:
2000134c:	40090000 00000000                       ...@....

20001354 <__malloc_sbrk_base>:
20001354:	ffffffff                                ....

20001358 <__malloc_trim_threshold>:
20001358:	00020000 00000000                       ........

20001360 <__malloc_av_>:
	...
20001368:	20001360 20001360 20001368 20001368     `.. `.. h.. h.. 
20001378:	20001370 20001370 20001378 20001378     p.. p.. x.. x.. 
20001388:	20001380 20001380 20001388 20001388     ... ... ... ... 
20001398:	20001390 20001390 20001398 20001398     ... ... ... ... 
200013a8:	200013a0 200013a0 200013a8 200013a8     ... ... ... ... 
200013b8:	200013b0 200013b0 200013b8 200013b8     ... ... ... ... 
200013c8:	200013c0 200013c0 200013c8 200013c8     ... ... ... ... 
200013d8:	200013d0 200013d0 200013d8 200013d8     ... ... ... ... 
200013e8:	200013e0 200013e0 200013e8 200013e8     ... ... ... ... 
200013f8:	200013f0 200013f0 200013f8 200013f8     ... ... ... ... 
20001408:	20001400 20001400 20001408 20001408     ... ... ... ... 
20001418:	20001410 20001410 20001418 20001418     ... ... ... ... 
20001428:	20001420 20001420 20001428 20001428      ..  .. (.. (.. 
20001438:	20001430 20001430 20001438 20001438     0.. 0.. 8.. 8.. 
20001448:	20001440 20001440 20001448 20001448     @.. @.. H.. H.. 
20001458:	20001450 20001450 20001458 20001458     P.. P.. X.. X.. 
20001468:	20001460 20001460 20001468 20001468     `.. `.. h.. h.. 
20001478:	20001470 20001470 20001478 20001478     p.. p.. x.. x.. 
20001488:	20001480 20001480 20001488 20001488     ... ... ... ... 
20001498:	20001490 20001490 20001498 20001498     ... ... ... ... 
200014a8:	200014a0 200014a0 200014a8 200014a8     ... ... ... ... 
200014b8:	200014b0 200014b0 200014b8 200014b8     ... ... ... ... 
200014c8:	200014c0 200014c0 200014c8 200014c8     ... ... ... ... 
200014d8:	200014d0 200014d0 200014d8 200014d8     ... ... ... ... 
200014e8:	200014e0 200014e0 200014e8 200014e8     ... ... ... ... 
200014f8:	200014f0 200014f0 200014f8 200014f8     ... ... ... ... 
20001508:	20001500 20001500 20001508 20001508     ... ... ... ... 
20001518:	20001510 20001510 20001518 20001518     ... ... ... ... 
20001528:	20001520 20001520 20001528 20001528      ..  .. (.. (.. 
20001538:	20001530 20001530 20001538 20001538     0.. 0.. 8.. 8.. 
20001548:	20001540 20001540 20001548 20001548     @.. @.. H.. H.. 
20001558:	20001550 20001550 20001558 20001558     P.. P.. X.. X.. 
20001568:	20001560 20001560 20001568 20001568     `.. `.. h.. h.. 
20001578:	20001570 20001570 20001578 20001578     p.. p.. x.. x.. 
20001588:	20001580 20001580 20001588 20001588     ... ... ... ... 
20001598:	20001590 20001590 20001598 20001598     ... ... ... ... 
200015a8:	200015a0 200015a0 200015a8 200015a8     ... ... ... ... 
200015b8:	200015b0 200015b0 200015b8 200015b8     ... ... ... ... 
200015c8:	200015c0 200015c0 200015c8 200015c8     ... ... ... ... 
200015d8:	200015d0 200015d0 200015d8 200015d8     ... ... ... ... 
200015e8:	200015e0 200015e0 200015e8 200015e8     ... ... ... ... 
200015f8:	200015f0 200015f0 200015f8 200015f8     ... ... ... ... 
20001608:	20001600 20001600 20001608 20001608     ... ... ... ... 
20001618:	20001610 20001610 20001618 20001618     ... ... ... ... 
20001628:	20001620 20001620 20001628 20001628      ..  .. (.. (.. 
20001638:	20001630 20001630 20001638 20001638     0.. 0.. 8.. 8.. 
20001648:	20001640 20001640 20001648 20001648     @.. @.. H.. H.. 
20001658:	20001650 20001650 20001658 20001658     P.. P.. X.. X.. 
20001668:	20001660 20001660 20001668 20001668     `.. `.. h.. h.. 
20001678:	20001670 20001670 20001678 20001678     p.. p.. x.. x.. 
20001688:	20001680 20001680 20001688 20001688     ... ... ... ... 
20001698:	20001690 20001690 20001698 20001698     ... ... ... ... 
200016a8:	200016a0 200016a0 200016a8 200016a8     ... ... ... ... 
200016b8:	200016b0 200016b0 200016b8 200016b8     ... ... ... ... 
200016c8:	200016c0 200016c0 200016c8 200016c8     ... ... ... ... 
200016d8:	200016d0 200016d0 200016d8 200016d8     ... ... ... ... 
200016e8:	200016e0 200016e0 200016e8 200016e8     ... ... ... ... 
200016f8:	200016f0 200016f0 200016f8 200016f8     ... ... ... ... 
20001708:	20001700 20001700 20001708 20001708     ... ... ... ... 
20001718:	20001710 20001710 20001718 20001718     ... ... ... ... 
20001728:	20001720 20001720 20001728 20001728      ..  .. (.. (.. 
20001738:	20001730 20001730 20001738 20001738     0.. 0.. 8.. 8.. 
20001748:	20001740 20001740 20001748 20001748     @.. @.. H.. H.. 
20001758:	20001750 20001750 20001758 20001758     P.. P.. X.. X.. 

20001768 <_impure_ptr>:
20001768:	20001770 00000000                       p.. ....

20001770 <_impure_data>:
20001770:	00000000 20001a7c 20001ae4 20001b4c     ....|.. ... L.. 
	...
20001808:	00000001 00000000 abcd330e e66d1234     .........3..4.m.
20001818:	0005deec 0000000b 00000000 00000000     ................
	...

200018b0 <print_mutex>:
	...
